[*] '/home/kylebot/Desktop/projects/fsop_new_primitive/libc.so.6'
    Arch:     amd64-64-little
    RELRO:    Partial RELRO
    Stack:    Canary found
    NX:       NX enabled
    PIE:      PIE enabled
_IO_default_doallocate 0x8e5a0
   8e5a0:       f3 0f 1e fa             endbr64 
   8e5a4:       53                      push   rbx
   8e5a5:       48 89 fb                mov    rbx, rdi
   8e5a8:       bf 00 20 00 00          mov    edi, 0x2000
   8e5ad:       48 83 ec 10             sub    rsp, 0x10
   8e5b1:       e8 ca 9d f9 ff          call   0x28380
   8e5b6:       48 85 c0                test   rax, rax
   8e5b9:       74 55                   je     0x8e610
   8e5bb:       48 8d 90 00 20 00 00    lea    rdx, [rax+0x2000]
   8e5c2:       48 8b 7b 38             mov    rdi, QWORD PTR [rbx+0x38]
   8e5c6:       66 48 0f 6e c0          movq   xmm0, rax
   8e5cb:       8b 03                   mov    eax, DWORD PTR [rbx]
   8e5cd:       66 48 0f 6e ca          movq   xmm1, rdx
   8e5d2:       66 0f 6c c1             punpcklqdq xmm0, xmm1
   8e5d6:       48 85 ff                test   rdi, rdi
   8e5d9:       74 04                   je     0x8e5df
   8e5db:       a8 01                   test   al, 0x1
   8e5dd:       74 19                   je     0x8e5f8
   8e5df:       83 e0 fe                and    eax, 0xfffffffe
   8e5e2:       0f 11 43 38             movups XMMWORD PTR [rbx+0x38], xmm0
   8e5e6:       89 03                   mov    DWORD PTR [rbx], eax
   8e5e8:       48 83 c4 10             add    rsp, 0x10
   8e5ec:       b8 01 00 00 00          mov    eax, 0x1
   8e5f1:       5b                      pop    rbx
   8e5f2:       c3                      ret    
   8e5f3:       0f 1f 44 00 00          nop    DWORD PTR [rax+rax*1+0x0]
   8e5f8:       0f 29 04 24             movaps XMMWORD PTR [rsp], xmm0
   8e5fc:       e8 6f 9d f9 ff          call   0x28370
   8e601:       8b 03                   mov    eax, DWORD PTR [rbx]
   8e603:       66 0f 6f 04 24          movdqa xmm0, XMMWORD PTR [rsp]
   8e608:       eb d5                   jmp    0x8e5df
   8e60a:       66 0f 1f 44 00 00       nop    WORD PTR [rax+rax*1+0x0]
   8e610:       48 83 c4 10             add    rsp, 0x10
   8e614:       b8 ff ff ff ff          mov    eax, 0xffffffff
   8e619:       5b                      pop    rbx
   8e61a:       c3                      ret
================
_IO_default_doallocate 0x8e5a0
   8e5a0:       f3 0f 1e fa             endbr64 
   8e5a4:       53                      push   rbx
   8e5a5:       48 89 fb                mov    rbx, rdi
   8e5a8:       bf 00 20 00 00          mov    edi, 0x2000
   8e5ad:       48 83 ec 10             sub    rsp, 0x10
   8e5b1:       e8 ca 9d f9 ff          call   0x28380
   8e5b6:       48 85 c0                test   rax, rax
   8e5b9:       74 55                   je     0x8e610
   8e5bb:       48 8d 90 00 20 00 00    lea    rdx, [rax+0x2000]
   8e5c2:       48 8b 7b 38             mov    rdi, QWORD PTR [rbx+0x38]
   8e5c6:       66 48 0f 6e c0          movq   xmm0, rax
   8e5cb:       8b 03                   mov    eax, DWORD PTR [rbx]
   8e5cd:       66 48 0f 6e ca          movq   xmm1, rdx
   8e5d2:       66 0f 6c c1             punpcklqdq xmm0, xmm1
   8e5d6:       48 85 ff                test   rdi, rdi
   8e5d9:       74 04                   je     0x8e5df
   8e5db:       a8 01                   test   al, 0x1
   8e5dd:       74 19                   je     0x8e5f8
   8e5df:       83 e0 fe                and    eax, 0xfffffffe
   8e5e2:       0f 11 43 38             movups XMMWORD PTR [rbx+0x38], xmm0
   8e5e6:       89 03                   mov    DWORD PTR [rbx], eax
   8e5e8:       48 83 c4 10             add    rsp, 0x10
   8e5ec:       b8 01 00 00 00          mov    eax, 0x1
   8e5f1:       5b                      pop    rbx
   8e5f2:       c3                      ret    
   8e5f3:       0f 1f 44 00 00          nop    DWORD PTR [rax+rax*1+0x0]
   8e5f8:       0f 29 04 24             movaps XMMWORD PTR [rsp], xmm0
   8e5fc:       e8 6f 9d f9 ff          call   0x28370
   8e601:       8b 03                   mov    eax, DWORD PTR [rbx]
   8e603:       66 0f 6f 04 24          movdqa xmm0, XMMWORD PTR [rsp]
   8e608:       eb d5                   jmp    0x8e5df
   8e60a:       66 0f 1f 44 00 00       nop    WORD PTR [rax+rax*1+0x0]
   8e610:       48 83 c4 10             add    rsp, 0x10
   8e614:       b8 ff ff ff ff          mov    eax, 0xffffffff
   8e619:       5b                      pop    rbx
   8e61a:       c3                      ret
================
_IO_file_underflow_mmap 0x8bbd0
   8bbd0:       f3 0f 1e fa             endbr64 
   8bbd4:       41 56                   push   r14
   8bbd6:       41 55                   push   r13
   8bbd8:       41 54                   push   r12
   8bbda:       55                      push   rbp
   8bbdb:       53                      push   rbx
   8bbdc:       48 81 ec a0 00 00 00    sub    rsp, 0xa0
   8bbe3:       64 48 8b 04 25 28 00 00 00      mov    rax, QWORD PTR fs:0x28
   8bbec:       48 89 84 24 98 00 00 00         mov    QWORD PTR [rsp+0x98], rax
   8bbf4:       48 8b 47 08             mov    rax, QWORD PTR [rdi+0x8]
   8bbf8:       48 3b 47 10             cmp    rax, QWORD PTR [rdi+0x10]
   8bbfc:       73 32                   jae    0x8bc30
   8bbfe:       0f b6 00                movzx  eax, BYTE PTR [rax]
   8bc01:       48 8b 94 24 98 00 00 00         mov    rdx, QWORD PTR [rsp+0x98]
   8bc09:       64 48 2b 14 25 28 00 00 00      sub    rdx, QWORD PTR fs:0x28
   8bc12:       0f 85 6a 02 00 00       jne    0x8be82
   8bc18:       48 81 c4 a0 00 00 00    add    rsp, 0xa0
   8bc1f:       5b                      pop    rbx
   8bc20:       5d                      pop    rbp
   8bc21:       41 5c                   pop    r12
   8bc23:       41 5d                   pop    r13
   8bc25:       41 5e                   pop    r14
   8bc27:       c3                      ret    
   8bc28:       0f 1f 84 00 00 00 00 00         nop    DWORD PTR [rax+rax*1+0x0]
   8bc30:       4c 8b af d8 00 00 00    mov    r13, QWORD PTR [rdi+0xd8]
   8bc37:       4c 8d 25 c2 9d 18 00    lea    r12, [rip+0x189dc2]        # 0x215a00
   8bc3e:       48 8d 1d 23 ab 18 00    lea    rbx, [rip+0x18ab23]        # 0x216768
   8bc45:       48 89 fd                mov    rbp, rdi
   8bc48:       4c 29 e3                sub    rbx, r12
   8bc4b:       4c 89 e8                mov    rax, r13
   8bc4e:       4c 29 e0                sub    rax, r12
   8bc51:       48 39 c3                cmp    rbx, rax
   8bc54:       0f 86 e6 01 00 00       jbe    0x8be40
   8bc5a:       48 89 e6                mov    rsi, rsp
   8bc5d:       48 89 ef                mov    rdi, rbp
   8bc60:       41 ff 95 90 00 00 00    call   QWORD PTR [r13+0x90]
   8bc67:       85 c0                   test   eax, eax
   8bc69:       0f 85 81 00 00 00       jne    0x8bcf0
   8bc6f:       8b 44 24 18             mov    eax, DWORD PTR [rsp+0x18]
   8bc73:       25 00 f0 00 00          and    eax, 0xf000
   8bc78:       3d 00 80 00 00          cmp    eax, 0x8000
   8bc7d:       75 71                   jne    0x8bcf0
   8bc7f:       4c 8b 74 24 30          mov    r14, QWORD PTR [rsp+0x30]
   8bc84:       4d 85 f6                test   r14, r14
   8bc87:       74 67                   je     0x8bcf0
   8bc89:       e8 e2 f6 08 00          call   0x11b370
   8bc8e:       4c 8b 6d 38             mov    r13, QWORD PTR [rbp+0x38]
   8bc92:       48 98                   cdqe   
   8bc94:       4c 89 ee                mov    rsi, r13
   8bc97:       48 89 c1                mov    rcx, rax
   8bc9a:       49 8d 54 06 ff          lea    rdx, [r14+rax*1-0x1]
   8bc9f:       48 f7 d6                not    rsi
   8bca2:       48 03 75 40             add    rsi, QWORD PTR [rbp+0x40]
   8bca6:       48 f7 d9                neg    rcx
   8bca9:       48 01 c6                add    rsi, rax
   8bcac:       48 21 ca                and    rdx, rcx
   8bcaf:       48 21 ce                and    rsi, rcx
   8bcb2:       48 39 f2                cmp    rdx, rsi
   8bcb5:       0f 82 95 01 00 00       jb     0x8be50
   8bcbb:       0f 86 cf 00 00 00       jbe    0x8bd90
   8bcc1:       4c 89 ef                mov    rdi, r13
   8bcc4:       b9 01 00 00 00          mov    ecx, 0x1
   8bcc9:       31 c0                   xor    eax, eax
   8bccb:       e8 20 ae 09 00          call   0x126af0
   8bcd0:       49 89 c5                mov    r13, rax
   8bcd3:       48 83 f8 ff             cmp    rax, 0xffffffffffffffff
   8bcd7:       74 17                   je     0x8bcf0
   8bcd9:       4c 8b 74 24 30          mov    r14, QWORD PTR [rsp+0x30]
   8bcde:       48 89 45 38             mov    QWORD PTR [rbp+0x38], rax
   8bce2:       4a 8d 04 30             lea    rax, [rax+r14*1]
   8bce6:       66 48 0f 6e c8          movq   xmm1, rax
   8bceb:       e9 aa 00 00 00          jmp    0x8bd9a
   8bcf0:       48 8b 7d 38             mov    rdi, QWORD PTR [rbp+0x38]
   8bcf4:       48 8b 75 40             mov    rsi, QWORD PTR [rbp+0x40]
   8bcf8:       48 29 fe                sub    rsi, rdi
   8bcfb:       e8 20 2f 09 00          call   0x11ec20
   8bd00:       8b 8d c0 00 00 00       mov    ecx, DWORD PTR [rbp+0xc0]
   8bd06:       48 8d 15 b3 a3 18 00    lea    rdx, [rip+0x18a3b3]        # 0x2160c0
   8bd0d:       48 8d 05 ec a8 18 00    lea    rax, [rip+0x18a8ec]        # 0x216600
   8bd14:       66 0f ef c0             pxor   xmm0, xmm0
   8bd18:       48 c7 45 18 00 00 00 00         mov    QWORD PTR [rbp+0x18], 0x0
   8bd20:       85 c9                   test   ecx, ecx
   8bd22:       0f 11 45 38             movups XMMWORD PTR [rbp+0x38], xmm0
   8bd26:       48 0f 4f c2             cmovg  rax, rdx
   8bd2a:       0f 11 45 08             movups XMMWORD PTR [rbp+0x8], xmm0
   8bd2e:       48 89 85 d8 00 00 00    mov    QWORD PTR [rbp+0xd8], rax
   8bd35:       48 8b 85 a0 00 00 00    mov    rax, QWORD PTR [rbp+0xa0]
   8bd3c:       48 89 90 e0 00 00 00    mov    QWORD PTR [rax+0xe0], rdx
   8bd43:       4c 8b ad d8 00 00 00    mov    r13, QWORD PTR [rbp+0xd8]
   8bd4a:       4c 89 e8                mov    rax, r13
   8bd4d:       4c 29 e0                sub    rax, r12
   8bd50:       48 39 c3                cmp    rbx, rax
   8bd53:       0f 86 1f 01 00 00       jbe    0x8be78
   8bd59:       48 8b 84 24 98 00 00 00         mov    rax, QWORD PTR [rsp+0x98]
   8bd61:       64 48 2b 04 25 28 00 00 00      sub    rax, QWORD PTR fs:0x28
   8bd6a:       0f 85 12 01 00 00       jne    0x8be82
   8bd70:       49 8b 45 20             mov    rax, QWORD PTR [r13+0x20]
   8bd74:       48 81 c4 a0 00 00 00    add    rsp, 0xa0
   8bd7b:       48 89 ef                mov    rdi, rbp
   8bd7e:       5b                      pop    rbx
   8bd7f:       5d                      pop    rbp
   8bd80:       41 5c                   pop    r12
   8bd82:       41 5d                   pop    r13
   8bd84:       41 5e                   pop    r14
   8bd86:       ff e0                   jmp    rax
   8bd88:       0f 1f 84 00 00 00 00 00         nop    DWORD PTR [rax+rax*1+0x0]
   8bd90:       4b 8d 44 35 00          lea    rax, [r13+r14*1+0x0]
   8bd95:       66 48 0f 6e c8          movq   xmm1, rax
   8bd9a:       48 8b 85 90 00 00 00    mov    rax, QWORD PTR [rbp+0x90]
   8bda1:       48 8b 55 10             mov    rdx, QWORD PTR [rbp+0x10]
   8bda5:       66 0f 6f c1             movdqa xmm0, xmm1
   8bda9:       4c 89 6d 18             mov    QWORD PTR [rbp+0x18], r13
   8bdad:       48 2b 55 08             sub    rdx, QWORD PTR [rbp+0x8]
   8bdb1:       66 0f 6c c0             punpcklqdq xmm0, xmm0
   8bdb5:       66 0f d6 4d 40          movq   QWORD PTR [rbp+0x40], xmm1
   8bdba:       48 29 d0                sub    rax, rdx
   8bdbd:       48 89 85 90 00 00 00    mov    QWORD PTR [rbp+0x90], rax
   8bdc4:       4c 39 f0                cmp    rax, r14
   8bdc7:       7d 47                   jge    0x8be10
   8bdc9:       4c 01 e8                add    rax, r13
   8bdcc:       8b 7d 70                mov    edi, DWORD PTR [rbp+0x70]
   8bdcf:       31 d2                   xor    edx, edx
   8bdd1:       4c 89 f6                mov    rsi, r14
   8bdd4:       66 48 0f 6e c0          movq   xmm0, rax
   8bdd9:       66 0f 6c c1             punpcklqdq xmm0, xmm1
   8bddd:       0f 11 45 08             movups XMMWORD PTR [rbp+0x8], xmm0
   8bde1:       e8 da 8c 08 00          call   0x114ac0
   8bde6:       48 8b 55 40             mov    rdx, QWORD PTR [rbp+0x40]
   8bdea:       48 2b 55 38             sub    rdx, QWORD PTR [rbp+0x38]
   8bdee:       48 39 d0                cmp    rax, rdx
   8bdf1:       74 35                   je     0x8be28
   8bdf3:       83 4d 00 20             or     DWORD PTR [rbp+0x0], 0x20
   8bdf7:       48 8b 45 08             mov    rax, QWORD PTR [rbp+0x8]
   8bdfb:       48 8b 55 10             mov    rdx, QWORD PTR [rbp+0x10]
   8bdff:       48 39 d0                cmp    rax, rdx
   8be02:       0f 82 f6 fd ff ff       jb     0x8bbfe
   8be08:       eb 0a                   jmp    0x8be14
   8be0a:       66 0f 1f 44 00 00       nop    WORD PTR [rax+rax*1+0x0]
   8be10:       0f 11 45 08             movups XMMWORD PTR [rbp+0x8], xmm0
   8be14:       83 4d 00 10             or     DWORD PTR [rbp+0x0], 0x10
   8be18:       b8 ff ff ff ff          mov    eax, 0xffffffff
   8be1d:       e9 df fd ff ff          jmp    0x8bc01
   8be22:       66 0f 1f 44 00 00       nop    WORD PTR [rax+rax*1+0x0]
   8be28:       48 89 85 90 00 00 00    mov    QWORD PTR [rbp+0x90], rax
   8be2f:       48 8b 55 10             mov    rdx, QWORD PTR [rbp+0x10]
   8be33:       48 8b 45 08             mov    rax, QWORD PTR [rbp+0x8]
   8be37:       eb c6                   jmp    0x8bdff
   8be39:       0f 1f 80 00 00 00 00    nop    DWORD PTR [rax+0x0]
   8be40:       e8 2b e1 ff ff          call   0x89f70
   8be45:       e9 10 fe ff ff          jmp    0x8bc5a
   8be4a:       66 0f 1f 44 00 00       nop    WORD PTR [rax+rax*1+0x0]
   8be50:       49 8d 7c 15 00          lea    rdi, [r13+rdx*1+0x0]
   8be55:       48 29 d6                sub    rsi, rdx
   8be58:       e8 c3 2d 09 00          call   0x11ec20
   8be5d:       4c 8b 6d 38             mov    r13, QWORD PTR [rbp+0x38]
   8be61:       4c 8b 74 24 30          mov    r14, QWORD PTR [rsp+0x30]
   8be66:       4b 8d 44 35 00          lea    rax, [r13+r14*1+0x0]
   8be6b:       66 48 0f 6e c8          movq   xmm1, rax
   8be70:       e9 25 ff ff ff          jmp    0x8bd9a
   8be75:       0f 1f 00                nop    DWORD PTR [rax]
   8be78:       e8 f3 e0 ff ff          call   0x89f70
   8be7d:       e9 d7 fe ff ff          jmp    0x8bd59
   8be82:       e8 99 a8 0a 00          call   0x136720
================
_IO_wdefault_uflow 0x838c0
   838c0:       f3 0f 1e fa             endbr64 
   838c4:       55                      push   rbp
   838c5:       48 8d 15 34 21 19 00    lea    rdx, [rip+0x192134]        # 0x215a00
   838cc:       48 8d 05 95 2e 19 00    lea    rax, [rip+0x192e95]        # 0x216768
   838d3:       53                      push   rbx
   838d4:       48 29 d0                sub    rax, rdx
   838d7:       48 89 fb                mov    rbx, rdi
   838da:       48 83 ec 08             sub    rsp, 0x8
   838de:       48 8b af d8 00 00 00    mov    rbp, QWORD PTR [rdi+0xd8]
   838e5:       48 89 e9                mov    rcx, rbp
   838e8:       48 29 d1                sub    rcx, rdx
   838eb:       48 39 c8                cmp    rax, rcx
   838ee:       76 38                   jbe    0x83928
   838f0:       48 89 df                mov    rdi, rbx
   838f3:       ff 55 20                call   QWORD PTR [rbp+0x20]
   838f6:       83 f8 ff                cmp    eax, 0xffffffff
   838f9:       74 1d                   je     0x83918
   838fb:       48 8b 93 a0 00 00 00    mov    rdx, QWORD PTR [rbx+0xa0]
   83902:       48 8b 02                mov    rax, QWORD PTR [rdx]
   83905:       48 8d 48 04             lea    rcx, [rax+0x4]
   83909:       8b 00                   mov    eax, DWORD PTR [rax]
   8390b:       48 89 0a                mov    QWORD PTR [rdx], rcx
   8390e:       48 83 c4 08             add    rsp, 0x8
   83912:       5b                      pop    rbx
   83913:       5d                      pop    rbp
   83914:       c3                      ret    
   83915:       0f 1f 00                nop    DWORD PTR [rax]
   83918:       48 83 c4 08             add    rsp, 0x8
   8391c:       b8 ff ff ff ff          mov    eax, 0xffffffff
   83921:       5b                      pop    rbx
   83922:       5d                      pop    rbp
   83923:       c3                      ret    
   83924:       0f 1f 40 00             nop    DWORD PTR [rax+0x0]
   83928:       e8 43 66 00 00          call   0x89f70
   8392d:       eb c1                   jmp    0x838f0
================
_IO_wdefault_uflow 0x838c0
   838c0:       f3 0f 1e fa             endbr64 
   838c4:       55                      push   rbp
   838c5:       48 8d 15 34 21 19 00    lea    rdx, [rip+0x192134]        # 0x215a00
   838cc:       48 8d 05 95 2e 19 00    lea    rax, [rip+0x192e95]        # 0x216768
   838d3:       53                      push   rbx
   838d4:       48 29 d0                sub    rax, rdx
   838d7:       48 89 fb                mov    rbx, rdi
   838da:       48 83 ec 08             sub    rsp, 0x8
   838de:       48 8b af d8 00 00 00    mov    rbp, QWORD PTR [rdi+0xd8]
   838e5:       48 89 e9                mov    rcx, rbp
   838e8:       48 29 d1                sub    rcx, rdx
   838eb:       48 39 c8                cmp    rax, rcx
   838ee:       76 38                   jbe    0x83928
   838f0:       48 89 df                mov    rdi, rbx
   838f3:       ff 55 20                call   QWORD PTR [rbp+0x20]
   838f6:       83 f8 ff                cmp    eax, 0xffffffff
   838f9:       74 1d                   je     0x83918
   838fb:       48 8b 93 a0 00 00 00    mov    rdx, QWORD PTR [rbx+0xa0]
   83902:       48 8b 02                mov    rax, QWORD PTR [rdx]
   83905:       48 8d 48 04             lea    rcx, [rax+0x4]
   83909:       8b 00                   mov    eax, DWORD PTR [rax]
   8390b:       48 89 0a                mov    QWORD PTR [rdx], rcx
   8390e:       48 83 c4 08             add    rsp, 0x8
   83912:       5b                      pop    rbx
   83913:       5d                      pop    rbp
   83914:       c3                      ret    
   83915:       0f 1f 00                nop    DWORD PTR [rax]
   83918:       48 83 c4 08             add    rsp, 0x8
   8391c:       b8 ff ff ff ff          mov    eax, 0xffffffff
   83921:       5b                      pop    rbx
   83922:       5d                      pop    rbp
   83923:       c3                      ret    
   83924:       0f 1f 40 00             nop    DWORD PTR [rax+0x0]
   83928:       e8 43 66 00 00          call   0x89f70
   8392d:       eb c1                   jmp    0x838f0
================
_IO_file_sync 0x8a4b0
   8a4b0:       f3 0f 1e fa             endbr64 
   8a4b4:       55                      push   rbp
   8a4b5:       53                      push   rbx
   8a4b6:       48 89 fb                mov    rbx, rdi
   8a4b9:       48 83 ec 18             sub    rsp, 0x18
   8a4bd:       48 8b 57 28             mov    rdx, QWORD PTR [rdi+0x28]
   8a4c1:       48 8b 77 20             mov    rsi, QWORD PTR [rdi+0x20]
   8a4c5:       48 39 f2                cmp    rdx, rsi
   8a4c8:       76 29                   jbe    0x8a4f3
   8a4ca:       8b 87 c0 00 00 00       mov    eax, DWORD PTR [rdi+0xc0]
   8a4d0:       85 c0                   test   eax, eax
   8a4d2:       7e 7c                   jle    0x8a550
   8a4d4:       48 8b 87 a0 00 00 00    mov    rax, QWORD PTR [rdi+0xa0]
   8a4db:       48 8b 70 18             mov    rsi, QWORD PTR [rax+0x18]
   8a4df:       48 8b 50 20             mov    rdx, QWORD PTR [rax+0x20]
   8a4e3:       48 29 f2                sub    rdx, rsi
   8a4e6:       48 c1 fa 02             sar    rdx, 0x2
   8a4ea:       e8 31 bd ff ff          call   0x86220
   8a4ef:       85 c0                   test   eax, eax
   8a4f1:       75 6d                   jne    0x8a560
   8a4f3:       48 8b 73 08             mov    rsi, QWORD PTR [rbx+0x8]
   8a4f7:       48 2b 73 10             sub    rsi, QWORD PTR [rbx+0x10]
   8a4fb:       74 3f                   je     0x8a53c
   8a4fd:       48 8b ab d8 00 00 00    mov    rbp, QWORD PTR [rbx+0xd8]
   8a504:       48 8d 15 f5 b4 18 00    lea    rdx, [rip+0x18b4f5]        # 0x215a00
   8a50b:       48 8d 05 56 c2 18 00    lea    rax, [rip+0x18c256]        # 0x216768
   8a512:       48 29 d0                sub    rax, rdx
   8a515:       48 89 e9                mov    rcx, rbp
   8a518:       48 29 d1                sub    rcx, rdx
   8a51b:       48 39 c8                cmp    rax, rcx
   8a51e:       76 60                   jbe    0x8a580
   8a520:       ba 01 00 00 00          mov    edx, 0x1
   8a525:       48 89 df                mov    rdi, rbx
   8a528:       ff 95 80 00 00 00       call   QWORD PTR [rbp+0x80]
   8a52e:       48 83 f8 ff             cmp    rax, 0xffffffffffffffff
   8a532:       74 3c                   je     0x8a570
   8a534:       48 8b 43 08             mov    rax, QWORD PTR [rbx+0x8]
   8a538:       48 89 43 10             mov    QWORD PTR [rbx+0x10], rax
   8a53c:       48 c7 83 90 00 00 00 ff ff ff ff        mov    QWORD PTR [rbx+0x90], 0xffffffffffffffff
   8a547:       31 c0                   xor    eax, eax
   8a549:       48 83 c4 18             add    rsp, 0x18
   8a54d:       5b                      pop    rbx
   8a54e:       5d                      pop    rbp
   8a54f:       c3                      ret    
   8a550:       48 29 f2                sub    rdx, rsi
   8a553:       e8 58 24 00 00          call   0x8c9b0
   8a558:       85 c0                   test   eax, eax
   8a55a:       74 97                   je     0x8a4f3
   8a55c:       0f 1f 40 00             nop    DWORD PTR [rax+0x0]
   8a560:       b8 ff ff ff ff          mov    eax, 0xffffffff
   8a565:       eb e2                   jmp    0x8a549
   8a567:       66 0f 1f 84 00 00 00 00 00      nop    WORD PTR [rax+rax*1+0x0]
   8a570:       48 8b 05 99 e8 18 00    mov    rax, QWORD PTR [rip+0x18e899]        # 0x218e10
   8a577:       64 83 38 1d             cmp    DWORD PTR fs:[rax], 0x1d
   8a57b:       74 bf                   je     0x8a53c
   8a57d:       eb e1                   jmp    0x8a560
   8a57f:       90                      nop
   8a580:       48 89 74 24 08          mov    QWORD PTR [rsp+0x8], rsi
   8a585:       e8 e6 f9 ff ff          call   0x89f70
   8a58a:       48 8b 74 24 08          mov    rsi, QWORD PTR [rsp+0x8]
   8a58f:       eb 8f                   jmp    0x8a520
================
_IO_file_sync 0x8a4b0
   8a4b0:       f3 0f 1e fa             endbr64 
   8a4b4:       55                      push   rbp
   8a4b5:       53                      push   rbx
   8a4b6:       48 89 fb                mov    rbx, rdi
   8a4b9:       48 83 ec 18             sub    rsp, 0x18
   8a4bd:       48 8b 57 28             mov    rdx, QWORD PTR [rdi+0x28]
   8a4c1:       48 8b 77 20             mov    rsi, QWORD PTR [rdi+0x20]
   8a4c5:       48 39 f2                cmp    rdx, rsi
   8a4c8:       76 29                   jbe    0x8a4f3
   8a4ca:       8b 87 c0 00 00 00       mov    eax, DWORD PTR [rdi+0xc0]
   8a4d0:       85 c0                   test   eax, eax
   8a4d2:       7e 7c                   jle    0x8a550
   8a4d4:       48 8b 87 a0 00 00 00    mov    rax, QWORD PTR [rdi+0xa0]
   8a4db:       48 8b 70 18             mov    rsi, QWORD PTR [rax+0x18]
   8a4df:       48 8b 50 20             mov    rdx, QWORD PTR [rax+0x20]
   8a4e3:       48 29 f2                sub    rdx, rsi
   8a4e6:       48 c1 fa 02             sar    rdx, 0x2
   8a4ea:       e8 31 bd ff ff          call   0x86220
   8a4ef:       85 c0                   test   eax, eax
   8a4f1:       75 6d                   jne    0x8a560
   8a4f3:       48 8b 73 08             mov    rsi, QWORD PTR [rbx+0x8]
   8a4f7:       48 2b 73 10             sub    rsi, QWORD PTR [rbx+0x10]
   8a4fb:       74 3f                   je     0x8a53c
   8a4fd:       48 8b ab d8 00 00 00    mov    rbp, QWORD PTR [rbx+0xd8]
   8a504:       48 8d 15 f5 b4 18 00    lea    rdx, [rip+0x18b4f5]        # 0x215a00
   8a50b:       48 8d 05 56 c2 18 00    lea    rax, [rip+0x18c256]        # 0x216768
   8a512:       48 29 d0                sub    rax, rdx
   8a515:       48 89 e9                mov    rcx, rbp
   8a518:       48 29 d1                sub    rcx, rdx
   8a51b:       48 39 c8                cmp    rax, rcx
   8a51e:       76 60                   jbe    0x8a580
   8a520:       ba 01 00 00 00          mov    edx, 0x1
   8a525:       48 89 df                mov    rdi, rbx
   8a528:       ff 95 80 00 00 00       call   QWORD PTR [rbp+0x80]
   8a52e:       48 83 f8 ff             cmp    rax, 0xffffffffffffffff
   8a532:       74 3c                   je     0x8a570
   8a534:       48 8b 43 08             mov    rax, QWORD PTR [rbx+0x8]
   8a538:       48 89 43 10             mov    QWORD PTR [rbx+0x10], rax
   8a53c:       48 c7 83 90 00 00 00 ff ff ff ff        mov    QWORD PTR [rbx+0x90], 0xffffffffffffffff
   8a547:       31 c0                   xor    eax, eax
   8a549:       48 83 c4 18             add    rsp, 0x18
   8a54d:       5b                      pop    rbx
   8a54e:       5d                      pop    rbp
   8a54f:       c3                      ret    
   8a550:       48 29 f2                sub    rdx, rsi
   8a553:       e8 58 24 00 00          call   0x8c9b0
   8a558:       85 c0                   test   eax, eax
   8a55a:       74 97                   je     0x8a4f3
   8a55c:       0f 1f 40 00             nop    DWORD PTR [rax+0x0]
   8a560:       b8 ff ff ff ff          mov    eax, 0xffffffff
   8a565:       eb e2                   jmp    0x8a549
   8a567:       66 0f 1f 84 00 00 00 00 00      nop    WORD PTR [rax+rax*1+0x0]
   8a570:       48 8b 05 99 e8 18 00    mov    rax, QWORD PTR [rip+0x18e899]        # 0x218e10
   8a577:       64 83 38 1d             cmp    DWORD PTR fs:[rax], 0x1d
   8a57b:       74 bf                   je     0x8a53c
   8a57d:       eb e1                   jmp    0x8a560
   8a57f:       90                      nop
   8a580:       48 89 74 24 08          mov    QWORD PTR [rsp+0x8], rsi
   8a585:       e8 e6 f9 ff ff          call   0x89f70
   8a58a:       48 8b 74 24 08          mov    rsi, QWORD PTR [rsp+0x8]
   8a58f:       eb 8f                   jmp    0x8a520
================
_IO_default_write 0x8f490
   8f490:       f3 0f 1e fa             endbr64 
   8f494:       31 c0                   xor    eax, eax
   8f496:       c3                      ret
================
_IO_wfile_overflow 0x86410
   86410:       f3 0f 1e fa             endbr64 
   86414:       41 54                   push   r12
   86416:       55                      push   rbp
   86417:       48 89 fd                mov    rbp, rdi
   8641a:       48 83 ec 08             sub    rsp, 0x8
   8641e:       8b 07                   mov    eax, DWORD PTR [rdi]
   86420:       a8 08                   test   al, 0x8
   86422:       0f 85 18 01 00 00       jne    0x86540
   86428:       41 89 f4                mov    r12d, esi
   8642b:       f6 c4 08                test   ah, 0x8
   8642e:       75 7c                   jne    0x864ac
   86430:       48 8b 97 a0 00 00 00    mov    rdx, QWORD PTR [rdi+0xa0]
   86437:       48 83 7a 18 00          cmp    QWORD PTR [rdx+0x18], 0x0
   8643c:       0f 84 2e 02 00 00       je     0x86670
   86442:       f3 0f 7e 0a             movq   xmm1, QWORD PTR [rdx]
   86446:       48 8b 4a 38             mov    rcx, QWORD PTR [rdx+0x38]
   8644a:       66 48 0f 7e cf          movq   rdi, xmm1
   8644f:       48 39 cf                cmp    rdi, rcx
   86452:       0f 84 c8 01 00 00       je     0x86620
   86458:       f3 0f 6f 45 08          movdqu xmm0, XMMWORD PTR [rbp+0x8]
   8645d:       f3 0f 7e 52 08          movq   xmm2, QWORD PTR [rdx+0x8]
   86462:       66 0f c6 c0 01          shufpd xmm0, xmm0, 0x1
   86467:       66 0f d6 12             movq   QWORD PTR [rdx], xmm2
   8646b:       66 0f 6c d1             punpcklqdq xmm2, xmm1
   8646f:       66 48 0f 6e d9          movq   xmm3, rcx
   86474:       48 8b 4d 40             mov    rcx, QWORD PTR [rbp+0x40]
   86478:       0f 11 52 10             movups XMMWORD PTR [rdx+0x10], xmm2
   8647c:       66 0f 6f d1             movdqa xmm2, xmm1
   86480:       66 0f 6c d3             punpcklqdq xmm2, xmm3
   86484:       0f 11 52 20             movups XMMWORD PTR [rdx+0x20], xmm2
   86488:       48 89 4d 30             mov    QWORD PTR [rbp+0x30], rcx
   8648c:       89 c1                   mov    ecx, eax
   8648e:       80 cd 08                or     ch, 0x8
   86491:       0f 17 45 28             movhps QWORD PTR [rbp+0x28], xmm0
   86495:       89 4d 00                mov    DWORD PTR [rbp+0x0], ecx
   86498:       66 0f d6 45 08          movq   QWORD PTR [rbp+0x8], xmm0
   8649d:       0f 11 45 18             movups XMMWORD PTR [rbp+0x18], xmm0
   864a1:       a9 02 02 00 00          test   eax, 0x202
   864a6:       0f 85 bc 00 00 00       jne    0x86568
   864ac:       41 83 fc ff             cmp    r12d, 0xffffffff
   864b0:       0f 84 c1 00 00 00       je     0x86577
   864b6:       48 8b 85 a0 00 00 00    mov    rax, QWORD PTR [rbp+0xa0]
   864bd:       48 8b 48 20             mov    rcx, QWORD PTR [rax+0x20]
   864c1:       48 3b 48 38             cmp    rcx, QWORD PTR [rax+0x38]
   864c5:       0f 84 e5 00 00 00       je     0x865b0
   864cb:       48 8d 51 04             lea    rdx, [rcx+0x4]
   864cf:       48 89 50 20             mov    QWORD PTR [rax+0x20], rdx
   864d3:       44 89 21                mov    DWORD PTR [rcx], r12d
   864d6:       8b 4d 00                mov    ecx, DWORD PTR [rbp+0x0]
   864d9:       f6 c1 02                test   cl, 0x2
   864dc:       74 42                   je     0x86520
   864de:       8b 8d c0 00 00 00       mov    ecx, DWORD PTR [rbp+0xc0]
   864e4:       85 c9                   test   ecx, ecx
   864e6:       0f 8e 0c 01 00 00       jle    0x865f8
   864ec:       48 8b 70 18             mov    rsi, QWORD PTR [rax+0x18]
   864f0:       48 89 ef                mov    rdi, rbp
   864f3:       48 29 f2                sub    rdx, rsi
   864f6:       48 c1 fa 02             sar    rdx, 0x2
   864fa:       e8 21 fd ff ff          call   0x86220
   864ff:       83 f8 ff                cmp    eax, 0xffffffff
   86502:       0f 94 c0                sete   al
   86505:       84 c0                   test   al, al
   86507:       74 06                   je     0x8650f
   86509:       41 bc ff ff ff ff       mov    r12d, 0xffffffff
   8650f:       48 83 c4 08             add    rsp, 0x8
   86513:       44 89 e0                mov    eax, r12d
   86516:       5d                      pop    rbp
   86517:       41 5c                   pop    r12
   86519:       c3                      ret    
   8651a:       66 0f 1f 44 00 00       nop    WORD PTR [rax+rax*1+0x0]
   86520:       80 e5 02                and    ch, 0x2
   86523:       74 ea                   je     0x8650f
   86525:       41 83 fc 0a             cmp    r12d, 0xa
   86529:       74 b3                   je     0x864de
   8652b:       48 83 c4 08             add    rsp, 0x8
   8652f:       44 89 e0                mov    eax, r12d
   86532:       5d                      pop    rbp
   86533:       41 5c                   pop    r12
   86535:       c3                      ret    
   86536:       66 2e 0f 1f 84 00 00 00 00 00   cs nop WORD PTR [rax+rax*1+0x0]
   86540:       83 c8 20                or     eax, 0x20
   86543:       41 bc ff ff ff ff       mov    r12d, 0xffffffff
   86549:       89 07                   mov    DWORD PTR [rdi], eax
   8654b:       48 8b 05 be 28 19 00    mov    rax, QWORD PTR [rip+0x1928be]        # 0x218e10
   86552:       64 c7 00 09 00 00 00    mov    DWORD PTR fs:[rax], 0x9
   86559:       48 83 c4 08             add    rsp, 0x8
   8655d:       44 89 e0                mov    eax, r12d
   86560:       5d                      pop    rbp
   86561:       41 5c                   pop    r12
   86563:       c3                      ret    
   86564:       0f 1f 40 00             nop    DWORD PTR [rax+0x0]
   86568:       66 0f d6 4a 28          movq   QWORD PTR [rdx+0x28], xmm1
   8656d:       41 83 fc ff             cmp    r12d, 0xffffffff
   86571:       0f 85 3f ff ff ff       jne    0x864b6
   86577:       8b bd c0 00 00 00       mov    edi, DWORD PTR [rbp+0xc0]
   8657d:       85 ff                   test   edi, edi
   8657f:       0f 8e 3b 01 00 00       jle    0x866c0
   86585:       48 8b 85 a0 00 00 00    mov    rax, QWORD PTR [rbp+0xa0]
   8658c:       48 89 ef                mov    rdi, rbp
   8658f:       48 8b 70 18             mov    rsi, QWORD PTR [rax+0x18]
   86593:       48 8b 50 20             mov    rdx, QWORD PTR [rax+0x20]
   86597:       48 83 c4 08             add    rsp, 0x8
   8659b:       5d                      pop    rbp
   8659c:       41 5c                   pop    r12
   8659e:       48 29 f2                sub    rdx, rsi
   865a1:       48 c1 fa 02             sar    rdx, 0x2
   865a5:       e9 76 fc ff ff          jmp    0x86220
   865aa:       66 0f 1f 44 00 00       nop    WORD PTR [rax+rax*1+0x0]
   865b0:       8b b5 c0 00 00 00       mov    esi, DWORD PTR [rbp+0xc0]
   865b6:       85 f6                   test   esi, esi
   865b8:       0f 8e 92 00 00 00       jle    0x86650
   865be:       48 8b 70 18             mov    rsi, QWORD PTR [rax+0x18]
   865c2:       48 89 ca                mov    rdx, rcx
   865c5:       48 89 ef                mov    rdi, rbp
   865c8:       48 29 f2                sub    rdx, rsi
   865cb:       48 c1 fa 02             sar    rdx, 0x2
   865cf:       e8 4c fc ff ff          call   0x86220
   865d4:       83 f8 ff                cmp    eax, 0xffffffff
   865d7:       0f 94 c0                sete   al
   865da:       84 c0                   test   al, al
   865dc:       0f 85 27 ff ff ff       jne    0x86509
   865e2:       48 8b 85 a0 00 00 00    mov    rax, QWORD PTR [rbp+0xa0]
   865e9:       48 8b 48 20             mov    rcx, QWORD PTR [rax+0x20]
   865ed:       e9 d9 fe ff ff          jmp    0x864cb
   865f2:       66 0f 1f 44 00 00       nop    WORD PTR [rax+rax*1+0x0]
   865f8:       48 8b 75 20             mov    rsi, QWORD PTR [rbp+0x20]
   865fc:       48 8b 55 28             mov    rdx, QWORD PTR [rbp+0x28]
   86600:       48 89 ef                mov    rdi, rbp
   86603:       48 29 f2                sub    rdx, rsi
   86606:       e8 a5 63 00 00          call   0x8c9b0
   8660b:       83 f8 ff                cmp    eax, 0xffffffff
   8660e:       0f 94 c0                sete   al
   86611:       e9 ef fe ff ff          jmp    0x86505
   86616:       66 2e 0f 1f 84 00 00 00 00 00   cs nop WORD PTR [rax+rax*1+0x0]
   86620:       f3 0f 7e 4a 30          movq   xmm1, QWORD PTR [rdx+0x30]
   86625:       f3 0f 7e 45 38          movq   xmm0, QWORD PTR [rbp+0x38]
   8662a:       66 0f 6f d1             movdqa xmm2, xmm1
   8662e:       66 0f 6c c0             punpcklqdq xmm0, xmm0
   86632:       66 0f 6c d2             punpcklqdq xmm2, xmm2
   86636:       0f 11 45 08             movups XMMWORD PTR [rbp+0x8], xmm0
   8663a:       0f 11 12                movups XMMWORD PTR [rdx], xmm2
   8663d:       66 0f 6f d1             movdqa xmm2, xmm1
   86641:       e9 21 fe ff ff          jmp    0x86467
   86646:       66 2e 0f 1f 84 00 00 00 00 00   cs nop WORD PTR [rax+rax*1+0x0]
   86650:       48 8b 75 20             mov    rsi, QWORD PTR [rbp+0x20]
   86654:       48 8b 55 28             mov    rdx, QWORD PTR [rbp+0x28]
   86658:       48 89 ef                mov    rdi, rbp
   8665b:       48 29 f2                sub    rdx, rsi
   8665e:       e8 4d 63 00 00          call   0x8c9b0
   86663:       83 f8 ff                cmp    eax, 0xffffffff
   86666:       0f 94 c0                sete   al
   86669:       e9 6c ff ff ff          jmp    0x865da
   8666e:       66 90                   xchg   ax, ax
   86670:       e8 7b d5 ff ff          call   0x83bf0
   86675:       48 89 ef                mov    rdi, rbp
   86678:       e8 43 dd ff ff          call   0x843c0
   8667d:       48 8b 95 a0 00 00 00    mov    rdx, QWORD PTR [rbp+0xa0]
   86684:       48 83 7d 20 00          cmp    QWORD PTR [rbp+0x20], 0x0
   86689:       f3 0f 7e 4a 30          movq   xmm1, QWORD PTR [rdx+0x30]
   8668e:       66 0f 6f c1             movdqa xmm0, xmm1
   86692:       66 0f d6 4a 10          movq   QWORD PTR [rdx+0x10], xmm1
   86697:       66 0f 6c c0             punpcklqdq xmm0, xmm0
   8669b:       0f 11 02                movups XMMWORD PTR [rdx], xmm0
   8669e:       74 40                   je     0x866e0
   866a0:       f3 0f 6f 45 08          movdqu xmm0, XMMWORD PTR [rbp+0x8]
   866a5:       48 8b 4a 38             mov    rcx, QWORD PTR [rdx+0x38]
   866a9:       66 0f 6f d1             movdqa xmm2, xmm1
   866ad:       8b 45 00                mov    eax, DWORD PTR [rbp+0x0]
   866b0:       66 0f c6 c0 01          shufpd xmm0, xmm0, 0x1
   866b5:       e9 ad fd ff ff          jmp    0x86467
   866ba:       66 0f 1f 44 00 00       nop    WORD PTR [rax+rax*1+0x0]
   866c0:       48 8b 75 20             mov    rsi, QWORD PTR [rbp+0x20]
   866c4:       48 8b 55 28             mov    rdx, QWORD PTR [rbp+0x28]
   866c8:       48 83 c4 08             add    rsp, 0x8
   866cc:       48 89 ef                mov    rdi, rbp
   866cf:       5d                      pop    rbp
   866d0:       41 5c                   pop    r12
   866d2:       48 29 f2                sub    rdx, rsi
   866d5:       e9 d6 62 00 00          jmp    0x8c9b0
   866da:       66 0f 1f 44 00 00       nop    WORD PTR [rax+rax*1+0x0]
   866e0:       48 89 ef                mov    rdi, rbp
   866e3:       e8 28 76 00 00          call   0x8dd10
   866e8:       f3 0f 6f 45 38          movdqu xmm0, XMMWORD PTR [rbp+0x38]
   866ed:       48 8b 95 a0 00 00 00    mov    rdx, QWORD PTR [rbp+0xa0]
   866f4:       8b 45 00                mov    eax, DWORD PTR [rbp+0x0]
   866f7:       66 0f 6c c0             punpcklqdq xmm0, xmm0
   866fb:       f3 0f 7e 0a             movq   xmm1, QWORD PTR [rdx]
   866ff:       48 8b 4a 38             mov    rcx, QWORD PTR [rdx+0x38]
   86703:       f3 0f 7e 52 08          movq   xmm2, QWORD PTR [rdx+0x8]
   86708:       0f 11 45 08             movups XMMWORD PTR [rbp+0x8], xmm0
   8670c:       e9 56 fd ff ff          jmp    0x86467
================
_IO_wfile_overflow 0x86410
   86410:       f3 0f 1e fa             endbr64 
   86414:       41 54                   push   r12
   86416:       55                      push   rbp
   86417:       48 89 fd                mov    rbp, rdi
   8641a:       48 83 ec 08             sub    rsp, 0x8
   8641e:       8b 07                   mov    eax, DWORD PTR [rdi]
   86420:       a8 08                   test   al, 0x8
   86422:       0f 85 18 01 00 00       jne    0x86540
   86428:       41 89 f4                mov    r12d, esi
   8642b:       f6 c4 08                test   ah, 0x8
   8642e:       75 7c                   jne    0x864ac
   86430:       48 8b 97 a0 00 00 00    mov    rdx, QWORD PTR [rdi+0xa0]
   86437:       48 83 7a 18 00          cmp    QWORD PTR [rdx+0x18], 0x0
   8643c:       0f 84 2e 02 00 00       je     0x86670
   86442:       f3 0f 7e 0a             movq   xmm1, QWORD PTR [rdx]
   86446:       48 8b 4a 38             mov    rcx, QWORD PTR [rdx+0x38]
   8644a:       66 48 0f 7e cf          movq   rdi, xmm1
   8644f:       48 39 cf                cmp    rdi, rcx
   86452:       0f 84 c8 01 00 00       je     0x86620
   86458:       f3 0f 6f 45 08          movdqu xmm0, XMMWORD PTR [rbp+0x8]
   8645d:       f3 0f 7e 52 08          movq   xmm2, QWORD PTR [rdx+0x8]
   86462:       66 0f c6 c0 01          shufpd xmm0, xmm0, 0x1
   86467:       66 0f d6 12             movq   QWORD PTR [rdx], xmm2
   8646b:       66 0f 6c d1             punpcklqdq xmm2, xmm1
   8646f:       66 48 0f 6e d9          movq   xmm3, rcx
   86474:       48 8b 4d 40             mov    rcx, QWORD PTR [rbp+0x40]
   86478:       0f 11 52 10             movups XMMWORD PTR [rdx+0x10], xmm2
   8647c:       66 0f 6f d1             movdqa xmm2, xmm1
   86480:       66 0f 6c d3             punpcklqdq xmm2, xmm3
   86484:       0f 11 52 20             movups XMMWORD PTR [rdx+0x20], xmm2
   86488:       48 89 4d 30             mov    QWORD PTR [rbp+0x30], rcx
   8648c:       89 c1                   mov    ecx, eax
   8648e:       80 cd 08                or     ch, 0x8
   86491:       0f 17 45 28             movhps QWORD PTR [rbp+0x28], xmm0
   86495:       89 4d 00                mov    DWORD PTR [rbp+0x0], ecx
   86498:       66 0f d6 45 08          movq   QWORD PTR [rbp+0x8], xmm0
   8649d:       0f 11 45 18             movups XMMWORD PTR [rbp+0x18], xmm0
   864a1:       a9 02 02 00 00          test   eax, 0x202
   864a6:       0f 85 bc 00 00 00       jne    0x86568
   864ac:       41 83 fc ff             cmp    r12d, 0xffffffff
   864b0:       0f 84 c1 00 00 00       je     0x86577
   864b6:       48 8b 85 a0 00 00 00    mov    rax, QWORD PTR [rbp+0xa0]
   864bd:       48 8b 48 20             mov    rcx, QWORD PTR [rax+0x20]
   864c1:       48 3b 48 38             cmp    rcx, QWORD PTR [rax+0x38]
   864c5:       0f 84 e5 00 00 00       je     0x865b0
   864cb:       48 8d 51 04             lea    rdx, [rcx+0x4]
   864cf:       48 89 50 20             mov    QWORD PTR [rax+0x20], rdx
   864d3:       44 89 21                mov    DWORD PTR [rcx], r12d
   864d6:       8b 4d 00                mov    ecx, DWORD PTR [rbp+0x0]
   864d9:       f6 c1 02                test   cl, 0x2
   864dc:       74 42                   je     0x86520
   864de:       8b 8d c0 00 00 00       mov    ecx, DWORD PTR [rbp+0xc0]
   864e4:       85 c9                   test   ecx, ecx
   864e6:       0f 8e 0c 01 00 00       jle    0x865f8
   864ec:       48 8b 70 18             mov    rsi, QWORD PTR [rax+0x18]
   864f0:       48 89 ef                mov    rdi, rbp
   864f3:       48 29 f2                sub    rdx, rsi
   864f6:       48 c1 fa 02             sar    rdx, 0x2
   864fa:       e8 21 fd ff ff          call   0x86220
   864ff:       83 f8 ff                cmp    eax, 0xffffffff
   86502:       0f 94 c0                sete   al
   86505:       84 c0                   test   al, al
   86507:       74 06                   je     0x8650f
   86509:       41 bc ff ff ff ff       mov    r12d, 0xffffffff
   8650f:       48 83 c4 08             add    rsp, 0x8
   86513:       44 89 e0                mov    eax, r12d
   86516:       5d                      pop    rbp
   86517:       41 5c                   pop    r12
   86519:       c3                      ret    
   8651a:       66 0f 1f 44 00 00       nop    WORD PTR [rax+rax*1+0x0]
   86520:       80 e5 02                and    ch, 0x2
   86523:       74 ea                   je     0x8650f
   86525:       41 83 fc 0a             cmp    r12d, 0xa
   86529:       74 b3                   je     0x864de
   8652b:       48 83 c4 08             add    rsp, 0x8
   8652f:       44 89 e0                mov    eax, r12d
   86532:       5d                      pop    rbp
   86533:       41 5c                   pop    r12
   86535:       c3                      ret    
   86536:       66 2e 0f 1f 84 00 00 00 00 00   cs nop WORD PTR [rax+rax*1+0x0]
   86540:       83 c8 20                or     eax, 0x20
   86543:       41 bc ff ff ff ff       mov    r12d, 0xffffffff
   86549:       89 07                   mov    DWORD PTR [rdi], eax
   8654b:       48 8b 05 be 28 19 00    mov    rax, QWORD PTR [rip+0x1928be]        # 0x218e10
   86552:       64 c7 00 09 00 00 00    mov    DWORD PTR fs:[rax], 0x9
   86559:       48 83 c4 08             add    rsp, 0x8
   8655d:       44 89 e0                mov    eax, r12d
   86560:       5d                      pop    rbp
   86561:       41 5c                   pop    r12
   86563:       c3                      ret    
   86564:       0f 1f 40 00             nop    DWORD PTR [rax+0x0]
   86568:       66 0f d6 4a 28          movq   QWORD PTR [rdx+0x28], xmm1
   8656d:       41 83 fc ff             cmp    r12d, 0xffffffff
   86571:       0f 85 3f ff ff ff       jne    0x864b6
   86577:       8b bd c0 00 00 00       mov    edi, DWORD PTR [rbp+0xc0]
   8657d:       85 ff                   test   edi, edi
   8657f:       0f 8e 3b 01 00 00       jle    0x866c0
   86585:       48 8b 85 a0 00 00 00    mov    rax, QWORD PTR [rbp+0xa0]
   8658c:       48 89 ef                mov    rdi, rbp
   8658f:       48 8b 70 18             mov    rsi, QWORD PTR [rax+0x18]
   86593:       48 8b 50 20             mov    rdx, QWORD PTR [rax+0x20]
   86597:       48 83 c4 08             add    rsp, 0x8
   8659b:       5d                      pop    rbp
   8659c:       41 5c                   pop    r12
   8659e:       48 29 f2                sub    rdx, rsi
   865a1:       48 c1 fa 02             sar    rdx, 0x2
   865a5:       e9 76 fc ff ff          jmp    0x86220
   865aa:       66 0f 1f 44 00 00       nop    WORD PTR [rax+rax*1+0x0]
   865b0:       8b b5 c0 00 00 00       mov    esi, DWORD PTR [rbp+0xc0]
   865b6:       85 f6                   test   esi, esi
   865b8:       0f 8e 92 00 00 00       jle    0x86650
   865be:       48 8b 70 18             mov    rsi, QWORD PTR [rax+0x18]
   865c2:       48 89 ca                mov    rdx, rcx
   865c5:       48 89 ef                mov    rdi, rbp
   865c8:       48 29 f2                sub    rdx, rsi
   865cb:       48 c1 fa 02             sar    rdx, 0x2
   865cf:       e8 4c fc ff ff          call   0x86220
   865d4:       83 f8 ff                cmp    eax, 0xffffffff
   865d7:       0f 94 c0                sete   al
   865da:       84 c0                   test   al, al
   865dc:       0f 85 27 ff ff ff       jne    0x86509
   865e2:       48 8b 85 a0 00 00 00    mov    rax, QWORD PTR [rbp+0xa0]
   865e9:       48 8b 48 20             mov    rcx, QWORD PTR [rax+0x20]
   865ed:       e9 d9 fe ff ff          jmp    0x864cb
   865f2:       66 0f 1f 44 00 00       nop    WORD PTR [rax+rax*1+0x0]
   865f8:       48 8b 75 20             mov    rsi, QWORD PTR [rbp+0x20]
   865fc:       48 8b 55 28             mov    rdx, QWORD PTR [rbp+0x28]
   86600:       48 89 ef                mov    rdi, rbp
   86603:       48 29 f2                sub    rdx, rsi
   86606:       e8 a5 63 00 00          call   0x8c9b0
   8660b:       83 f8 ff                cmp    eax, 0xffffffff
   8660e:       0f 94 c0                sete   al
   86611:       e9 ef fe ff ff          jmp    0x86505
   86616:       66 2e 0f 1f 84 00 00 00 00 00   cs nop WORD PTR [rax+rax*1+0x0]
   86620:       f3 0f 7e 4a 30          movq   xmm1, QWORD PTR [rdx+0x30]
   86625:       f3 0f 7e 45 38          movq   xmm0, QWORD PTR [rbp+0x38]
   8662a:       66 0f 6f d1             movdqa xmm2, xmm1
   8662e:       66 0f 6c c0             punpcklqdq xmm0, xmm0
   86632:       66 0f 6c d2             punpcklqdq xmm2, xmm2
   86636:       0f 11 45 08             movups XMMWORD PTR [rbp+0x8], xmm0
   8663a:       0f 11 12                movups XMMWORD PTR [rdx], xmm2
   8663d:       66 0f 6f d1             movdqa xmm2, xmm1
   86641:       e9 21 fe ff ff          jmp    0x86467
   86646:       66 2e 0f 1f 84 00 00 00 00 00   cs nop WORD PTR [rax+rax*1+0x0]
   86650:       48 8b 75 20             mov    rsi, QWORD PTR [rbp+0x20]
   86654:       48 8b 55 28             mov    rdx, QWORD PTR [rbp+0x28]
   86658:       48 89 ef                mov    rdi, rbp
   8665b:       48 29 f2                sub    rdx, rsi
   8665e:       e8 4d 63 00 00          call   0x8c9b0
   86663:       83 f8 ff                cmp    eax, 0xffffffff
   86666:       0f 94 c0                sete   al
   86669:       e9 6c ff ff ff          jmp    0x865da
   8666e:       66 90                   xchg   ax, ax
   86670:       e8 7b d5 ff ff          call   0x83bf0
   86675:       48 89 ef                mov    rdi, rbp
   86678:       e8 43 dd ff ff          call   0x843c0
   8667d:       48 8b 95 a0 00 00 00    mov    rdx, QWORD PTR [rbp+0xa0]
   86684:       48 83 7d 20 00          cmp    QWORD PTR [rbp+0x20], 0x0
   86689:       f3 0f 7e 4a 30          movq   xmm1, QWORD PTR [rdx+0x30]
   8668e:       66 0f 6f c1             movdqa xmm0, xmm1
   86692:       66 0f d6 4a 10          movq   QWORD PTR [rdx+0x10], xmm1
   86697:       66 0f 6c c0             punpcklqdq xmm0, xmm0
   8669b:       0f 11 02                movups XMMWORD PTR [rdx], xmm0
   8669e:       74 40                   je     0x866e0
   866a0:       f3 0f 6f 45 08          movdqu xmm0, XMMWORD PTR [rbp+0x8]
   866a5:       48 8b 4a 38             mov    rcx, QWORD PTR [rdx+0x38]
   866a9:       66 0f 6f d1             movdqa xmm2, xmm1
   866ad:       8b 45 00                mov    eax, DWORD PTR [rbp+0x0]
   866b0:       66 0f c6 c0 01          shufpd xmm0, xmm0, 0x1
   866b5:       e9 ad fd ff ff          jmp    0x86467
   866ba:       66 0f 1f 44 00 00       nop    WORD PTR [rax+rax*1+0x0]
   866c0:       48 8b 75 20             mov    rsi, QWORD PTR [rbp+0x20]
   866c4:       48 8b 55 28             mov    rdx, QWORD PTR [rbp+0x28]
   866c8:       48 83 c4 08             add    rsp, 0x8
   866cc:       48 89 ef                mov    rdi, rbp
   866cf:       5d                      pop    rbp
   866d0:       41 5c                   pop    r12
   866d2:       48 29 f2                sub    rdx, rsi
   866d5:       e9 d6 62 00 00          jmp    0x8c9b0
   866da:       66 0f 1f 44 00 00       nop    WORD PTR [rax+rax*1+0x0]
   866e0:       48 89 ef                mov    rdi, rbp
   866e3:       e8 28 76 00 00          call   0x8dd10
   866e8:       f3 0f 6f 45 38          movdqu xmm0, XMMWORD PTR [rbp+0x38]
   866ed:       48 8b 95 a0 00 00 00    mov    rdx, QWORD PTR [rbp+0xa0]
   866f4:       8b 45 00                mov    eax, DWORD PTR [rbp+0x0]
   866f7:       66 0f 6c c0             punpcklqdq xmm0, xmm0
   866fb:       f3 0f 7e 0a             movq   xmm1, QWORD PTR [rdx]
   866ff:       48 8b 4a 38             mov    rcx, QWORD PTR [rdx+0x38]
   86703:       f3 0f 7e 52 08          movq   xmm2, QWORD PTR [rdx+0x8]
   86708:       0f 11 45 08             movups XMMWORD PTR [rbp+0x8], xmm0
   8670c:       e9 56 fd ff ff          jmp    0x86467
================
_IO_file_seekoff_maybe_mmap 0x8a5a0
   8a5a0:       f3 0f 1e fa             endbr64 
   8a5a4:       55                      push   rbp
   8a5a5:       48 8d 0d 54 b4 18 00    lea    rcx, [rip+0x18b454]        # 0x215a00
   8a5ac:       48 8d 05 b5 c1 18 00    lea    rax, [rip+0x18c1b5]        # 0x216768
   8a5b3:       53                      push   rbx
   8a5b4:       48 89 fb                mov    rbx, rdi
   8a5b7:       48 29 c8                sub    rax, rcx
   8a5ba:       48 83 ec 18             sub    rsp, 0x18
   8a5be:       48 8b af d8 00 00 00    mov    rbp, QWORD PTR [rdi+0xd8]
   8a5c5:       48 89 ef                mov    rdi, rbp
   8a5c8:       48 29 cf                sub    rdi, rcx
   8a5cb:       48 39 f8                cmp    rax, rdi
   8a5ce:       76 20                   jbe    0x8a5f0
   8a5d0:       48 89 df                mov    rdi, rbx
   8a5d3:       ff 95 80 00 00 00       call   QWORD PTR [rbp+0x80]
   8a5d9:       48 85 c0                test   rax, rax
   8a5dc:       78 29                   js     0x8a607
   8a5de:       48 89 83 90 00 00 00    mov    QWORD PTR [rbx+0x90], rax
   8a5e5:       48 83 c4 18             add    rsp, 0x18
   8a5e9:       5b                      pop    rbx
   8a5ea:       5d                      pop    rbp
   8a5eb:       c3                      ret    
   8a5ec:       0f 1f 40 00             nop    DWORD PTR [rax+0x0]
   8a5f0:       89 54 24 0c             mov    DWORD PTR [rsp+0xc], edx
   8a5f4:       48 89 34 24             mov    QWORD PTR [rsp], rsi
   8a5f8:       e8 73 f9 ff ff          call   0x89f70
   8a5fd:       8b 54 24 0c             mov    edx, DWORD PTR [rsp+0xc]
   8a601:       48 8b 34 24             mov    rsi, QWORD PTR [rsp]
   8a605:       eb c9                   jmp    0x8a5d0
   8a607:       48 c7 c0 ff ff ff ff    mov    rax, 0xffffffffffffffff
   8a60e:       eb d5                   jmp    0x8a5e5
================
_IO_wdefault_doallocate 0x83ca0
   83ca0:       f3 0f 1e fa             endbr64 
   83ca4:       53                      push   rbx
   83ca5:       48 89 fb                mov    rbx, rdi
   83ca8:       bf 00 20 00 00          mov    edi, 0x2000
   83cad:       48 83 ec 10             sub    rsp, 0x10
   83cb1:       e8 ca 46 fa ff          call   0x28380
   83cb6:       48 85 c0                test   rax, rax
   83cb9:       74 65                   je     0x83d20
   83cbb:       48 8d 90 00 20 00 00    lea    rdx, [rax+0x2000]
   83cc2:       66 48 0f 6e c0          movq   xmm0, rax
   83cc7:       8b 43 74                mov    eax, DWORD PTR [rbx+0x74]
   83cca:       66 48 0f 6e ca          movq   xmm1, rdx
   83ccf:       48 8b 93 a0 00 00 00    mov    rdx, QWORD PTR [rbx+0xa0]
   83cd6:       66 0f 6c c1             punpcklqdq xmm0, xmm1
   83cda:       48 8b 7a 30             mov    rdi, QWORD PTR [rdx+0x30]
   83cde:       48 85 ff                test   rdi, rdi
   83ce1:       74 04                   je     0x83ce7
   83ce3:       a8 08                   test   al, 0x8
   83ce5:       74 19                   je     0x83d00
   83ce7:       83 e0 f7                and    eax, 0xfffffff7
   83cea:       0f 11 42 30             movups XMMWORD PTR [rdx+0x30], xmm0
   83cee:       89 43 74                mov    DWORD PTR [rbx+0x74], eax
   83cf1:       48 83 c4 10             add    rsp, 0x10
   83cf5:       b8 01 00 00 00          mov    eax, 0x1
   83cfa:       5b                      pop    rbx
   83cfb:       c3                      ret    
   83cfc:       0f 1f 40 00             nop    DWORD PTR [rax+0x0]
   83d00:       0f 29 04 24             movaps XMMWORD PTR [rsp], xmm0
   83d04:       e8 67 46 fa ff          call   0x28370
   83d09:       48 8b 93 a0 00 00 00    mov    rdx, QWORD PTR [rbx+0xa0]
   83d10:       8b 43 74                mov    eax, DWORD PTR [rbx+0x74]
   83d13:       66 0f 6f 04 24          movdqa xmm0, XMMWORD PTR [rsp]
   83d18:       eb cd                   jmp    0x83ce7
   83d1a:       66 0f 1f 44 00 00       nop    WORD PTR [rax+rax*1+0x0]
   83d20:       48 83 c4 10             add    rsp, 0x10
   83d24:       b8 ff ff ff ff          mov    eax, 0xffffffff
   83d29:       5b                      pop    rbx
   83d2a:       c3                      ret
================
_IO_wdefault_doallocate 0x83ca0
   83ca0:       f3 0f 1e fa             endbr64 
   83ca4:       53                      push   rbx
   83ca5:       48 89 fb                mov    rbx, rdi
   83ca8:       bf 00 20 00 00          mov    edi, 0x2000
   83cad:       48 83 ec 10             sub    rsp, 0x10
   83cb1:       e8 ca 46 fa ff          call   0x28380
   83cb6:       48 85 c0                test   rax, rax
   83cb9:       74 65                   je     0x83d20
   83cbb:       48 8d 90 00 20 00 00    lea    rdx, [rax+0x2000]
   83cc2:       66 48 0f 6e c0          movq   xmm0, rax
   83cc7:       8b 43 74                mov    eax, DWORD PTR [rbx+0x74]
   83cca:       66 48 0f 6e ca          movq   xmm1, rdx
   83ccf:       48 8b 93 a0 00 00 00    mov    rdx, QWORD PTR [rbx+0xa0]
   83cd6:       66 0f 6c c1             punpcklqdq xmm0, xmm1
   83cda:       48 8b 7a 30             mov    rdi, QWORD PTR [rdx+0x30]
   83cde:       48 85 ff                test   rdi, rdi
   83ce1:       74 04                   je     0x83ce7
   83ce3:       a8 08                   test   al, 0x8
   83ce5:       74 19                   je     0x83d00
   83ce7:       83 e0 f7                and    eax, 0xfffffff7
   83cea:       0f 11 42 30             movups XMMWORD PTR [rdx+0x30], xmm0
   83cee:       89 43 74                mov    DWORD PTR [rbx+0x74], eax
   83cf1:       48 83 c4 10             add    rsp, 0x10
   83cf5:       b8 01 00 00 00          mov    eax, 0x1
   83cfa:       5b                      pop    rbx
   83cfb:       c3                      ret    
   83cfc:       0f 1f 40 00             nop    DWORD PTR [rax+0x0]
   83d00:       0f 29 04 24             movaps XMMWORD PTR [rsp], xmm0
   83d04:       e8 67 46 fa ff          call   0x28370
   83d09:       48 8b 93 a0 00 00 00    mov    rdx, QWORD PTR [rbx+0xa0]
   83d10:       8b 43 74                mov    eax, DWORD PTR [rbx+0x74]
   83d13:       66 0f 6f 04 24          movdqa xmm0, XMMWORD PTR [rsp]
   83d18:       eb cd                   jmp    0x83ce7
   83d1a:       66 0f 1f 44 00 00       nop    WORD PTR [rax+rax*1+0x0]
   83d20:       48 83 c4 10             add    rsp, 0x10
   83d24:       b8 ff ff ff ff          mov    eax, 0xffffffff
   83d29:       5b                      pop    rbx
   83d2a:       c3                      ret
================
_IO_str_overflow 0x8f610
   8f610:       f3 0f 1e fa             endbr64 
   8f614:       41 57                   push   r15
   8f616:       41 56                   push   r14
   8f618:       41 55                   push   r13
   8f61a:       41 54                   push   r12
   8f61c:       55                      push   rbp
   8f61d:       89 f5                   mov    ebp, esi
   8f61f:       53                      push   rbx
   8f620:       48 83 ec 28             sub    rsp, 0x28
   8f624:       8b 07                   mov    eax, DWORD PTR [rdi]
   8f626:       a8 08                   test   al, 0x8
   8f628:       0f 85 72 01 00 00       jne    0x8f7a0
   8f62e:       89 c2                   mov    edx, eax
   8f630:       48 89 fb                mov    rbx, rdi
   8f633:       81 e2 00 0c 00 00       and    edx, 0xc00
   8f639:       81 fa 00 04 00 00       cmp    edx, 0x400
   8f63f:       0f 84 3b 01 00 00       je     0x8f780
   8f645:       48 8b 57 28             mov    rdx, QWORD PTR [rdi+0x28]
   8f649:       f3 0f 6f 43 30          movdqu xmm0, XMMWORD PTR [rbx+0x30]
   8f64e:       4c 8b 6b 40             mov    r13, QWORD PTR [rbx+0x40]
   8f652:       31 c9                   xor    ecx, ecx
   8f654:       48 89 d6                mov    rsi, rdx
   8f657:       0f 12 d8                movhlps xmm3, xmm0
   8f65a:       66 0f 6f c8             movdqa xmm1, xmm0
   8f65e:       66 49 0f 7e dc          movq   r12, xmm3
   8f663:       66 0f 6d c8             punpckhqdq xmm1, xmm0
   8f667:       4d 29 e5                sub    r13, r12
   8f66a:       83 fd ff                cmp    ebp, 0xffffffff
   8f66d:       0f 29 0c 24             movaps XMMWORD PTR [rsp], xmm1
   8f671:       0f 94 c1                sete   cl
   8f674:       48 2b 73 20             sub    rsi, QWORD PTR [rbx+0x20]
   8f678:       4c 01 e9                add    rcx, r13
   8f67b:       48 39 f1                cmp    rcx, rsi
   8f67e:       0f 87 c6 00 00 00       ja     0x8f74a
   8f684:       a8 01                   test   al, 0x1
   8f686:       0f 85 34 01 00 00       jne    0x8f7c0
   8f68c:       4f 8d 7c 2d 64          lea    r15, [r13+r13*1+0x64]
   8f691:       4d 39 fd                cmp    r13, r15
   8f694:       0f 87 26 01 00 00       ja     0x8f7c0
   8f69a:       4c 89 ff                mov    rdi, r15
   8f69d:       e8 de 8c f9 ff          call   0x28380
   8f6a2:       66 48 0f 6e d0          movq   xmm2, rax
   8f6a7:       49 89 c6                mov    r14, rax
   8f6aa:       66 0f 6c d2             punpcklqdq xmm2, xmm2
   8f6ae:       0f 29 54 24 10          movaps XMMWORD PTR [rsp+0x10], xmm2
   8f6b3:       48 85 c0                test   rax, rax
   8f6b6:       0f 84 04 01 00 00       je     0x8f7c0
   8f6bc:       4d 85 e4                test   r12, r12
   8f6bf:       74 1e                   je     0x8f6df
   8f6c1:       4c 89 ea                mov    rdx, r13
   8f6c4:       4c 89 e6                mov    rsi, r12
   8f6c7:       48 89 c7                mov    rdi, rax
   8f6ca:       e8 51 8f f9 ff          call   0x28620
   8f6cf:       4c 89 e7                mov    rdi, r12
   8f6d2:       e8 99 8c f9 ff          call   0x28370
   8f6d7:       48 c7 43 38 00 00 00 00         mov    QWORD PTR [rbx+0x38], 0x0
   8f6df:       4c 89 fa                mov    rdx, r15
   8f6e2:       4b 8d 3c 2e             lea    rdi, [r14+r13*1]
   8f6e6:       31 f6                   xor    esi, esi
   8f6e8:       4c 29 ea                sub    rdx, r13
   8f6eb:       e8 80 8f f9 ff          call   0x28670
   8f6f0:       4b 8d 14 3e             lea    rdx, [r14+r15*1]
   8f6f4:       4c 89 f6                mov    rsi, r14
   8f6f7:       48 89 df                mov    rdi, rbx
   8f6fa:       b9 01 00 00 00          mov    ecx, 0x1
   8f6ff:       e8 9c e5 ff ff          call   0x8dca0
   8f704:       48 8b 43 18             mov    rax, QWORD PTR [rbx+0x18]
   8f708:       48 8b 53 28             mov    rdx, QWORD PTR [rbx+0x28]
   8f70c:       f3 0f 6f 43 08          movdqu xmm0, XMMWORD PTR [rbx+0x8]
   8f711:       66 0f fb 04 24          psubq  xmm0, XMMWORD PTR [rsp]
   8f716:       4c 01 f0                add    rax, r14
   8f719:       66 0f d4 44 24 10       paddq  xmm0, XMMWORD PTR [rsp+0x10]
   8f71f:       4c 01 f2                add    rdx, r14
   8f722:       4c 29 e0                sub    rax, r12
   8f725:       4c 29 e2                sub    rdx, r12
   8f728:       48 89 43 18             mov    QWORD PTR [rbx+0x18], rax
   8f72c:       48 8b 43 40             mov    rax, QWORD PTR [rbx+0x40]
   8f730:       66 48 0f 6e f2          movq   xmm6, rdx
   8f735:       0f 11 43 08             movups XMMWORD PTR [rbx+0x8], xmm0
   8f739:       66 49 0f 6e c6          movq   xmm0, r14
   8f73e:       48 89 43 30             mov    QWORD PTR [rbx+0x30], rax
   8f742:       66 0f 6c c6             punpcklqdq xmm0, xmm6
   8f746:       0f 11 43 20             movups XMMWORD PTR [rbx+0x20], xmm0
   8f74a:       83 fd ff                cmp    ebp, 0xffffffff
   8f74d:       74 0f                   je     0x8f75e
   8f74f:       48 8d 42 01             lea    rax, [rdx+0x1]
   8f753:       48 89 43 28             mov    QWORD PTR [rbx+0x28], rax
   8f757:       40 88 2a                mov    BYTE PTR [rdx], bpl
   8f75a:       48 8b 53 28             mov    rdx, QWORD PTR [rbx+0x28]
   8f75e:       89 e8                   mov    eax, ebp
   8f760:       48 39 53 10             cmp    QWORD PTR [rbx+0x10], rdx
   8f764:       73 04                   jae    0x8f76a
   8f766:       48 89 53 10             mov    QWORD PTR [rbx+0x10], rdx
   8f76a:       48 83 c4 28             add    rsp, 0x28
   8f76e:       5b                      pop    rbx
   8f76f:       5d                      pop    rbp
   8f770:       41 5c                   pop    r12
   8f772:       41 5d                   pop    r13
   8f774:       41 5e                   pop    r14
   8f776:       41 5f                   pop    r15
   8f778:       c3                      ret    
   8f779:       0f 1f 80 00 00 00 00    nop    DWORD PTR [rax+0x0]
   8f780:       48 8b 57 08             mov    rdx, QWORD PTR [rdi+0x8]
   8f784:       48 8b 4f 10             mov    rcx, QWORD PTR [rdi+0x10]
   8f788:       80 cc 08                or     ah, 0x8
   8f78b:       89 07                   mov    DWORD PTR [rdi], eax
   8f78d:       48 89 57 28             mov    QWORD PTR [rdi+0x28], rdx
   8f791:       48 89 4f 08             mov    QWORD PTR [rdi+0x8], rcx
   8f795:       e9 af fe ff ff          jmp    0x8f649
   8f79a:       66 0f 1f 44 00 00       nop    WORD PTR [rax+rax*1+0x0]
   8f7a0:       31 c0                   xor    eax, eax
   8f7a2:       83 fe ff                cmp    esi, 0xffffffff
   8f7a5:       0f 95 c0                setne  al
   8f7a8:       48 83 c4 28             add    rsp, 0x28
   8f7ac:       5b                      pop    rbx
   8f7ad:       f7 d8                   neg    eax
   8f7af:       5d                      pop    rbp
   8f7b0:       41 5c                   pop    r12
   8f7b2:       41 5d                   pop    r13
   8f7b4:       41 5e                   pop    r14
   8f7b6:       41 5f                   pop    r15
   8f7b8:       c3                      ret    
   8f7b9:       0f 1f 80 00 00 00 00    nop    DWORD PTR [rax+0x0]
   8f7c0:       b8 ff ff ff ff          mov    eax, 0xffffffff
   8f7c5:       eb a3                   jmp    0x8f76a
================
_IO_str_overflow 0x8f610
   8f610:       f3 0f 1e fa             endbr64 
   8f614:       41 57                   push   r15
   8f616:       41 56                   push   r14
   8f618:       41 55                   push   r13
   8f61a:       41 54                   push   r12
   8f61c:       55                      push   rbp
   8f61d:       89 f5                   mov    ebp, esi
   8f61f:       53                      push   rbx
   8f620:       48 83 ec 28             sub    rsp, 0x28
   8f624:       8b 07                   mov    eax, DWORD PTR [rdi]
   8f626:       a8 08                   test   al, 0x8
   8f628:       0f 85 72 01 00 00       jne    0x8f7a0
   8f62e:       89 c2                   mov    edx, eax
   8f630:       48 89 fb                mov    rbx, rdi
   8f633:       81 e2 00 0c 00 00       and    edx, 0xc00
   8f639:       81 fa 00 04 00 00       cmp    edx, 0x400
   8f63f:       0f 84 3b 01 00 00       je     0x8f780
   8f645:       48 8b 57 28             mov    rdx, QWORD PTR [rdi+0x28]
   8f649:       f3 0f 6f 43 30          movdqu xmm0, XMMWORD PTR [rbx+0x30]
   8f64e:       4c 8b 6b 40             mov    r13, QWORD PTR [rbx+0x40]
   8f652:       31 c9                   xor    ecx, ecx
   8f654:       48 89 d6                mov    rsi, rdx
   8f657:       0f 12 d8                movhlps xmm3, xmm0
   8f65a:       66 0f 6f c8             movdqa xmm1, xmm0
   8f65e:       66 49 0f 7e dc          movq   r12, xmm3
   8f663:       66 0f 6d c8             punpckhqdq xmm1, xmm0
   8f667:       4d 29 e5                sub    r13, r12
   8f66a:       83 fd ff                cmp    ebp, 0xffffffff
   8f66d:       0f 29 0c 24             movaps XMMWORD PTR [rsp], xmm1
   8f671:       0f 94 c1                sete   cl
   8f674:       48 2b 73 20             sub    rsi, QWORD PTR [rbx+0x20]
   8f678:       4c 01 e9                add    rcx, r13
   8f67b:       48 39 f1                cmp    rcx, rsi
   8f67e:       0f 87 c6 00 00 00       ja     0x8f74a
   8f684:       a8 01                   test   al, 0x1
   8f686:       0f 85 34 01 00 00       jne    0x8f7c0
   8f68c:       4f 8d 7c 2d 64          lea    r15, [r13+r13*1+0x64]
   8f691:       4d 39 fd                cmp    r13, r15
   8f694:       0f 87 26 01 00 00       ja     0x8f7c0
   8f69a:       4c 89 ff                mov    rdi, r15
   8f69d:       e8 de 8c f9 ff          call   0x28380
   8f6a2:       66 48 0f 6e d0          movq   xmm2, rax
   8f6a7:       49 89 c6                mov    r14, rax
   8f6aa:       66 0f 6c d2             punpcklqdq xmm2, xmm2
   8f6ae:       0f 29 54 24 10          movaps XMMWORD PTR [rsp+0x10], xmm2
   8f6b3:       48 85 c0                test   rax, rax
   8f6b6:       0f 84 04 01 00 00       je     0x8f7c0
   8f6bc:       4d 85 e4                test   r12, r12
   8f6bf:       74 1e                   je     0x8f6df
   8f6c1:       4c 89 ea                mov    rdx, r13
   8f6c4:       4c 89 e6                mov    rsi, r12
   8f6c7:       48 89 c7                mov    rdi, rax
   8f6ca:       e8 51 8f f9 ff          call   0x28620
   8f6cf:       4c 89 e7                mov    rdi, r12
   8f6d2:       e8 99 8c f9 ff          call   0x28370
   8f6d7:       48 c7 43 38 00 00 00 00         mov    QWORD PTR [rbx+0x38], 0x0
   8f6df:       4c 89 fa                mov    rdx, r15
   8f6e2:       4b 8d 3c 2e             lea    rdi, [r14+r13*1]
   8f6e6:       31 f6                   xor    esi, esi
   8f6e8:       4c 29 ea                sub    rdx, r13
   8f6eb:       e8 80 8f f9 ff          call   0x28670
   8f6f0:       4b 8d 14 3e             lea    rdx, [r14+r15*1]
   8f6f4:       4c 89 f6                mov    rsi, r14
   8f6f7:       48 89 df                mov    rdi, rbx
   8f6fa:       b9 01 00 00 00          mov    ecx, 0x1
   8f6ff:       e8 9c e5 ff ff          call   0x8dca0
   8f704:       48 8b 43 18             mov    rax, QWORD PTR [rbx+0x18]
   8f708:       48 8b 53 28             mov    rdx, QWORD PTR [rbx+0x28]
   8f70c:       f3 0f 6f 43 08          movdqu xmm0, XMMWORD PTR [rbx+0x8]
   8f711:       66 0f fb 04 24          psubq  xmm0, XMMWORD PTR [rsp]
   8f716:       4c 01 f0                add    rax, r14
   8f719:       66 0f d4 44 24 10       paddq  xmm0, XMMWORD PTR [rsp+0x10]
   8f71f:       4c 01 f2                add    rdx, r14
   8f722:       4c 29 e0                sub    rax, r12
   8f725:       4c 29 e2                sub    rdx, r12
   8f728:       48 89 43 18             mov    QWORD PTR [rbx+0x18], rax
   8f72c:       48 8b 43 40             mov    rax, QWORD PTR [rbx+0x40]
   8f730:       66 48 0f 6e f2          movq   xmm6, rdx
   8f735:       0f 11 43 08             movups XMMWORD PTR [rbx+0x8], xmm0
   8f739:       66 49 0f 6e c6          movq   xmm0, r14
   8f73e:       48 89 43 30             mov    QWORD PTR [rbx+0x30], rax
   8f742:       66 0f 6c c6             punpcklqdq xmm0, xmm6
   8f746:       0f 11 43 20             movups XMMWORD PTR [rbx+0x20], xmm0
   8f74a:       83 fd ff                cmp    ebp, 0xffffffff
   8f74d:       74 0f                   je     0x8f75e
   8f74f:       48 8d 42 01             lea    rax, [rdx+0x1]
   8f753:       48 89 43 28             mov    QWORD PTR [rbx+0x28], rax
   8f757:       40 88 2a                mov    BYTE PTR [rdx], bpl
   8f75a:       48 8b 53 28             mov    rdx, QWORD PTR [rbx+0x28]
   8f75e:       89 e8                   mov    eax, ebp
   8f760:       48 39 53 10             cmp    QWORD PTR [rbx+0x10], rdx
   8f764:       73 04                   jae    0x8f76a
   8f766:       48 89 53 10             mov    QWORD PTR [rbx+0x10], rdx
   8f76a:       48 83 c4 28             add    rsp, 0x28
   8f76e:       5b                      pop    rbx
   8f76f:       5d                      pop    rbp
   8f770:       41 5c                   pop    r12
   8f772:       41 5d                   pop    r13
   8f774:       41 5e                   pop    r14
   8f776:       41 5f                   pop    r15
   8f778:       c3                      ret    
   8f779:       0f 1f 80 00 00 00 00    nop    DWORD PTR [rax+0x0]
   8f780:       48 8b 57 08             mov    rdx, QWORD PTR [rdi+0x8]
   8f784:       48 8b 4f 10             mov    rcx, QWORD PTR [rdi+0x10]
   8f788:       80 cc 08                or     ah, 0x8
   8f78b:       89 07                   mov    DWORD PTR [rdi], eax
   8f78d:       48 89 57 28             mov    QWORD PTR [rdi+0x28], rdx
   8f791:       48 89 4f 08             mov    QWORD PTR [rdi+0x8], rcx
   8f795:       e9 af fe ff ff          jmp    0x8f649
   8f79a:       66 0f 1f 44 00 00       nop    WORD PTR [rax+rax*1+0x0]
   8f7a0:       31 c0                   xor    eax, eax
   8f7a2:       83 fe ff                cmp    esi, 0xffffffff
   8f7a5:       0f 95 c0                setne  al
   8f7a8:       48 83 c4 28             add    rsp, 0x28
   8f7ac:       5b                      pop    rbx
   8f7ad:       f7 d8                   neg    eax
   8f7af:       5d                      pop    rbp
   8f7b0:       41 5c                   pop    r12
   8f7b2:       41 5d                   pop    r13
   8f7b4:       41 5e                   pop    r14
   8f7b6:       41 5f                   pop    r15
   8f7b8:       c3                      ret    
   8f7b9:       0f 1f 80 00 00 00 00    nop    DWORD PTR [rax+0x0]
   8f7c0:       b8 ff ff ff ff          mov    eax, 0xffffffff
   8f7c5:       eb a3                   jmp    0x8f76a
================
_IO_str_pbackfail 0x8f9d0
   8f9d0:       f3 0f 1e fa             endbr64 
   8f9d4:       f6 07 08                test   BYTE PTR [rdi], 0x8
   8f9d7:       74 05                   je     0x8f9de
   8f9d9:       83 fe ff                cmp    esi, 0xffffffff
   8f9dc:       75 0a                   jne    0x8f9e8
   8f9de:       e9 1d f9 ff ff          jmp    0x8f300
   8f9e3:       0f 1f 44 00 00          nop    DWORD PTR [rax+rax*1+0x0]
   8f9e8:       b8 ff ff ff ff          mov    eax, 0xffffffff
   8f9ed:       c3                      ret
================
_IO_str_pbackfail 0x8f9d0
   8f9d0:       f3 0f 1e fa             endbr64 
   8f9d4:       f6 07 08                test   BYTE PTR [rdi], 0x8
   8f9d7:       74 05                   je     0x8f9de
   8f9d9:       83 fe ff                cmp    esi, 0xffffffff
   8f9dc:       75 0a                   jne    0x8f9e8
   8f9de:       e9 1d f9 ff ff          jmp    0x8f300
   8f9e3:       0f 1f 44 00 00          nop    DWORD PTR [rax+rax*1+0x0]
   8f9e8:       b8 ff ff ff ff          mov    eax, 0xffffffff
   8f9ed:       c3                      ret
================
_IO_wstr_pbackfail 0x84c00
   84c00:       f3 0f 1e fa             endbr64 
   84c04:       f6 07 08                test   BYTE PTR [rdi], 0x8
   84c07:       74 05                   je     0x84c0e
   84c09:       83 fe ff                cmp    esi, 0xffffffff
   84c0c:       75 0a                   jne    0x84c18
   84c0e:       e9 6d ea ff ff          jmp    0x83680
   84c13:       0f 1f 44 00 00          nop    DWORD PTR [rax+rax*1+0x0]
   84c18:       b8 ff ff ff ff          mov    eax, 0xffffffff
   84c1d:       c3                      ret
================
_IO_wstr_seekoff 0x84d70
   84d70:       f3 0f 1e fa             endbr64 
   84d74:       41 57                   push   r15
   84d76:       41 56                   push   r14
   84d78:       41 89 d6                mov    r14d, edx
   84d7b:       41 55                   push   r13
   84d7d:       49 89 f5                mov    r13, rsi
   84d80:       41 54                   push   r12
   84d82:       55                      push   rbp
   84d83:       89 cd                   mov    ebp, ecx
   84d85:       53                      push   rbx
   84d86:       48 89 fb                mov    rbx, rdi
   84d89:       48 83 ec 08             sub    rsp, 0x8
   84d8d:       48 8b 97 a0 00 00 00    mov    rdx, QWORD PTR [rdi+0xa0]
   84d94:       8b 07                   mov    eax, DWORD PTR [rdi]
   84d96:       f3 0f 6f 42 18          movdqu xmm0, XMMWORD PTR [rdx+0x18]
   84d9b:       48 8b 4a 18             mov    rcx, QWORD PTR [rdx+0x18]
   84d9f:       66 0f 6f c8             movdqa xmm1, xmm0
   84da3:       0f 12 d0                movhlps xmm2, xmm0
   84da6:       66 0f 6d c8             punpckhqdq xmm1, xmm0
   84daa:       66 49 0f 7e d4          movq   r12, xmm2
   84daf:       85 ed                   test   ebp, ebp
   84db1:       0f 85 49 01 00 00       jne    0x84f00
   84db7:       89 c5                   mov    ebp, eax
   84db9:       81 e5 00 04 00 00       and    ebp, 0x400
   84dbf:       0f 84 0b 01 00 00       je     0x84ed0
   84dc5:       f6 c4 08                test   ah, 0x8
   84dc8:       0f 85 72 01 00 00       jne    0x84f40
   84dce:       49 39 cc                cmp    r12, rcx
   84dd1:       0f 87 89 01 00 00       ja     0x84f60
   84dd7:       e8 64 ff ff ff          call   0x84d40
   84ddc:       bd 01 00 00 00          mov    ebp, 0x1
   84de1:       49 89 c7                mov    r15, rax
   84de4:       45 85 f6                test   r14d, r14d
   84de7:       0f 84 b3 01 00 00       je     0x84fa0
   84ded:       41 83 fe 01             cmp    r14d, 0x1
   84df1:       0f 84 79 01 00 00       je     0x84f70
   84df7:       48 b8 ff ff ff ff ff ff ff 1f   movabs rax, 0x1fffffffffffffff
   84e01:       4c 89 fa                mov    rdx, r15
   84e04:       4d 89 fc                mov    r12, r15
   84e07:       48 f7 da                neg    rdx
   84e0a:       4c 29 f8                sub    rax, r15
   84e0d:       49 39 c5                cmp    r13, rax
   84e10:       0f 8f 1a 02 00 00       jg     0x85030
   84e16:       49 39 d5                cmp    r13, rdx
   84e19:       0f 8c 11 02 00 00       jl     0x85030
   84e1f:       4d 01 ec                add    r12, r13
   84e22:       4d 39 fc                cmp    r12, r15
   84e25:       0f 8f c5 01 00 00       jg     0x84ff0
   84e2b:       48 8b 83 a0 00 00 00    mov    rax, QWORD PTR [rbx+0xa0]
   84e32:       83 e5 02                and    ebp, 0x2
   84e35:       48 8b 50 10             mov    rdx, QWORD PTR [rax+0x10]
   84e39:       4a 8d 0c a2             lea    rcx, [rdx+r12*4]
   84e3d:       4a 8d 14 ba             lea    rdx, [rdx+r15*4]
   84e41:       4d 89 ec                mov    r12, r13
   84e44:       48 89 08                mov    QWORD PTR [rax], rcx
   84e47:       48 89 50 08             mov    QWORD PTR [rax+0x8], rdx
   84e4b:       74 6a                   je     0x84eb7
   84e4d:       45 85 f6                test   r14d, r14d
   84e50:       0f 84 82 01 00 00       je     0x84fd8
   84e56:       41 83 fe 01             cmp    r14d, 0x1
   84e5a:       0f 85 58 01 00 00       jne    0x84fb8
   84e60:       48 8b 83 a0 00 00 00    mov    rax, QWORD PTR [rbx+0xa0]
   84e67:       4c 8b 60 20             mov    r12, QWORD PTR [rax+0x20]
   84e6b:       4c 2b 60 18             sub    r12, QWORD PTR [rax+0x18]
   84e6f:       48 b8 ff ff ff ff ff ff ff 1f   movabs rax, 0x1fffffffffffffff
   84e79:       49 c1 fc 02             sar    r12, 0x2
   84e7d:       4c 89 e2                mov    rdx, r12
   84e80:       4c 29 e0                sub    rax, r12
   84e83:       48 f7 da                neg    rdx
   84e86:       49 39 d5                cmp    r13, rdx
   84e89:       0f 8c a1 01 00 00       jl     0x85030
   84e8f:       49 39 c5                cmp    r13, rax
   84e92:       0f 8f 98 01 00 00       jg     0x85030
   84e98:       4d 01 ec                add    r12, r13
   84e9b:       4d 39 fc                cmp    r12, r15
   84e9e:       0f 8f 74 01 00 00       jg     0x85018
   84ea4:       48 8b 83 a0 00 00 00    mov    rax, QWORD PTR [rbx+0xa0]
   84eab:       48 8b 50 18             mov    rdx, QWORD PTR [rax+0x18]
   84eaf:       4a 8d 14 a2             lea    rdx, [rdx+r12*4]
   84eb3:       48 89 50 20             mov    QWORD PTR [rax+0x20], rdx
   84eb7:       48 83 c4 08             add    rsp, 0x8
   84ebb:       4c 89 e0                mov    rax, r12
   84ebe:       5b                      pop    rbx
   84ebf:       5d                      pop    rbp
   84ec0:       41 5c                   pop    r12
   84ec2:       41 5d                   pop    r13
   84ec4:       41 5e                   pop    r14
   84ec6:       41 5f                   pop    r15
   84ec8:       c3                      ret    
   84ec9:       0f 1f 80 00 00 00 00    nop    DWORD PTR [rax+0x0]
   84ed0:       49 39 cc                cmp    r12, rcx
   84ed3:       76 7b                   jbe    0x84f50
   84ed5:       0f 1f 00                nop    DWORD PTR [rax]
   84ed8:       f6 c4 01                test   ah, 0x1
   84edb:       75 53                   jne    0x84f30
   84edd:       48 8b 72 30             mov    rsi, QWORD PTR [rdx+0x30]
   84ee1:       48 89 72 10             mov    QWORD PTR [rdx+0x10], rsi
   84ee5:       80 e4 f7                and    ah, 0xf7
   84ee8:       0f 11 0a                movups XMMWORD PTR [rdx], xmm1
   84eeb:       89 03                   mov    DWORD PTR [rbx], eax
   84eed:       85 ed                   test   ebp, ebp
   84eef:       75 19                   jne    0x84f0a
   84ef1:       49 29 cc                sub    r12, rcx
   84ef4:       49 c1 fc 02             sar    r12, 0x2
   84ef8:       eb bd                   jmp    0x84eb7
   84efa:       66 0f 1f 44 00 00       nop    WORD PTR [rax+rax*1+0x0]
   84f00:       49 39 cc                cmp    r12, rcx
   84f03:       77 d3                   ja     0x84ed8
   84f05:       f6 c4 08                test   ah, 0x8
   84f08:       75 ce                   jne    0x84ed8
   84f0a:       48 89 df                mov    rdi, rbx
   84f0d:       49 c7 c4 ff ff ff ff    mov    r12, 0xffffffffffffffff
   84f14:       e8 27 fe ff ff          call   0x84d40
   84f19:       49 89 c7                mov    r15, rax
   84f1c:       40 f6 c5 01             test   bpl, 0x1
   84f20:       0f 85 be fe ff ff       jne    0x84de4
   84f26:       83 e5 02                and    ebp, 0x2
   84f29:       74 8c                   je     0x84eb7
   84f2b:       e9 1d ff ff ff          jmp    0x84e4d
   84f30:       48 8b 72 48             mov    rsi, QWORD PTR [rdx+0x48]
   84f34:       48 89 72 10             mov    QWORD PTR [rdx+0x10], rsi
   84f38:       eb ab                   jmp    0x84ee5
   84f3a:       66 0f 1f 44 00 00       nop    WORD PTR [rax+rax*1+0x0]
   84f40:       bd 02 00 00 00          mov    ebp, 0x2
   84f45:       f6 c4 01                test   ah, 0x1
   84f48:       75 e6                   jne    0x84f30
   84f4a:       eb 91                   jmp    0x84edd
   84f4c:       0f 1f 40 00             nop    DWORD PTR [rax+0x0]
   84f50:       f6 c4 08                test   ah, 0x8
   84f53:       75 83                   jne    0x84ed8
   84f55:       eb 9a                   jmp    0x84ef1
   84f57:       66 0f 1f 84 00 00 00 00 00      nop    WORD PTR [rax+rax*1+0x0]
   84f60:       bd 01 00 00 00          mov    ebp, 0x1
   84f65:       e9 6e ff ff ff          jmp    0x84ed8
   84f6a:       66 0f 1f 44 00 00       nop    WORD PTR [rax+rax*1+0x0]
   84f70:       48 8b 83 a0 00 00 00    mov    rax, QWORD PTR [rbx+0xa0]
   84f77:       4c 8b 20                mov    r12, QWORD PTR [rax]
   84f7a:       4c 2b 60 10             sub    r12, QWORD PTR [rax+0x10]
   84f7e:       48 b8 ff ff ff ff ff ff ff 1f   movabs rax, 0x1fffffffffffffff
   84f88:       49 c1 fc 02             sar    r12, 0x2
   84f8c:       4c 89 e2                mov    rdx, r12
   84f8f:       4c 29 e0                sub    rax, r12
   84f92:       48 f7 da                neg    rdx
   84f95:       e9 73 fe ff ff          jmp    0x84e0d
   84f9a:       66 0f 1f 44 00 00       nop    WORD PTR [rax+rax*1+0x0]
   84fa0:       48 b8 ff ff ff ff ff ff ff 1f   movabs rax, 0x1fffffffffffffff
   84faa:       31 d2                   xor    edx, edx
   84fac:       45 31 e4                xor    r12d, r12d
   84faf:       e9 59 fe ff ff          jmp    0x84e0d
   84fb4:       0f 1f 40 00             nop    DWORD PTR [rax+0x0]
   84fb8:       48 b8 ff ff ff ff ff ff ff 1f   movabs rax, 0x1fffffffffffffff
   84fc2:       4c 89 fa                mov    rdx, r15
   84fc5:       4d 89 fc                mov    r12, r15
   84fc8:       48 f7 da                neg    rdx
   84fcb:       4c 29 f8                sub    rax, r15
   84fce:       e9 b3 fe ff ff          jmp    0x84e86
   84fd3:       0f 1f 44 00 00          nop    DWORD PTR [rax+rax*1+0x0]
   84fd8:       48 b8 ff ff ff ff ff ff ff 1f   movabs rax, 0x1fffffffffffffff
   84fe2:       31 d2                   xor    edx, edx
   84fe4:       45 31 e4                xor    r12d, r12d
   84fe7:       e9 9a fe ff ff          jmp    0x84e86
   84fec:       0f 1f 40 00             nop    DWORD PTR [rax+0x0]
   84ff0:       ba 01 00 00 00          mov    edx, 0x1
   84ff5:       4c 89 e6                mov    rsi, r12
   84ff8:       48 89 df                mov    rdi, rbx
   84ffb:       e8 c0 f9 ff ff          call   0x849c0
   85000:       85 c0                   test   eax, eax
   85002:       0f 84 23 fe ff ff       je     0x84e2b
   85008:       49 c7 c4 ff ff ff ff    mov    r12, 0xffffffffffffffff
   8500f:       e9 a3 fe ff ff          jmp    0x84eb7
   85014:       0f 1f 40 00             nop    DWORD PTR [rax+0x0]
   85018:       31 d2                   xor    edx, edx
   8501a:       4c 89 e6                mov    rsi, r12
   8501d:       48 89 df                mov    rdi, rbx
   85020:       e8 9b f9 ff ff          call   0x849c0
   85025:       85 c0                   test   eax, eax
   85027:       0f 84 77 fe ff ff       je     0x84ea4
   8502d:       eb d9                   jmp    0x85008
   8502f:       90                      nop
   85030:       48 8b 05 d9 3d 19 00    mov    rax, QWORD PTR [rip+0x193dd9]        # 0x218e10
   85037:       49 c7 c4 ff ff ff ff    mov    r12, 0xffffffffffffffff
   8503e:       64 c7 00 16 00 00 00    mov    DWORD PTR fs:[rax], 0x16
   85045:       e9 6d fe ff ff          jmp    0x84eb7
================
_IO_file_setbuf 0x8a620
   8a620:       f3 0f 1e fa             endbr64 
   8a624:       53                      push   rbx
   8a625:       48 89 fb                mov    rbx, rdi
   8a628:       e8 03 3e 00 00          call   0x8e430
   8a62d:       48 85 c0                test   rax, rax
   8a630:       74 18                   je     0x8a64a
   8a632:       f3 0f 7e 43 38          movq   xmm0, QWORD PTR [rbx+0x38]
   8a637:       48 89 d8                mov    rax, rbx
   8a63a:       66 0f 6c c0             punpcklqdq xmm0, xmm0
   8a63e:       0f 11 43 08             movups XMMWORD PTR [rbx+0x8], xmm0
   8a642:       0f 11 43 18             movups XMMWORD PTR [rbx+0x18], xmm0
   8a646:       0f 11 43 28             movups XMMWORD PTR [rbx+0x28], xmm0
   8a64a:       5b                      pop    rbx
   8a64b:       c3                      ret
================
_IO_file_setbuf 0x8a620
   8a620:       f3 0f 1e fa             endbr64 
   8a624:       53                      push   rbx
   8a625:       48 89 fb                mov    rbx, rdi
   8a628:       e8 03 3e 00 00          call   0x8e430
   8a62d:       48 85 c0                test   rax, rax
   8a630:       74 18                   je     0x8a64a
   8a632:       f3 0f 7e 43 38          movq   xmm0, QWORD PTR [rbx+0x38]
   8a637:       48 89 d8                mov    rax, rbx
   8a63a:       66 0f 6c c0             punpcklqdq xmm0, xmm0
   8a63e:       0f 11 43 08             movups XMMWORD PTR [rbx+0x8], xmm0
   8a642:       0f 11 43 18             movups XMMWORD PTR [rbx+0x18], xmm0
   8a646:       0f 11 43 28             movups XMMWORD PTR [rbx+0x28], xmm0
   8a64a:       5b                      pop    rbx
   8a64b:       c3                      ret
================
_IO_wfile_xsputn 0x868c0
   868c0:       f3 0f 1e fa             endbr64 
   868c4:       48 85 d2                test   rdx, rdx
   868c7:       0f 84 83 01 00 00       je     0x86a50
   868cd:       41 57                   push   r15
   868cf:       41 56                   push   r14
   868d1:       41 55                   push   r13
   868d3:       49 89 fd                mov    r13, rdi
   868d6:       41 54                   push   r12
   868d8:       49 89 f4                mov    r12, rsi
   868db:       55                      push   rbp
   868dc:       48 89 d5                mov    rbp, rdx
   868df:       53                      push   rbx
   868e0:       48 83 ec 18             sub    rsp, 0x18
   868e4:       41 8b 45 00             mov    eax, DWORD PTR [r13+0x0]
   868e8:       4c 8b b7 a0 00 00 00    mov    r14, QWORD PTR [rdi+0xa0]
   868ef:       25 00 0a 00 00          and    eax, 0xa00
   868f4:       49 8b 5e 28             mov    rbx, QWORD PTR [r14+0x28]
   868f8:       49 8b 7e 20             mov    rdi, QWORD PTR [r14+0x20]
   868fc:       3d 00 0a 00 00          cmp    eax, 0xa00
   86901:       74 6d                   je     0x86970
   86903:       48 29 fb                sub    rbx, rdi
   86906:       45 31 ff                xor    r15d, r15d
   86909:       48 c1 fb 02             sar    rbx, 0x2
   8690d:       48 89 ea                mov    rdx, rbp
   86910:       48 85 db                test   rbx, rbx
   86913:       0f 85 8f 00 00 00       jne    0x869a8
   86919:       4c 89 e6                mov    rsi, r12
   8691c:       4c 89 ef                mov    rdi, r13
   8691f:       48 89 54 24 08          mov    QWORD PTR [rsp+0x8], rdx
   86924:       e8 87 d0 ff ff          call   0x839b0
   86929:       48 8b 54 24 08          mov    rdx, QWORD PTR [rsp+0x8]
   8692e:       48 29 d0                sub    rax, rdx
   86931:       48 01 c5                add    rbp, rax
   86934:       45 85 ff                test   r15d, r15d
   86937:       74 23                   je     0x8695c
   86939:       49 8b 85 a0 00 00 00    mov    rax, QWORD PTR [r13+0xa0]
   86940:       48 8b 50 20             mov    rdx, QWORD PTR [rax+0x20]
   86944:       48 8b 70 18             mov    rsi, QWORD PTR [rax+0x18]
   86948:       48 39 f2                cmp    rdx, rsi
   8694b:       74 0f                   je     0x8695c
   8694d:       48 29 f2                sub    rdx, rsi
   86950:       4c 89 ef                mov    rdi, r13
   86953:       48 c1 fa 02             sar    rdx, 0x2
   86957:       e8 c4 f8 ff ff          call   0x86220
   8695c:       48 83 c4 18             add    rsp, 0x18
   86960:       48 89 e8                mov    rax, rbp
   86963:       5b                      pop    rbx
   86964:       5d                      pop    rbp
   86965:       41 5c                   pop    r12
   86967:       41 5d                   pop    r13
   86969:       41 5e                   pop    r14
   8696b:       41 5f                   pop    r15
   8696d:       c3                      ret    
   8696e:       66 90                   xchg   ax, ax
   86970:       49 8b 5e 38             mov    rbx, QWORD PTR [r14+0x38]
   86974:       48 29 fb                sub    rbx, rdi
   86977:       48 c1 fb 02             sar    rbx, 0x2
   8697b:       48 39 da                cmp    rdx, rbx
   8697e:       0f 87 d4 00 00 00       ja     0x86a58
   86984:       48 8d 14 96             lea    rdx, [rsi+rdx*4]
   86988:       eb 13                   jmp    0x8699d
   8698a:       66 0f 1f 44 00 00       nop    WORD PTR [rax+rax*1+0x0]
   86990:       48 83 ea 04             sub    rdx, 0x4
   86994:       83 3a 0a                cmp    DWORD PTR [rdx], 0xa
   86997:       0f 84 1b 01 00 00       je     0x86ab8
   8699d:       49 39 d4                cmp    r12, rdx
   869a0:       72 ee                   jb     0x86990
   869a2:       45 31 ff                xor    r15d, r15d
   869a5:       0f 1f 00                nop    DWORD PTR [rax]
   869a8:       48 39 dd                cmp    rbp, rbx
   869ab:       48 0f 46 dd             cmovbe rbx, rbp
   869af:       48 83 fb 14             cmp    rbx, 0x14
   869b3:       0f 87 e7 00 00 00       ja     0x86aa0
   869b9:       49 8d 54 24 04          lea    rdx, [r12+0x4]
   869be:       48 89 f8                mov    rax, rdi
   869c1:       8d 4b ff                lea    ecx, [rbx-0x1]
   869c4:       48 29 d0                sub    rax, rdx
   869c7:       48 83 f8 08             cmp    rax, 0x8
   869cb:       0f 86 ff 00 00 00       jbe    0x86ad0
   869d1:       83 f9 02                cmp    ecx, 0x2
   869d4:       0f 86 f6 00 00 00       jbe    0x86ad0
   869da:       f3 41 0f 6f 04 24       movdqu xmm0, XMMWORD PTR [r12]
   869e0:       89 d8                   mov    eax, ebx
   869e2:       c1 e8 02                shr    eax, 0x2
   869e5:       0f 11 07                movups XMMWORD PTR [rdi], xmm0
   869e8:       83 f8 01                cmp    eax, 0x1
   869eb:       74 73                   je     0x86a60
   869ed:       f3 41 0f 6f 4c 24 10    movdqu xmm1, XMMWORD PTR [r12+0x10]
   869f4:       0f 11 4f 10             movups XMMWORD PTR [rdi+0x10], xmm1
   869f8:       83 f8 02                cmp    eax, 0x2
   869fb:       74 63                   je     0x86a60
   869fd:       f3 41 0f 6f 54 24 20    movdqu xmm2, XMMWORD PTR [r12+0x20]
   86a04:       0f 11 57 20             movups XMMWORD PTR [rdi+0x20], xmm2
   86a08:       83 f8 03                cmp    eax, 0x3
   86a0b:       74 53                   je     0x86a60
   86a0d:       f3 41 0f 6f 5c 24 30    movdqu xmm3, XMMWORD PTR [r12+0x30]
   86a14:       0f 11 5f 30             movups XMMWORD PTR [rdi+0x30], xmm3
   86a18:       83 f8 05                cmp    eax, 0x5
   86a1b:       75 43                   jne    0x86a60
   86a1d:       f3 41 0f 6f 64 24 40    movdqu xmm4, XMMWORD PTR [r12+0x40]
   86a24:       89 da                   mov    edx, ebx
   86a26:       0f 11 67 40             movups XMMWORD PTR [rdi+0x40], xmm4
   86a2a:       48 c1 e2 02             shl    rdx, 0x2
   86a2e:       49 01 d4                add    r12, rdx
   86a31:       48 8d 04 17             lea    rax, [rdi+rdx*1]
   86a35:       48 89 ea                mov    rdx, rbp
   86a38:       49 89 46 20             mov    QWORD PTR [r14+0x20], rax
   86a3c:       48 29 da                sub    rdx, rbx
   86a3f:       0f 84 ef fe ff ff       je     0x86934
   86a45:       e9 cf fe ff ff          jmp    0x86919
   86a4a:       66 0f 1f 44 00 00       nop    WORD PTR [rax+rax*1+0x0]
   86a50:       31 c0                   xor    eax, eax
   86a52:       c3                      ret    
   86a53:       0f 1f 44 00 00          nop    DWORD PTR [rax+rax*1+0x0]
   86a58:       45 31 ff                xor    r15d, r15d
   86a5b:       e9 ad fe ff ff          jmp    0x8690d
   86a60:       89 da                   mov    edx, ebx
   86a62:       83 e2 fc                and    edx, 0xfffffffc
   86a65:       89 d0                   mov    eax, edx
   86a67:       29 d1                   sub    ecx, edx
   86a69:       48 c1 e0 02             shl    rax, 0x2
   86a6d:       49 8d 34 04             lea    rsi, [r12+rax*1]
   86a71:       48 01 f8                add    rax, rdi
   86a74:       39 d3                   cmp    ebx, edx
   86a76:       74 75                   je     0x86aed
   86a78:       8b 16                   mov    edx, DWORD PTR [rsi]
   86a7a:       89 10                   mov    DWORD PTR [rax], edx
   86a7c:       89 da                   mov    edx, ebx
   86a7e:       85 c9                   test   ecx, ecx
   86a80:       74 a8                   je     0x86a2a
   86a82:       44 8b 46 04             mov    r8d, DWORD PTR [rsi+0x4]
   86a86:       44 89 40 04             mov    DWORD PTR [rax+0x4], r8d
   86a8a:       83 f9 01                cmp    ecx, 0x1
   86a8d:       74 9b                   je     0x86a2a
   86a8f:       8b 4e 08                mov    ecx, DWORD PTR [rsi+0x8]
   86a92:       89 48 08                mov    DWORD PTR [rax+0x8], ecx
   86a95:       eb 93                   jmp    0x86a2a
   86a97:       66 0f 1f 84 00 00 00 00 00      nop    WORD PTR [rax+rax*1+0x0]
   86aa0:       4c 89 e6                mov    rsi, r12
   86aa3:       48 89 da                mov    rdx, rbx
   86aa6:       4d 8d 24 9c             lea    r12, [r12+rbx*4]
   86aaa:       e8 f1 f1 03 00          call   0xc5ca0
   86aaf:       eb 84                   jmp    0x86a35
   86ab1:       0f 1f 80 00 00 00 00    nop    DWORD PTR [rax+0x0]
   86ab8:       4c 29 e2                sub    rdx, r12
   86abb:       41 bf 01 00 00 00       mov    r15d, 0x1
   86ac1:       48 c1 fa 02             sar    rdx, 0x2
   86ac5:       48 8d 5a 01             lea    rbx, [rdx+0x1]
   86ac9:       e9 3f fe ff ff          jmp    0x8690d
   86ace:       66 90                   xchg   ax, ax
   86ad0:       89 da                   mov    edx, ebx
   86ad2:       31 c0                   xor    eax, eax
   86ad4:       0f 1f 40 00             nop    DWORD PTR [rax+0x0]
   86ad8:       41 8b 0c 84             mov    ecx, DWORD PTR [r12+rax*4]
   86adc:       89 0c 87                mov    DWORD PTR [rdi+rax*4], ecx
   86adf:       48 83 c0 01             add    rax, 0x1
   86ae3:       48 39 c2                cmp    rdx, rax
   86ae6:       75 f0                   jne    0x86ad8
   86ae8:       e9 3d ff ff ff          jmp    0x86a2a
   86aed:       89 da                   mov    edx, ebx
   86aef:       e9 36 ff ff ff          jmp    0x86a2a
================
_IO_wfile_xsputn 0x868c0
   868c0:       f3 0f 1e fa             endbr64 
   868c4:       48 85 d2                test   rdx, rdx
   868c7:       0f 84 83 01 00 00       je     0x86a50
   868cd:       41 57                   push   r15
   868cf:       41 56                   push   r14
   868d1:       41 55                   push   r13
   868d3:       49 89 fd                mov    r13, rdi
   868d6:       41 54                   push   r12
   868d8:       49 89 f4                mov    r12, rsi
   868db:       55                      push   rbp
   868dc:       48 89 d5                mov    rbp, rdx
   868df:       53                      push   rbx
   868e0:       48 83 ec 18             sub    rsp, 0x18
   868e4:       41 8b 45 00             mov    eax, DWORD PTR [r13+0x0]
   868e8:       4c 8b b7 a0 00 00 00    mov    r14, QWORD PTR [rdi+0xa0]
   868ef:       25 00 0a 00 00          and    eax, 0xa00
   868f4:       49 8b 5e 28             mov    rbx, QWORD PTR [r14+0x28]
   868f8:       49 8b 7e 20             mov    rdi, QWORD PTR [r14+0x20]
   868fc:       3d 00 0a 00 00          cmp    eax, 0xa00
   86901:       74 6d                   je     0x86970
   86903:       48 29 fb                sub    rbx, rdi
   86906:       45 31 ff                xor    r15d, r15d
   86909:       48 c1 fb 02             sar    rbx, 0x2
   8690d:       48 89 ea                mov    rdx, rbp
   86910:       48 85 db                test   rbx, rbx
   86913:       0f 85 8f 00 00 00       jne    0x869a8
   86919:       4c 89 e6                mov    rsi, r12
   8691c:       4c 89 ef                mov    rdi, r13
   8691f:       48 89 54 24 08          mov    QWORD PTR [rsp+0x8], rdx
   86924:       e8 87 d0 ff ff          call   0x839b0
   86929:       48 8b 54 24 08          mov    rdx, QWORD PTR [rsp+0x8]
   8692e:       48 29 d0                sub    rax, rdx
   86931:       48 01 c5                add    rbp, rax
   86934:       45 85 ff                test   r15d, r15d
   86937:       74 23                   je     0x8695c
   86939:       49 8b 85 a0 00 00 00    mov    rax, QWORD PTR [r13+0xa0]
   86940:       48 8b 50 20             mov    rdx, QWORD PTR [rax+0x20]
   86944:       48 8b 70 18             mov    rsi, QWORD PTR [rax+0x18]
   86948:       48 39 f2                cmp    rdx, rsi
   8694b:       74 0f                   je     0x8695c
   8694d:       48 29 f2                sub    rdx, rsi
   86950:       4c 89 ef                mov    rdi, r13
   86953:       48 c1 fa 02             sar    rdx, 0x2
   86957:       e8 c4 f8 ff ff          call   0x86220
   8695c:       48 83 c4 18             add    rsp, 0x18
   86960:       48 89 e8                mov    rax, rbp
   86963:       5b                      pop    rbx
   86964:       5d                      pop    rbp
   86965:       41 5c                   pop    r12
   86967:       41 5d                   pop    r13
   86969:       41 5e                   pop    r14
   8696b:       41 5f                   pop    r15
   8696d:       c3                      ret    
   8696e:       66 90                   xchg   ax, ax
   86970:       49 8b 5e 38             mov    rbx, QWORD PTR [r14+0x38]
   86974:       48 29 fb                sub    rbx, rdi
   86977:       48 c1 fb 02             sar    rbx, 0x2
   8697b:       48 39 da                cmp    rdx, rbx
   8697e:       0f 87 d4 00 00 00       ja     0x86a58
   86984:       48 8d 14 96             lea    rdx, [rsi+rdx*4]
   86988:       eb 13                   jmp    0x8699d
   8698a:       66 0f 1f 44 00 00       nop    WORD PTR [rax+rax*1+0x0]
   86990:       48 83 ea 04             sub    rdx, 0x4
   86994:       83 3a 0a                cmp    DWORD PTR [rdx], 0xa
   86997:       0f 84 1b 01 00 00       je     0x86ab8
   8699d:       49 39 d4                cmp    r12, rdx
   869a0:       72 ee                   jb     0x86990
   869a2:       45 31 ff                xor    r15d, r15d
   869a5:       0f 1f 00                nop    DWORD PTR [rax]
   869a8:       48 39 dd                cmp    rbp, rbx
   869ab:       48 0f 46 dd             cmovbe rbx, rbp
   869af:       48 83 fb 14             cmp    rbx, 0x14
   869b3:       0f 87 e7 00 00 00       ja     0x86aa0
   869b9:       49 8d 54 24 04          lea    rdx, [r12+0x4]
   869be:       48 89 f8                mov    rax, rdi
   869c1:       8d 4b ff                lea    ecx, [rbx-0x1]
   869c4:       48 29 d0                sub    rax, rdx
   869c7:       48 83 f8 08             cmp    rax, 0x8
   869cb:       0f 86 ff 00 00 00       jbe    0x86ad0
   869d1:       83 f9 02                cmp    ecx, 0x2
   869d4:       0f 86 f6 00 00 00       jbe    0x86ad0
   869da:       f3 41 0f 6f 04 24       movdqu xmm0, XMMWORD PTR [r12]
   869e0:       89 d8                   mov    eax, ebx
   869e2:       c1 e8 02                shr    eax, 0x2
   869e5:       0f 11 07                movups XMMWORD PTR [rdi], xmm0
   869e8:       83 f8 01                cmp    eax, 0x1
   869eb:       74 73                   je     0x86a60
   869ed:       f3 41 0f 6f 4c 24 10    movdqu xmm1, XMMWORD PTR [r12+0x10]
   869f4:       0f 11 4f 10             movups XMMWORD PTR [rdi+0x10], xmm1
   869f8:       83 f8 02                cmp    eax, 0x2
   869fb:       74 63                   je     0x86a60
   869fd:       f3 41 0f 6f 54 24 20    movdqu xmm2, XMMWORD PTR [r12+0x20]
   86a04:       0f 11 57 20             movups XMMWORD PTR [rdi+0x20], xmm2
   86a08:       83 f8 03                cmp    eax, 0x3
   86a0b:       74 53                   je     0x86a60
   86a0d:       f3 41 0f 6f 5c 24 30    movdqu xmm3, XMMWORD PTR [r12+0x30]
   86a14:       0f 11 5f 30             movups XMMWORD PTR [rdi+0x30], xmm3
   86a18:       83 f8 05                cmp    eax, 0x5
   86a1b:       75 43                   jne    0x86a60
   86a1d:       f3 41 0f 6f 64 24 40    movdqu xmm4, XMMWORD PTR [r12+0x40]
   86a24:       89 da                   mov    edx, ebx
   86a26:       0f 11 67 40             movups XMMWORD PTR [rdi+0x40], xmm4
   86a2a:       48 c1 e2 02             shl    rdx, 0x2
   86a2e:       49 01 d4                add    r12, rdx
   86a31:       48 8d 04 17             lea    rax, [rdi+rdx*1]
   86a35:       48 89 ea                mov    rdx, rbp
   86a38:       49 89 46 20             mov    QWORD PTR [r14+0x20], rax
   86a3c:       48 29 da                sub    rdx, rbx
   86a3f:       0f 84 ef fe ff ff       je     0x86934
   86a45:       e9 cf fe ff ff          jmp    0x86919
   86a4a:       66 0f 1f 44 00 00       nop    WORD PTR [rax+rax*1+0x0]
   86a50:       31 c0                   xor    eax, eax
   86a52:       c3                      ret    
   86a53:       0f 1f 44 00 00          nop    DWORD PTR [rax+rax*1+0x0]
   86a58:       45 31 ff                xor    r15d, r15d
   86a5b:       e9 ad fe ff ff          jmp    0x8690d
   86a60:       89 da                   mov    edx, ebx
   86a62:       83 e2 fc                and    edx, 0xfffffffc
   86a65:       89 d0                   mov    eax, edx
   86a67:       29 d1                   sub    ecx, edx
   86a69:       48 c1 e0 02             shl    rax, 0x2
   86a6d:       49 8d 34 04             lea    rsi, [r12+rax*1]
   86a71:       48 01 f8                add    rax, rdi
   86a74:       39 d3                   cmp    ebx, edx
   86a76:       74 75                   je     0x86aed
   86a78:       8b 16                   mov    edx, DWORD PTR [rsi]
   86a7a:       89 10                   mov    DWORD PTR [rax], edx
   86a7c:       89 da                   mov    edx, ebx
   86a7e:       85 c9                   test   ecx, ecx
   86a80:       74 a8                   je     0x86a2a
   86a82:       44 8b 46 04             mov    r8d, DWORD PTR [rsi+0x4]
   86a86:       44 89 40 04             mov    DWORD PTR [rax+0x4], r8d
   86a8a:       83 f9 01                cmp    ecx, 0x1
   86a8d:       74 9b                   je     0x86a2a
   86a8f:       8b 4e 08                mov    ecx, DWORD PTR [rsi+0x8]
   86a92:       89 48 08                mov    DWORD PTR [rax+0x8], ecx
   86a95:       eb 93                   jmp    0x86a2a
   86a97:       66 0f 1f 84 00 00 00 00 00      nop    WORD PTR [rax+rax*1+0x0]
   86aa0:       4c 89 e6                mov    rsi, r12
   86aa3:       48 89 da                mov    rdx, rbx
   86aa6:       4d 8d 24 9c             lea    r12, [r12+rbx*4]
   86aaa:       e8 f1 f1 03 00          call   0xc5ca0
   86aaf:       eb 84                   jmp    0x86a35
   86ab1:       0f 1f 80 00 00 00 00    nop    DWORD PTR [rax+0x0]
   86ab8:       4c 29 e2                sub    rdx, r12
   86abb:       41 bf 01 00 00 00       mov    r15d, 0x1
   86ac1:       48 c1 fa 02             sar    rdx, 0x2
   86ac5:       48 8d 5a 01             lea    rbx, [rdx+0x1]
   86ac9:       e9 3f fe ff ff          jmp    0x8690d
   86ace:       66 90                   xchg   ax, ax
   86ad0:       89 da                   mov    edx, ebx
   86ad2:       31 c0                   xor    eax, eax
   86ad4:       0f 1f 40 00             nop    DWORD PTR [rax+0x0]
   86ad8:       41 8b 0c 84             mov    ecx, DWORD PTR [r12+rax*4]
   86adc:       89 0c 87                mov    DWORD PTR [rdi+rax*4], ecx
   86adf:       48 83 c0 01             add    rax, 0x1
   86ae3:       48 39 c2                cmp    rdx, rax
   86ae6:       75 f0                   jne    0x86ad8
   86ae8:       e9 3d ff ff ff          jmp    0x86a2a
   86aed:       89 da                   mov    edx, ebx
   86aef:       e9 36 ff ff ff          jmp    0x86a2a
================
_IO_file_stat 0x8af30
   8af30:       f3 0f 1e fa             endbr64 
   8af34:       8b 7f 70                mov    edi, DWORD PTR [rdi+0x70]
   8af37:       e9 44 8f 08 00          jmp    0x113e80
================
_IO_file_stat 0x8af30
   8af30:       f3 0f 1e fa             endbr64 
   8af34:       8b 7f 70                mov    edi, DWORD PTR [rdi+0x70]
   8af37:       e9 44 8f 08 00          jmp    0x113e80
================
_IO_file_sync_mmap 0x8a700
   8a700:       f3 0f 1e fa             endbr64 
   8a704:       53                      push   rbx
   8a705:       48 8b 47 08             mov    rax, QWORD PTR [rdi+0x8]
   8a709:       48 89 fb                mov    rbx, rdi
   8a70c:       48 89 c6                mov    rsi, rax
   8a70f:       48 2b 77 38             sub    rsi, QWORD PTR [rdi+0x38]
   8a713:       48 3b 47 10             cmp    rax, QWORD PTR [rdi+0x10]
   8a717:       74 1a                   je     0x8a733
   8a719:       8b 7f 70                mov    edi, DWORD PTR [rdi+0x70]
   8a71c:       31 d2                   xor    edx, edx
   8a71e:       e8 9d a3 08 00          call   0x114ac0
   8a723:       48 89 c6                mov    rsi, rax
   8a726:       48 8b 43 08             mov    rax, QWORD PTR [rbx+0x8]
   8a72a:       48 2b 43 38             sub    rax, QWORD PTR [rbx+0x38]
   8a72e:       48 39 f0                cmp    rax, rsi
   8a731:       75 1d                   jne    0x8a750
   8a733:       f3 0f 7e 43 18          movq   xmm0, QWORD PTR [rbx+0x18]
   8a738:       48 89 b3 90 00 00 00    mov    QWORD PTR [rbx+0x90], rsi
   8a73f:       31 c0                   xor    eax, eax
   8a741:       66 0f 6c c0             punpcklqdq xmm0, xmm0
   8a745:       0f 11 43 08             movups XMMWORD PTR [rbx+0x8], xmm0
   8a749:       5b                      pop    rbx
   8a74a:       c3                      ret    
   8a74b:       0f 1f 44 00 00          nop    DWORD PTR [rax+rax*1+0x0]
   8a750:       83 0b 20                or     DWORD PTR [rbx], 0x20
   8a753:       b8 ff ff ff ff          mov    eax, 0xffffffff
   8a758:       5b                      pop    rbx
   8a759:       c3                      ret
================
_IO_default_xsgetn 0x8e0c0
   8e0c0:       f3 0f 1e fa             endbr64 
   8e0c4:       41 57                   push   r15
   8e0c6:       49 89 d7                mov    r15, rdx
   8e0c9:       41 56                   push   r14
   8e0cb:       4c 8d 35 2e 79 18 00    lea    r14, [rip+0x18792e]        # 0x215a00
   8e0d2:       41 55                   push   r13
   8e0d4:       4c 8d 2d 8d 86 18 00    lea    r13, [rip+0x18868d]        # 0x216768
   8e0db:       41 54                   push   r12
   8e0dd:       4d 29 f5                sub    r13, r14
   8e0e0:       49 89 f4                mov    r12, rsi
   8e0e3:       55                      push   rbp
   8e0e4:       48 89 d5                mov    rbp, rdx
   8e0e7:       53                      push   rbx
   8e0e8:       48 89 fb                mov    rbx, rdi
   8e0eb:       48 83 ec 18             sub    rsp, 0x18
   8e0ef:       4c 8b 47 08             mov    r8, QWORD PTR [rdi+0x8]
   8e0f3:       48 8b 77 10             mov    rsi, QWORD PTR [rdi+0x10]
   8e0f7:       eb 72                   jmp    0x8e16b
   8e0f9:       0f 1f 80 00 00 00 00    nop    DWORD PTR [rax+0x0]
   8e100:       c7 83 c0 00 00 00 ff ff ff ff   mov    DWORD PTR [rbx+0xc0], 0xffffffff
   8e10a:       8b 03                   mov    eax, DWORD PTR [rbx]
   8e10c:       f6 c4 08                test   ah, 0x8
   8e10f:       0f 85 d3 00 00 00       jne    0x8e1e8
   8e115:       4c 8b 43 08             mov    r8, QWORD PTR [rbx+0x8]
   8e119:       48 8b 73 10             mov    rsi, QWORD PTR [rbx+0x10]
   8e11d:       49 39 f0                cmp    r8, rsi
   8e120:       0f 82 9a 00 00 00       jb     0x8e1c0
   8e126:       f6 c4 01                test   ah, 0x1
   8e129:       75 75                   jne    0x8e1a0
   8e12b:       48 83 7b 60 00          cmp    QWORD PTR [rbx+0x60], 0x0
   8e130:       0f 84 1a 01 00 00       je     0x8e250
   8e136:       48 89 df                mov    rdi, rbx
   8e139:       e8 42 f4 ff ff          call   0x8d580
   8e13e:       85 c0                   test   eax, eax
   8e140:       75 42                   jne    0x8e184
   8e142:       48 8b 83 d8 00 00 00    mov    rax, QWORD PTR [rbx+0xd8]
   8e149:       48 89 c2                mov    rdx, rax
   8e14c:       4c 29 f2                sub    rdx, r14
   8e14f:       49 39 d5                cmp    r13, rdx
   8e152:       0f 86 58 02 00 00       jbe    0x8e3b0
   8e158:       48 89 df                mov    rdi, rbx
   8e15b:       ff 50 20                call   QWORD PTR [rax+0x20]
   8e15e:       83 f8 ff                cmp    eax, 0xffffffff
   8e161:       74 21                   je     0x8e184
   8e163:       4c 8b 43 08             mov    r8, QWORD PTR [rbx+0x8]
   8e167:       48 8b 73 10             mov    rsi, QWORD PTR [rbx+0x10]
   8e16b:       49 39 f0                cmp    r8, rsi
   8e16e:       72 50                   jb     0x8e1c0
   8e170:       48 85 ed                test   rbp, rbp
   8e173:       74 12                   je     0x8e187
   8e175:       8b 83 c0 00 00 00       mov    eax, DWORD PTR [rbx+0xc0]
   8e17b:       85 c0                   test   eax, eax
   8e17d:       74 81                   je     0x8e100
   8e17f:       83 f8 ff                cmp    eax, 0xffffffff
   8e182:       74 86                   je     0x8e10a
   8e184:       49 29 ef                sub    r15, rbp
   8e187:       48 83 c4 18             add    rsp, 0x18
   8e18b:       4c 89 f8                mov    rax, r15
   8e18e:       5b                      pop    rbx
   8e18f:       5d                      pop    rbp
   8e190:       41 5c                   pop    r12
   8e192:       41 5d                   pop    r13
   8e194:       41 5e                   pop    r14
   8e196:       41 5f                   pop    r15
   8e198:       c3                      ret    
   8e199:       0f 1f 80 00 00 00 00    nop    DWORD PTR [rax+0x0]
   8e1a0:       48 89 df                mov    rdi, rbx
   8e1a3:       e8 88 f5 ff ff          call   0x8d730
   8e1a8:       4c 8b 43 08             mov    r8, QWORD PTR [rbx+0x8]
   8e1ac:       48 8b 73 10             mov    rsi, QWORD PTR [rbx+0x10]
   8e1b0:       49 39 f0                cmp    r8, rsi
   8e1b3:       0f 83 72 ff ff ff       jae    0x8e12b
   8e1b9:       0f 1f 80 00 00 00 00    nop    DWORD PTR [rax+0x0]
   8e1c0:       4c 29 c6                sub    rsi, r8
   8e1c3:       48 39 ee                cmp    rsi, rbp
   8e1c6:       48 89 f2                mov    rdx, rsi
   8e1c9:       48 0f 47 d5             cmova  rdx, rbp
   8e1cd:       48 83 fa 14             cmp    rdx, 0x14
   8e1d1:       0f 87 b1 00 00 00       ja     0x8e288
   8e1d7:       48 85 d2                test   rdx, rdx
   8e1da:       0f 85 f0 00 00 00       jne    0x8e2d0
   8e1e0:       48 29 d5                sub    rbp, rdx
   8e1e3:       eb 8b                   jmp    0x8e170
   8e1e5:       0f 1f 00                nop    DWORD PTR [rax]
   8e1e8:       4c 8b 43 28             mov    r8, QWORD PTR [rbx+0x28]
   8e1ec:       4c 3b 43 20             cmp    r8, QWORD PTR [rbx+0x20]
   8e1f0:       76 30                   jbe    0x8e222
   8e1f2:       48 8b 83 d8 00 00 00    mov    rax, QWORD PTR [rbx+0xd8]
   8e1f9:       48 89 c2                mov    rdx, rax
   8e1fc:       4c 29 f2                sub    rdx, r14
   8e1ff:       49 39 d5                cmp    r13, rdx
   8e202:       0f 86 08 02 00 00       jbe    0x8e410
   8e208:       be ff ff ff ff          mov    esi, 0xffffffff
   8e20d:       48 89 df                mov    rdi, rbx
   8e210:       ff 50 18                call   QWORD PTR [rax+0x18]
   8e213:       83 f8 ff                cmp    eax, 0xffffffff
   8e216:       0f 84 68 ff ff ff       je     0x8e184
   8e21c:       8b 03                   mov    eax, DWORD PTR [rbx]
   8e21e:       4c 8b 43 28             mov    r8, QWORD PTR [rbx+0x28]
   8e222:       48 8b 73 10             mov    rsi, QWORD PTR [rbx+0x10]
   8e226:       f6 c4 01                test   ah, 0x1
   8e229:       0f 84 81 00 00 00       je     0x8e2b0
   8e22f:       48 8b 53 50             mov    rdx, QWORD PTR [rbx+0x50]
   8e233:       48 89 53 18             mov    QWORD PTR [rbx+0x18], rdx
   8e237:       80 e4 f7                and    ah, 0xf7
   8e23a:       4c 89 43 08             mov    QWORD PTR [rbx+0x8], r8
   8e23e:       4c 89 43 30             mov    QWORD PTR [rbx+0x30], r8
   8e242:       4c 89 43 20             mov    QWORD PTR [rbx+0x20], r8
   8e246:       89 03                   mov    DWORD PTR [rbx], eax
   8e248:       e9 d0 fe ff ff          jmp    0x8e11d
   8e24d:       0f 1f 00                nop    DWORD PTR [rax]
   8e250:       48 8b 7b 48             mov    rdi, QWORD PTR [rbx+0x48]
   8e254:       48 85 ff                test   rdi, rdi
   8e257:       0f 84 e5 fe ff ff       je     0x8e142
   8e25d:       f7 03 00 01 00 00       test   DWORD PTR [rbx], 0x100
   8e263:       0f 85 5f 01 00 00       jne    0x8e3c8
   8e269:       e8 02 a1 f9 ff          call   0x28370
   8e26e:       66 0f ef c0             pxor   xmm0, xmm0
   8e272:       48 c7 43 58 00 00 00 00         mov    QWORD PTR [rbx+0x58], 0x0
   8e27a:       0f 11 43 48             movups XMMWORD PTR [rbx+0x48], xmm0
   8e27e:       e9 bf fe ff ff          jmp    0x8e142
   8e283:       0f 1f 44 00 00          nop    DWORD PTR [rax+rax*1+0x0]
   8e288:       4c 89 e7                mov    rdi, r12
   8e28b:       4c 89 c6                mov    rsi, r8
   8e28e:       48 89 54 24 08          mov    QWORD PTR [rsp+0x8], rdx
   8e293:       e8 48 a1 f9 ff          call   0x283e0
   8e298:       48 8b 54 24 08          mov    rdx, QWORD PTR [rsp+0x8]
   8e29d:       48 01 53 08             add    QWORD PTR [rbx+0x8], rdx
   8e2a1:       49 89 c4                mov    r12, rax
   8e2a4:       e9 37 ff ff ff          jmp    0x8e1e0
   8e2a9:       0f 1f 80 00 00 00 00    nop    DWORD PTR [rax+0x0]
   8e2b0:       48 8b 53 38             mov    rdx, QWORD PTR [rbx+0x38]
   8e2b4:       48 89 53 18             mov    QWORD PTR [rbx+0x18], rdx
   8e2b8:       4c 39 c6                cmp    rsi, r8
   8e2bb:       0f 83 76 ff ff ff       jae    0x8e237
   8e2c1:       4c 89 43 10             mov    QWORD PTR [rbx+0x10], r8
   8e2c5:       4c 89 c6                mov    rsi, r8
   8e2c8:       e9 6a ff ff ff          jmp    0x8e237
   8e2cd:       0f 1f 00                nop    DWORD PTR [rax]
   8e2d0:       49 8d 70 01             lea    rsi, [r8+0x1]
   8e2d4:       4c 89 e1                mov    rcx, r12
   8e2d7:       8d 42 ff                lea    eax, [rdx-0x1]
   8e2da:       48 29 f1                sub    rcx, rsi
   8e2dd:       48 83 f9 0e             cmp    rcx, 0xe
   8e2e1:       0f 86 f9 00 00 00       jbe    0x8e3e0
   8e2e7:       83 f8 06                cmp    eax, 0x6
   8e2ea:       0f 86 f0 00 00 00       jbe    0x8e3e0
   8e2f0:       83 f8 0e                cmp    eax, 0xe
   8e2f3:       0f 86 84 00 00 00       jbe    0x8e37d
   8e2f9:       f3 41 0f 6f 08          movdqu xmm1, XMMWORD PTR [r8]
   8e2fe:       49 8d 48 10             lea    rcx, [r8+0x10]
   8e302:       49 8d 74 24 10          lea    rsi, [r12+0x10]
   8e307:       89 d0                   mov    eax, edx
   8e309:       8d 7a ef                lea    edi, [rdx-0x11]
   8e30c:       41 0f 11 0c 24          movups XMMWORD PTR [r12], xmm1
   8e311:       83 fa 10                cmp    edx, 0x10
   8e314:       74 58                   je     0x8e36e
   8e316:       0f b6 01                movzx  eax, BYTE PTR [rcx]
   8e319:       88 06                   mov    BYTE PTR [rsi], al
   8e31b:       89 d0                   mov    eax, edx
   8e31d:       85 ff                   test   edi, edi
   8e31f:       74 4d                   je     0x8e36e
   8e321:       44 0f b6 49 01          movzx  r9d, BYTE PTR [rcx+0x1]
   8e326:       44 88 4e 01             mov    BYTE PTR [rsi+0x1], r9b
   8e32a:       83 ff 01                cmp    edi, 0x1
   8e32d:       74 3f                   je     0x8e36e
   8e32f:       44 0f b6 49 02          movzx  r9d, BYTE PTR [rcx+0x2]
   8e334:       44 88 4e 02             mov    BYTE PTR [rsi+0x2], r9b
   8e338:       83 ff 02                cmp    edi, 0x2
   8e33b:       74 31                   je     0x8e36e
   8e33d:       44 0f b6 49 03          movzx  r9d, BYTE PTR [rcx+0x3]
   8e342:       44 88 4e 03             mov    BYTE PTR [rsi+0x3], r9b
   8e346:       83 ff 03                cmp    edi, 0x3
   8e349:       74 23                   je     0x8e36e
   8e34b:       44 0f b6 49 04          movzx  r9d, BYTE PTR [rcx+0x4]
   8e350:       44 88 4e 04             mov    BYTE PTR [rsi+0x4], r9b
   8e354:       83 ff 04                cmp    edi, 0x4
   8e357:       74 15                   je     0x8e36e
   8e359:       44 0f b6 49 05          movzx  r9d, BYTE PTR [rcx+0x5]
   8e35e:       44 88 4e 05             mov    BYTE PTR [rsi+0x5], r9b
   8e362:       83 ff 05                cmp    edi, 0x5
   8e365:       74 07                   je     0x8e36e
   8e367:       0f b6 49 06             movzx  ecx, BYTE PTR [rcx+0x6]
   8e36b:       88 4e 06                mov    BYTE PTR [rsi+0x6], cl
   8e36e:       49 01 c4                add    r12, rax
   8e371:       4c 01 c0                add    rax, r8
   8e374:       48 89 43 08             mov    QWORD PTR [rbx+0x8], rax
   8e378:       e9 63 fe ff ff          jmp    0x8e1e0
   8e37d:       49 8b 00                mov    rax, QWORD PTR [r8]
   8e380:       49 8d 74 24 08          lea    rsi, [r12+0x8]
   8e385:       49 8d 48 08             lea    rcx, [r8+0x8]
   8e389:       8d 7a f7                lea    edi, [rdx-0x9]
   8e38c:       49 89 04 24             mov    QWORD PTR [r12], rax
   8e390:       89 d0                   mov    eax, edx
   8e392:       83 fa 08                cmp    edx, 0x8
   8e395:       0f 85 7b ff ff ff       jne    0x8e316
   8e39b:       49 01 c4                add    r12, rax
   8e39e:       4c 01 c0                add    rax, r8
   8e3a1:       48 89 43 08             mov    QWORD PTR [rbx+0x8], rax
   8e3a5:       e9 36 fe ff ff          jmp    0x8e1e0
   8e3aa:       66 0f 1f 44 00 00       nop    WORD PTR [rax+rax*1+0x0]
   8e3b0:       48 89 44 24 08          mov    QWORD PTR [rsp+0x8], rax
   8e3b5:       e8 b6 bb ff ff          call   0x89f70
   8e3ba:       48 8b 44 24 08          mov    rax, QWORD PTR [rsp+0x8]
   8e3bf:       e9 94 fd ff ff          jmp    0x8e158
   8e3c4:       0f 1f 40 00             nop    DWORD PTR [rax+0x0]
   8e3c8:       48 89 df                mov    rdi, rbx
   8e3cb:       e8 60 f3 ff ff          call   0x8d730
   8e3d0:       48 8b 7b 48             mov    rdi, QWORD PTR [rbx+0x48]
   8e3d4:       e9 90 fe ff ff          jmp    0x8e269
   8e3d9:       0f 1f 80 00 00 00 00    nop    DWORD PTR [rax+0x0]
   8e3e0:       89 d0                   mov    eax, edx
   8e3e2:       31 c9                   xor    ecx, ecx
   8e3e4:       0f 1f 40 00             nop    DWORD PTR [rax+0x0]
   8e3e8:       41 0f b6 34 08          movzx  esi, BYTE PTR [r8+rcx*1]
   8e3ed:       41 88 34 0c             mov    BYTE PTR [r12+rcx*1], sil
   8e3f1:       48 83 c1 01             add    rcx, 0x1
   8e3f5:       48 39 c1                cmp    rcx, rax
   8e3f8:       75 ee                   jne    0x8e3e8
   8e3fa:       49 01 c4                add    r12, rax
   8e3fd:       4c 01 c0                add    rax, r8
   8e400:       48 89 43 08             mov    QWORD PTR [rbx+0x8], rax
   8e404:       e9 d7 fd ff ff          jmp    0x8e1e0
   8e409:       0f 1f 80 00 00 00 00    nop    DWORD PTR [rax+0x0]
   8e410:       48 89 44 24 08          mov    QWORD PTR [rsp+0x8], rax
   8e415:       e8 56 bb ff ff          call   0x89f70
   8e41a:       48 8b 44 24 08          mov    rax, QWORD PTR [rsp+0x8]
   8e41f:       e9 e4 fd ff ff          jmp    0x8e208
================
_IO_default_xsgetn 0x8e0c0
   8e0c0:       f3 0f 1e fa             endbr64 
   8e0c4:       41 57                   push   r15
   8e0c6:       49 89 d7                mov    r15, rdx
   8e0c9:       41 56                   push   r14
   8e0cb:       4c 8d 35 2e 79 18 00    lea    r14, [rip+0x18792e]        # 0x215a00
   8e0d2:       41 55                   push   r13
   8e0d4:       4c 8d 2d 8d 86 18 00    lea    r13, [rip+0x18868d]        # 0x216768
   8e0db:       41 54                   push   r12
   8e0dd:       4d 29 f5                sub    r13, r14
   8e0e0:       49 89 f4                mov    r12, rsi
   8e0e3:       55                      push   rbp
   8e0e4:       48 89 d5                mov    rbp, rdx
   8e0e7:       53                      push   rbx
   8e0e8:       48 89 fb                mov    rbx, rdi
   8e0eb:       48 83 ec 18             sub    rsp, 0x18
   8e0ef:       4c 8b 47 08             mov    r8, QWORD PTR [rdi+0x8]
   8e0f3:       48 8b 77 10             mov    rsi, QWORD PTR [rdi+0x10]
   8e0f7:       eb 72                   jmp    0x8e16b
   8e0f9:       0f 1f 80 00 00 00 00    nop    DWORD PTR [rax+0x0]
   8e100:       c7 83 c0 00 00 00 ff ff ff ff   mov    DWORD PTR [rbx+0xc0], 0xffffffff
   8e10a:       8b 03                   mov    eax, DWORD PTR [rbx]
   8e10c:       f6 c4 08                test   ah, 0x8
   8e10f:       0f 85 d3 00 00 00       jne    0x8e1e8
   8e115:       4c 8b 43 08             mov    r8, QWORD PTR [rbx+0x8]
   8e119:       48 8b 73 10             mov    rsi, QWORD PTR [rbx+0x10]
   8e11d:       49 39 f0                cmp    r8, rsi
   8e120:       0f 82 9a 00 00 00       jb     0x8e1c0
   8e126:       f6 c4 01                test   ah, 0x1
   8e129:       75 75                   jne    0x8e1a0
   8e12b:       48 83 7b 60 00          cmp    QWORD PTR [rbx+0x60], 0x0
   8e130:       0f 84 1a 01 00 00       je     0x8e250
   8e136:       48 89 df                mov    rdi, rbx
   8e139:       e8 42 f4 ff ff          call   0x8d580
   8e13e:       85 c0                   test   eax, eax
   8e140:       75 42                   jne    0x8e184
   8e142:       48 8b 83 d8 00 00 00    mov    rax, QWORD PTR [rbx+0xd8]
   8e149:       48 89 c2                mov    rdx, rax
   8e14c:       4c 29 f2                sub    rdx, r14
   8e14f:       49 39 d5                cmp    r13, rdx
   8e152:       0f 86 58 02 00 00       jbe    0x8e3b0
   8e158:       48 89 df                mov    rdi, rbx
   8e15b:       ff 50 20                call   QWORD PTR [rax+0x20]
   8e15e:       83 f8 ff                cmp    eax, 0xffffffff
   8e161:       74 21                   je     0x8e184
   8e163:       4c 8b 43 08             mov    r8, QWORD PTR [rbx+0x8]
   8e167:       48 8b 73 10             mov    rsi, QWORD PTR [rbx+0x10]
   8e16b:       49 39 f0                cmp    r8, rsi
   8e16e:       72 50                   jb     0x8e1c0
   8e170:       48 85 ed                test   rbp, rbp
   8e173:       74 12                   je     0x8e187
   8e175:       8b 83 c0 00 00 00       mov    eax, DWORD PTR [rbx+0xc0]
   8e17b:       85 c0                   test   eax, eax
   8e17d:       74 81                   je     0x8e100
   8e17f:       83 f8 ff                cmp    eax, 0xffffffff
   8e182:       74 86                   je     0x8e10a
   8e184:       49 29 ef                sub    r15, rbp
   8e187:       48 83 c4 18             add    rsp, 0x18
   8e18b:       4c 89 f8                mov    rax, r15
   8e18e:       5b                      pop    rbx
   8e18f:       5d                      pop    rbp
   8e190:       41 5c                   pop    r12
   8e192:       41 5d                   pop    r13
   8e194:       41 5e                   pop    r14
   8e196:       41 5f                   pop    r15
   8e198:       c3                      ret    
   8e199:       0f 1f 80 00 00 00 00    nop    DWORD PTR [rax+0x0]
   8e1a0:       48 89 df                mov    rdi, rbx
   8e1a3:       e8 88 f5 ff ff          call   0x8d730
   8e1a8:       4c 8b 43 08             mov    r8, QWORD PTR [rbx+0x8]
   8e1ac:       48 8b 73 10             mov    rsi, QWORD PTR [rbx+0x10]
   8e1b0:       49 39 f0                cmp    r8, rsi
   8e1b3:       0f 83 72 ff ff ff       jae    0x8e12b
   8e1b9:       0f 1f 80 00 00 00 00    nop    DWORD PTR [rax+0x0]
   8e1c0:       4c 29 c6                sub    rsi, r8
   8e1c3:       48 39 ee                cmp    rsi, rbp
   8e1c6:       48 89 f2                mov    rdx, rsi
   8e1c9:       48 0f 47 d5             cmova  rdx, rbp
   8e1cd:       48 83 fa 14             cmp    rdx, 0x14
   8e1d1:       0f 87 b1 00 00 00       ja     0x8e288
   8e1d7:       48 85 d2                test   rdx, rdx
   8e1da:       0f 85 f0 00 00 00       jne    0x8e2d0
   8e1e0:       48 29 d5                sub    rbp, rdx
   8e1e3:       eb 8b                   jmp    0x8e170
   8e1e5:       0f 1f 00                nop    DWORD PTR [rax]
   8e1e8:       4c 8b 43 28             mov    r8, QWORD PTR [rbx+0x28]
   8e1ec:       4c 3b 43 20             cmp    r8, QWORD PTR [rbx+0x20]
   8e1f0:       76 30                   jbe    0x8e222
   8e1f2:       48 8b 83 d8 00 00 00    mov    rax, QWORD PTR [rbx+0xd8]
   8e1f9:       48 89 c2                mov    rdx, rax
   8e1fc:       4c 29 f2                sub    rdx, r14
   8e1ff:       49 39 d5                cmp    r13, rdx
   8e202:       0f 86 08 02 00 00       jbe    0x8e410
   8e208:       be ff ff ff ff          mov    esi, 0xffffffff
   8e20d:       48 89 df                mov    rdi, rbx
   8e210:       ff 50 18                call   QWORD PTR [rax+0x18]
   8e213:       83 f8 ff                cmp    eax, 0xffffffff
   8e216:       0f 84 68 ff ff ff       je     0x8e184
   8e21c:       8b 03                   mov    eax, DWORD PTR [rbx]
   8e21e:       4c 8b 43 28             mov    r8, QWORD PTR [rbx+0x28]
   8e222:       48 8b 73 10             mov    rsi, QWORD PTR [rbx+0x10]
   8e226:       f6 c4 01                test   ah, 0x1
   8e229:       0f 84 81 00 00 00       je     0x8e2b0
   8e22f:       48 8b 53 50             mov    rdx, QWORD PTR [rbx+0x50]
   8e233:       48 89 53 18             mov    QWORD PTR [rbx+0x18], rdx
   8e237:       80 e4 f7                and    ah, 0xf7
   8e23a:       4c 89 43 08             mov    QWORD PTR [rbx+0x8], r8
   8e23e:       4c 89 43 30             mov    QWORD PTR [rbx+0x30], r8
   8e242:       4c 89 43 20             mov    QWORD PTR [rbx+0x20], r8
   8e246:       89 03                   mov    DWORD PTR [rbx], eax
   8e248:       e9 d0 fe ff ff          jmp    0x8e11d
   8e24d:       0f 1f 00                nop    DWORD PTR [rax]
   8e250:       48 8b 7b 48             mov    rdi, QWORD PTR [rbx+0x48]
   8e254:       48 85 ff                test   rdi, rdi
   8e257:       0f 84 e5 fe ff ff       je     0x8e142
   8e25d:       f7 03 00 01 00 00       test   DWORD PTR [rbx], 0x100
   8e263:       0f 85 5f 01 00 00       jne    0x8e3c8
   8e269:       e8 02 a1 f9 ff          call   0x28370
   8e26e:       66 0f ef c0             pxor   xmm0, xmm0
   8e272:       48 c7 43 58 00 00 00 00         mov    QWORD PTR [rbx+0x58], 0x0
   8e27a:       0f 11 43 48             movups XMMWORD PTR [rbx+0x48], xmm0
   8e27e:       e9 bf fe ff ff          jmp    0x8e142
   8e283:       0f 1f 44 00 00          nop    DWORD PTR [rax+rax*1+0x0]
   8e288:       4c 89 e7                mov    rdi, r12
   8e28b:       4c 89 c6                mov    rsi, r8
   8e28e:       48 89 54 24 08          mov    QWORD PTR [rsp+0x8], rdx
   8e293:       e8 48 a1 f9 ff          call   0x283e0
   8e298:       48 8b 54 24 08          mov    rdx, QWORD PTR [rsp+0x8]
   8e29d:       48 01 53 08             add    QWORD PTR [rbx+0x8], rdx
   8e2a1:       49 89 c4                mov    r12, rax
   8e2a4:       e9 37 ff ff ff          jmp    0x8e1e0
   8e2a9:       0f 1f 80 00 00 00 00    nop    DWORD PTR [rax+0x0]
   8e2b0:       48 8b 53 38             mov    rdx, QWORD PTR [rbx+0x38]
   8e2b4:       48 89 53 18             mov    QWORD PTR [rbx+0x18], rdx
   8e2b8:       4c 39 c6                cmp    rsi, r8
   8e2bb:       0f 83 76 ff ff ff       jae    0x8e237
   8e2c1:       4c 89 43 10             mov    QWORD PTR [rbx+0x10], r8
   8e2c5:       4c 89 c6                mov    rsi, r8
   8e2c8:       e9 6a ff ff ff          jmp    0x8e237
   8e2cd:       0f 1f 00                nop    DWORD PTR [rax]
   8e2d0:       49 8d 70 01             lea    rsi, [r8+0x1]
   8e2d4:       4c 89 e1                mov    rcx, r12
   8e2d7:       8d 42 ff                lea    eax, [rdx-0x1]
   8e2da:       48 29 f1                sub    rcx, rsi
   8e2dd:       48 83 f9 0e             cmp    rcx, 0xe
   8e2e1:       0f 86 f9 00 00 00       jbe    0x8e3e0
   8e2e7:       83 f8 06                cmp    eax, 0x6
   8e2ea:       0f 86 f0 00 00 00       jbe    0x8e3e0
   8e2f0:       83 f8 0e                cmp    eax, 0xe
   8e2f3:       0f 86 84 00 00 00       jbe    0x8e37d
   8e2f9:       f3 41 0f 6f 08          movdqu xmm1, XMMWORD PTR [r8]
   8e2fe:       49 8d 48 10             lea    rcx, [r8+0x10]
   8e302:       49 8d 74 24 10          lea    rsi, [r12+0x10]
   8e307:       89 d0                   mov    eax, edx
   8e309:       8d 7a ef                lea    edi, [rdx-0x11]
   8e30c:       41 0f 11 0c 24          movups XMMWORD PTR [r12], xmm1
   8e311:       83 fa 10                cmp    edx, 0x10
   8e314:       74 58                   je     0x8e36e
   8e316:       0f b6 01                movzx  eax, BYTE PTR [rcx]
   8e319:       88 06                   mov    BYTE PTR [rsi], al
   8e31b:       89 d0                   mov    eax, edx
   8e31d:       85 ff                   test   edi, edi
   8e31f:       74 4d                   je     0x8e36e
   8e321:       44 0f b6 49 01          movzx  r9d, BYTE PTR [rcx+0x1]
   8e326:       44 88 4e 01             mov    BYTE PTR [rsi+0x1], r9b
   8e32a:       83 ff 01                cmp    edi, 0x1
   8e32d:       74 3f                   je     0x8e36e
   8e32f:       44 0f b6 49 02          movzx  r9d, BYTE PTR [rcx+0x2]
   8e334:       44 88 4e 02             mov    BYTE PTR [rsi+0x2], r9b
   8e338:       83 ff 02                cmp    edi, 0x2
   8e33b:       74 31                   je     0x8e36e
   8e33d:       44 0f b6 49 03          movzx  r9d, BYTE PTR [rcx+0x3]
   8e342:       44 88 4e 03             mov    BYTE PTR [rsi+0x3], r9b
   8e346:       83 ff 03                cmp    edi, 0x3
   8e349:       74 23                   je     0x8e36e
   8e34b:       44 0f b6 49 04          movzx  r9d, BYTE PTR [rcx+0x4]
   8e350:       44 88 4e 04             mov    BYTE PTR [rsi+0x4], r9b
   8e354:       83 ff 04                cmp    edi, 0x4
   8e357:       74 15                   je     0x8e36e
   8e359:       44 0f b6 49 05          movzx  r9d, BYTE PTR [rcx+0x5]
   8e35e:       44 88 4e 05             mov    BYTE PTR [rsi+0x5], r9b
   8e362:       83 ff 05                cmp    edi, 0x5
   8e365:       74 07                   je     0x8e36e
   8e367:       0f b6 49 06             movzx  ecx, BYTE PTR [rcx+0x6]
   8e36b:       88 4e 06                mov    BYTE PTR [rsi+0x6], cl
   8e36e:       49 01 c4                add    r12, rax
   8e371:       4c 01 c0                add    rax, r8
   8e374:       48 89 43 08             mov    QWORD PTR [rbx+0x8], rax
   8e378:       e9 63 fe ff ff          jmp    0x8e1e0
   8e37d:       49 8b 00                mov    rax, QWORD PTR [r8]
   8e380:       49 8d 74 24 08          lea    rsi, [r12+0x8]
   8e385:       49 8d 48 08             lea    rcx, [r8+0x8]
   8e389:       8d 7a f7                lea    edi, [rdx-0x9]
   8e38c:       49 89 04 24             mov    QWORD PTR [r12], rax
   8e390:       89 d0                   mov    eax, edx
   8e392:       83 fa 08                cmp    edx, 0x8
   8e395:       0f 85 7b ff ff ff       jne    0x8e316
   8e39b:       49 01 c4                add    r12, rax
   8e39e:       4c 01 c0                add    rax, r8
   8e3a1:       48 89 43 08             mov    QWORD PTR [rbx+0x8], rax
   8e3a5:       e9 36 fe ff ff          jmp    0x8e1e0
   8e3aa:       66 0f 1f 44 00 00       nop    WORD PTR [rax+rax*1+0x0]
   8e3b0:       48 89 44 24 08          mov    QWORD PTR [rsp+0x8], rax
   8e3b5:       e8 b6 bb ff ff          call   0x89f70
   8e3ba:       48 8b 44 24 08          mov    rax, QWORD PTR [rsp+0x8]
   8e3bf:       e9 94 fd ff ff          jmp    0x8e158
   8e3c4:       0f 1f 40 00             nop    DWORD PTR [rax+0x0]
   8e3c8:       48 89 df                mov    rdi, rbx
   8e3cb:       e8 60 f3 ff ff          call   0x8d730
   8e3d0:       48 8b 7b 48             mov    rdi, QWORD PTR [rbx+0x48]
   8e3d4:       e9 90 fe ff ff          jmp    0x8e269
   8e3d9:       0f 1f 80 00 00 00 00    nop    DWORD PTR [rax+0x0]
   8e3e0:       89 d0                   mov    eax, edx
   8e3e2:       31 c9                   xor    ecx, ecx
   8e3e4:       0f 1f 40 00             nop    DWORD PTR [rax+0x0]
   8e3e8:       41 0f b6 34 08          movzx  esi, BYTE PTR [r8+rcx*1]
   8e3ed:       41 88 34 0c             mov    BYTE PTR [r12+rcx*1], sil
   8e3f1:       48 83 c1 01             add    rcx, 0x1
   8e3f5:       48 39 c1                cmp    rcx, rax
   8e3f8:       75 ee                   jne    0x8e3e8
   8e3fa:       49 01 c4                add    r12, rax
   8e3fd:       4c 01 c0                add    rax, r8
   8e400:       48 89 43 08             mov    QWORD PTR [rbx+0x8], rax
   8e404:       e9 d7 fd ff ff          jmp    0x8e1e0
   8e409:       0f 1f 80 00 00 00 00    nop    DWORD PTR [rax+0x0]
   8e410:       48 89 44 24 08          mov    QWORD PTR [rsp+0x8], rax
   8e415:       e8 56 bb ff ff          call   0x89f70
   8e41a:       48 8b 44 24 08          mov    rax, QWORD PTR [rsp+0x8]
   8e41f:       e9 e4 fd ff ff          jmp    0x8e208
================
_IO_default_finish 0x8e7b0
   8e7b0:       f3 0f 1e fa             endbr64 
   8e7b4:       55                      push   rbp
   8e7b5:       48 89 fd                mov    rbp, rdi
   8e7b8:       48 8b 7f 38             mov    rdi, QWORD PTR [rdi+0x38]
   8e7bc:       48 85 ff                test   rdi, rdi
   8e7bf:       74 06                   je     0x8e7c7
   8e7c1:       f6 45 00 01             test   BYTE PTR [rbp+0x0], 0x1
   8e7c5:       74 39                   je     0x8e800
   8e7c7:       48 8b 45 60             mov    rax, QWORD PTR [rbp+0x60]
   8e7cb:       48 85 c0                test   rax, rax
   8e7ce:       74 10                   je     0x8e7e0
   8e7d0:       48 c7 40 08 00 00 00 00         mov    QWORD PTR [rax+0x8], 0x0
   8e7d8:       48 8b 00                mov    rax, QWORD PTR [rax]
   8e7db:       48 85 c0                test   rax, rax
   8e7de:       75 f0                   jne    0x8e7d0
   8e7e0:       48 8b 7d 48             mov    rdi, QWORD PTR [rbp+0x48]
   8e7e4:       48 85 ff                test   rdi, rdi
   8e7e7:       74 0d                   je     0x8e7f6
   8e7e9:       e8 82 9b f9 ff          call   0x28370
   8e7ee:       48 c7 45 48 00 00 00 00         mov    QWORD PTR [rbp+0x48], 0x0
   8e7f6:       f6 45 00 80             test   BYTE PTR [rbp+0x0], 0x80
   8e7fa:       75 14                   jne    0x8e810
   8e7fc:       5d                      pop    rbp
   8e7fd:       c3                      ret    
   8e7fe:       66 90                   xchg   ax, ax
   8e800:       e8 6b 9b f9 ff          call   0x28370
   8e805:       66 0f ef c0             pxor   xmm0, xmm0
   8e809:       0f 11 45 38             movups XMMWORD PTR [rbp+0x38], xmm0
   8e80d:       eb b8                   jmp    0x8e7c7
   8e80f:       90                      nop
   8e810:       48 89 ef                mov    rdi, rbp
   8e813:       5d                      pop    rbp
   8e814:       e9 d7 e8 ff ff          jmp    0x8d0f0
================
_IO_default_finish 0x8e7b0
   8e7b0:       f3 0f 1e fa             endbr64 
   8e7b4:       55                      push   rbp
   8e7b5:       48 89 fd                mov    rbp, rdi
   8e7b8:       48 8b 7f 38             mov    rdi, QWORD PTR [rdi+0x38]
   8e7bc:       48 85 ff                test   rdi, rdi
   8e7bf:       74 06                   je     0x8e7c7
   8e7c1:       f6 45 00 01             test   BYTE PTR [rbp+0x0], 0x1
   8e7c5:       74 39                   je     0x8e800
   8e7c7:       48 8b 45 60             mov    rax, QWORD PTR [rbp+0x60]
   8e7cb:       48 85 c0                test   rax, rax
   8e7ce:       74 10                   je     0x8e7e0
   8e7d0:       48 c7 40 08 00 00 00 00         mov    QWORD PTR [rax+0x8], 0x0
   8e7d8:       48 8b 00                mov    rax, QWORD PTR [rax]
   8e7db:       48 85 c0                test   rax, rax
   8e7de:       75 f0                   jne    0x8e7d0
   8e7e0:       48 8b 7d 48             mov    rdi, QWORD PTR [rbp+0x48]
   8e7e4:       48 85 ff                test   rdi, rdi
   8e7e7:       74 0d                   je     0x8e7f6
   8e7e9:       e8 82 9b f9 ff          call   0x28370
   8e7ee:       48 c7 45 48 00 00 00 00         mov    QWORD PTR [rbp+0x48], 0x0
   8e7f6:       f6 45 00 80             test   BYTE PTR [rbp+0x0], 0x80
   8e7fa:       75 14                   jne    0x8e810
   8e7fc:       5d                      pop    rbp
   8e7fd:       c3                      ret    
   8e7fe:       66 90                   xchg   ax, ax
   8e800:       e8 6b 9b f9 ff          call   0x28370
   8e805:       66 0f ef c0             pxor   xmm0, xmm0
   8e809:       0f 11 45 38             movups XMMWORD PTR [rbp+0x38], xmm0
   8e80d:       eb b8                   jmp    0x8e7c7
   8e80f:       90                      nop
   8e810:       48 89 ef                mov    rdi, rbp
   8e813:       5d                      pop    rbp
   8e814:       e9 d7 e8 ff ff          jmp    0x8d0f0
================
_IO_default_xsputn 0x8de40
   8de40:       f3 0f 1e fa             endbr64 
   8de44:       48 85 d2                test   rdx, rdx
   8de47:       0f 84 d3 01 00 00       je     0x8e020
   8de4d:       41 57                   push   r15
   8de4f:       48 89 f1                mov    rcx, rsi
   8de52:       49 89 ff                mov    r15, rdi
   8de55:       41 56                   push   r14
   8de57:       49 89 d6                mov    r14, rdx
   8de5a:       41 55                   push   r13
   8de5c:       49 89 d5                mov    r13, rdx
   8de5f:       41 54                   push   r12
   8de61:       4c 8d 25 98 7b 18 00    lea    r12, [rip+0x187b98]        # 0x215a00
   8de68:       55                      push   rbp
   8de69:       48 8d 2d f8 88 18 00    lea    rbp, [rip+0x1888f8]        # 0x216768
   8de70:       53                      push   rbx
   8de71:       4c 29 e5                sub    rbp, r12
   8de74:       48 83 ec 18             sub    rsp, 0x18
   8de78:       eb 46                   jmp    0x8dec0
   8de7a:       66 0f 1f 44 00 00       nop    WORD PTR [rax+rax*1+0x0]
   8de80:       48 85 db                test   rbx, rbx
   8de83:       0f 85 bf 00 00 00       jne    0x8df48
   8de89:       49 29 de                sub    r14, rbx
   8de8c:       4d 85 f6                test   r14, r14
   8de8f:       0f 84 9e 00 00 00       je     0x8df33
   8de95:       49 8b 87 d8 00 00 00    mov    rax, QWORD PTR [r15+0xd8]
   8de9c:       48 89 c2                mov    rdx, rax
   8de9f:       4c 29 e2                sub    rdx, r12
   8dea2:       48 39 d5                cmp    rbp, rdx
   8dea5:       76 59                   jbe    0x8df00
   8dea7:       0f b6 31                movzx  esi, BYTE PTR [rcx]
   8deaa:       48 8d 59 01             lea    rbx, [rcx+0x1]
   8deae:       4c 89 ff                mov    rdi, r15
   8deb1:       ff 50 18                call   QWORD PTR [rax+0x18]
   8deb4:       83 f8 ff                cmp    eax, 0xffffffff
   8deb7:       74 77                   je     0x8df30
   8deb9:       49 83 ee 01             sub    r14, 0x1
   8debd:       48 89 d9                mov    rcx, rbx
   8dec0:       49 8b 7f 28             mov    rdi, QWORD PTR [r15+0x28]
   8dec4:       49 8b 5f 30             mov    rbx, QWORD PTR [r15+0x30]
   8dec8:       48 39 df                cmp    rdi, rbx
   8decb:       73 bf                   jae    0x8de8c
   8decd:       48 29 fb                sub    rbx, rdi
   8ded0:       4c 39 f3                cmp    rbx, r14
   8ded3:       49 0f 47 de             cmova  rbx, r14
   8ded7:       48 83 fb 14             cmp    rbx, 0x14
   8dedb:       76 a3                   jbe    0x8de80
   8dedd:       48 89 ce                mov    rsi, rcx
   8dee0:       48 89 da                mov    rdx, rbx
   8dee3:       48 89 0c 24             mov    QWORD PTR [rsp], rcx
   8dee7:       e8 f4 a4 f9 ff          call   0x283e0
   8deec:       48 8b 0c 24             mov    rcx, QWORD PTR [rsp]
   8def0:       49 89 47 28             mov    QWORD PTR [r15+0x28], rax
   8def4:       48 01 d9                add    rcx, rbx
   8def7:       eb 90                   jmp    0x8de89
   8def9:       0f 1f 80 00 00 00 00    nop    DWORD PTR [rax+0x0]
   8df00:       48 89 4c 24 08          mov    QWORD PTR [rsp+0x8], rcx
   8df05:       48 89 04 24             mov    QWORD PTR [rsp], rax
   8df09:       e8 62 c0 ff ff          call   0x89f70
   8df0e:       48 8b 4c 24 08          mov    rcx, QWORD PTR [rsp+0x8]
   8df13:       48 8b 04 24             mov    rax, QWORD PTR [rsp]
   8df17:       4c 89 ff                mov    rdi, r15
   8df1a:       0f b6 31                movzx  esi, BYTE PTR [rcx]
   8df1d:       48 8d 59 01             lea    rbx, [rcx+0x1]
   8df21:       ff 50 18                call   QWORD PTR [rax+0x18]
   8df24:       83 f8 ff                cmp    eax, 0xffffffff
   8df27:       75 90                   jne    0x8deb9
   8df29:       0f 1f 80 00 00 00 00    nop    DWORD PTR [rax+0x0]
   8df30:       4d 29 f5                sub    r13, r14
   8df33:       48 83 c4 18             add    rsp, 0x18
   8df37:       4c 89 e8                mov    rax, r13
   8df3a:       5b                      pop    rbx
   8df3b:       5d                      pop    rbp
   8df3c:       41 5c                   pop    r12
   8df3e:       41 5d                   pop    r13
   8df40:       41 5e                   pop    r14
   8df42:       41 5f                   pop    r15
   8df44:       c3                      ret    
   8df45:       0f 1f 00                nop    DWORD PTR [rax]
   8df48:       48 8d 71 01             lea    rsi, [rcx+0x1]
   8df4c:       48 89 fa                mov    rdx, rdi
   8df4f:       48 8d 43 ff             lea    rax, [rbx-0x1]
   8df53:       48 29 f2                sub    rdx, rsi
   8df56:       48 83 fa 0e             cmp    rdx, 0xe
   8df5a:       0f 86 c8 00 00 00       jbe    0x8e028
   8df60:       48 83 f8 06             cmp    rax, 0x6
   8df64:       0f 86 be 00 00 00       jbe    0x8e028
   8df6a:       48 83 f8 0e             cmp    rax, 0xe
   8df6e:       0f 86 86 00 00 00       jbe    0x8dffa
   8df74:       f3 0f 6f 01             movdqu xmm0, XMMWORD PTR [rcx]
   8df78:       48 8d 51 10             lea    rdx, [rcx+0x10]
   8df7c:       48 8d 47 10             lea    rax, [rdi+0x10]
   8df80:       48 8d 73 ef             lea    rsi, [rbx-0x11]
   8df84:       0f 11 07                movups XMMWORD PTR [rdi], xmm0
   8df87:       48 83 fb 10             cmp    rbx, 0x10
   8df8b:       74 5e                   je     0x8dfeb
   8df8d:       44 0f b6 02             movzx  r8d, BYTE PTR [rdx]
   8df91:       44 88 00                mov    BYTE PTR [rax], r8b
   8df94:       48 85 f6                test   rsi, rsi
   8df97:       74 52                   je     0x8dfeb
   8df99:       44 0f b6 42 01          movzx  r8d, BYTE PTR [rdx+0x1]
   8df9e:       44 88 40 01             mov    BYTE PTR [rax+0x1], r8b
   8dfa2:       48 83 fe 01             cmp    rsi, 0x1
   8dfa6:       74 43                   je     0x8dfeb
   8dfa8:       44 0f b6 42 02          movzx  r8d, BYTE PTR [rdx+0x2]
   8dfad:       44 88 40 02             mov    BYTE PTR [rax+0x2], r8b
   8dfb1:       48 83 fe 02             cmp    rsi, 0x2
   8dfb5:       74 34                   je     0x8dfeb
   8dfb7:       44 0f b6 42 03          movzx  r8d, BYTE PTR [rdx+0x3]
   8dfbc:       44 88 40 03             mov    BYTE PTR [rax+0x3], r8b
   8dfc0:       48 83 fe 03             cmp    rsi, 0x3
   8dfc4:       74 25                   je     0x8dfeb
   8dfc6:       44 0f b6 42 04          movzx  r8d, BYTE PTR [rdx+0x4]
   8dfcb:       44 88 40 04             mov    BYTE PTR [rax+0x4], r8b
   8dfcf:       48 83 fe 04             cmp    rsi, 0x4
   8dfd3:       74 16                   je     0x8dfeb
   8dfd5:       44 0f b6 42 05          movzx  r8d, BYTE PTR [rdx+0x5]
   8dfda:       44 88 40 05             mov    BYTE PTR [rax+0x5], r8b
   8dfde:       48 83 fe 05             cmp    rsi, 0x5
   8dfe2:       74 07                   je     0x8dfeb
   8dfe4:       0f b6 52 06             movzx  edx, BYTE PTR [rdx+0x6]
   8dfe8:       88 50 06                mov    BYTE PTR [rax+0x6], dl
   8dfeb:       48 01 df                add    rdi, rbx
   8dfee:       48 01 d9                add    rcx, rbx
   8dff1:       49 89 7f 28             mov    QWORD PTR [r15+0x28], rdi
   8dff5:       e9 8f fe ff ff          jmp    0x8de89
   8dffa:       48 8b 01                mov    rax, QWORD PTR [rcx]
   8dffd:       48 8d 51 08             lea    rdx, [rcx+0x8]
   8e001:       48 8d 73 f7             lea    rsi, [rbx-0x9]
   8e005:       48 89 07                mov    QWORD PTR [rdi], rax
   8e008:       48 8d 47 08             lea    rax, [rdi+0x8]
   8e00c:       48 83 fb 08             cmp    rbx, 0x8
   8e010:       0f 85 77 ff ff ff       jne    0x8df8d
   8e016:       eb d3                   jmp    0x8dfeb
   8e018:       0f 1f 84 00 00 00 00 00         nop    DWORD PTR [rax+rax*1+0x0]
   8e020:       31 c0                   xor    eax, eax
   8e022:       c3                      ret    
   8e023:       0f 1f 44 00 00          nop    DWORD PTR [rax+rax*1+0x0]
   8e028:       31 c0                   xor    eax, eax
   8e02a:       66 0f 1f 44 00 00       nop    WORD PTR [rax+rax*1+0x0]
   8e030:       0f b6 14 01             movzx  edx, BYTE PTR [rcx+rax*1]
   8e034:       88 14 07                mov    BYTE PTR [rdi+rax*1], dl
   8e037:       48 83 c0 01             add    rax, 0x1
   8e03b:       48 39 d8                cmp    rax, rbx
   8e03e:       75 f0                   jne    0x8e030
   8e040:       eb a9                   jmp    0x8dfeb
================
_IO_default_xsputn 0x8de40
   8de40:       f3 0f 1e fa             endbr64 
   8de44:       48 85 d2                test   rdx, rdx
   8de47:       0f 84 d3 01 00 00       je     0x8e020
   8de4d:       41 57                   push   r15
   8de4f:       48 89 f1                mov    rcx, rsi
   8de52:       49 89 ff                mov    r15, rdi
   8de55:       41 56                   push   r14
   8de57:       49 89 d6                mov    r14, rdx
   8de5a:       41 55                   push   r13
   8de5c:       49 89 d5                mov    r13, rdx
   8de5f:       41 54                   push   r12
   8de61:       4c 8d 25 98 7b 18 00    lea    r12, [rip+0x187b98]        # 0x215a00
   8de68:       55                      push   rbp
   8de69:       48 8d 2d f8 88 18 00    lea    rbp, [rip+0x1888f8]        # 0x216768
   8de70:       53                      push   rbx
   8de71:       4c 29 e5                sub    rbp, r12
   8de74:       48 83 ec 18             sub    rsp, 0x18
   8de78:       eb 46                   jmp    0x8dec0
   8de7a:       66 0f 1f 44 00 00       nop    WORD PTR [rax+rax*1+0x0]
   8de80:       48 85 db                test   rbx, rbx
   8de83:       0f 85 bf 00 00 00       jne    0x8df48
   8de89:       49 29 de                sub    r14, rbx
   8de8c:       4d 85 f6                test   r14, r14
   8de8f:       0f 84 9e 00 00 00       je     0x8df33
   8de95:       49 8b 87 d8 00 00 00    mov    rax, QWORD PTR [r15+0xd8]
   8de9c:       48 89 c2                mov    rdx, rax
   8de9f:       4c 29 e2                sub    rdx, r12
   8dea2:       48 39 d5                cmp    rbp, rdx
   8dea5:       76 59                   jbe    0x8df00
   8dea7:       0f b6 31                movzx  esi, BYTE PTR [rcx]
   8deaa:       48 8d 59 01             lea    rbx, [rcx+0x1]
   8deae:       4c 89 ff                mov    rdi, r15
   8deb1:       ff 50 18                call   QWORD PTR [rax+0x18]
   8deb4:       83 f8 ff                cmp    eax, 0xffffffff
   8deb7:       74 77                   je     0x8df30
   8deb9:       49 83 ee 01             sub    r14, 0x1
   8debd:       48 89 d9                mov    rcx, rbx
   8dec0:       49 8b 7f 28             mov    rdi, QWORD PTR [r15+0x28]
   8dec4:       49 8b 5f 30             mov    rbx, QWORD PTR [r15+0x30]
   8dec8:       48 39 df                cmp    rdi, rbx
   8decb:       73 bf                   jae    0x8de8c
   8decd:       48 29 fb                sub    rbx, rdi
   8ded0:       4c 39 f3                cmp    rbx, r14
   8ded3:       49 0f 47 de             cmova  rbx, r14
   8ded7:       48 83 fb 14             cmp    rbx, 0x14
   8dedb:       76 a3                   jbe    0x8de80
   8dedd:       48 89 ce                mov    rsi, rcx
   8dee0:       48 89 da                mov    rdx, rbx
   8dee3:       48 89 0c 24             mov    QWORD PTR [rsp], rcx
   8dee7:       e8 f4 a4 f9 ff          call   0x283e0
   8deec:       48 8b 0c 24             mov    rcx, QWORD PTR [rsp]
   8def0:       49 89 47 28             mov    QWORD PTR [r15+0x28], rax
   8def4:       48 01 d9                add    rcx, rbx
   8def7:       eb 90                   jmp    0x8de89
   8def9:       0f 1f 80 00 00 00 00    nop    DWORD PTR [rax+0x0]
   8df00:       48 89 4c 24 08          mov    QWORD PTR [rsp+0x8], rcx
   8df05:       48 89 04 24             mov    QWORD PTR [rsp], rax
   8df09:       e8 62 c0 ff ff          call   0x89f70
   8df0e:       48 8b 4c 24 08          mov    rcx, QWORD PTR [rsp+0x8]
   8df13:       48 8b 04 24             mov    rax, QWORD PTR [rsp]
   8df17:       4c 89 ff                mov    rdi, r15
   8df1a:       0f b6 31                movzx  esi, BYTE PTR [rcx]
   8df1d:       48 8d 59 01             lea    rbx, [rcx+0x1]
   8df21:       ff 50 18                call   QWORD PTR [rax+0x18]
   8df24:       83 f8 ff                cmp    eax, 0xffffffff
   8df27:       75 90                   jne    0x8deb9
   8df29:       0f 1f 80 00 00 00 00    nop    DWORD PTR [rax+0x0]
   8df30:       4d 29 f5                sub    r13, r14
   8df33:       48 83 c4 18             add    rsp, 0x18
   8df37:       4c 89 e8                mov    rax, r13
   8df3a:       5b                      pop    rbx
   8df3b:       5d                      pop    rbp
   8df3c:       41 5c                   pop    r12
   8df3e:       41 5d                   pop    r13
   8df40:       41 5e                   pop    r14
   8df42:       41 5f                   pop    r15
   8df44:       c3                      ret    
   8df45:       0f 1f 00                nop    DWORD PTR [rax]
   8df48:       48 8d 71 01             lea    rsi, [rcx+0x1]
   8df4c:       48 89 fa                mov    rdx, rdi
   8df4f:       48 8d 43 ff             lea    rax, [rbx-0x1]
   8df53:       48 29 f2                sub    rdx, rsi
   8df56:       48 83 fa 0e             cmp    rdx, 0xe
   8df5a:       0f 86 c8 00 00 00       jbe    0x8e028
   8df60:       48 83 f8 06             cmp    rax, 0x6
   8df64:       0f 86 be 00 00 00       jbe    0x8e028
   8df6a:       48 83 f8 0e             cmp    rax, 0xe
   8df6e:       0f 86 86 00 00 00       jbe    0x8dffa
   8df74:       f3 0f 6f 01             movdqu xmm0, XMMWORD PTR [rcx]
   8df78:       48 8d 51 10             lea    rdx, [rcx+0x10]
   8df7c:       48 8d 47 10             lea    rax, [rdi+0x10]
   8df80:       48 8d 73 ef             lea    rsi, [rbx-0x11]
   8df84:       0f 11 07                movups XMMWORD PTR [rdi], xmm0
   8df87:       48 83 fb 10             cmp    rbx, 0x10
   8df8b:       74 5e                   je     0x8dfeb
   8df8d:       44 0f b6 02             movzx  r8d, BYTE PTR [rdx]
   8df91:       44 88 00                mov    BYTE PTR [rax], r8b
   8df94:       48 85 f6                test   rsi, rsi
   8df97:       74 52                   je     0x8dfeb
   8df99:       44 0f b6 42 01          movzx  r8d, BYTE PTR [rdx+0x1]
   8df9e:       44 88 40 01             mov    BYTE PTR [rax+0x1], r8b
   8dfa2:       48 83 fe 01             cmp    rsi, 0x1
   8dfa6:       74 43                   je     0x8dfeb
   8dfa8:       44 0f b6 42 02          movzx  r8d, BYTE PTR [rdx+0x2]
   8dfad:       44 88 40 02             mov    BYTE PTR [rax+0x2], r8b
   8dfb1:       48 83 fe 02             cmp    rsi, 0x2
   8dfb5:       74 34                   je     0x8dfeb
   8dfb7:       44 0f b6 42 03          movzx  r8d, BYTE PTR [rdx+0x3]
   8dfbc:       44 88 40 03             mov    BYTE PTR [rax+0x3], r8b
   8dfc0:       48 83 fe 03             cmp    rsi, 0x3
   8dfc4:       74 25                   je     0x8dfeb
   8dfc6:       44 0f b6 42 04          movzx  r8d, BYTE PTR [rdx+0x4]
   8dfcb:       44 88 40 04             mov    BYTE PTR [rax+0x4], r8b
   8dfcf:       48 83 fe 04             cmp    rsi, 0x4
   8dfd3:       74 16                   je     0x8dfeb
   8dfd5:       44 0f b6 42 05          movzx  r8d, BYTE PTR [rdx+0x5]
   8dfda:       44 88 40 05             mov    BYTE PTR [rax+0x5], r8b
   8dfde:       48 83 fe 05             cmp    rsi, 0x5
   8dfe2:       74 07                   je     0x8dfeb
   8dfe4:       0f b6 52 06             movzx  edx, BYTE PTR [rdx+0x6]
   8dfe8:       88 50 06                mov    BYTE PTR [rax+0x6], dl
   8dfeb:       48 01 df                add    rdi, rbx
   8dfee:       48 01 d9                add    rcx, rbx
   8dff1:       49 89 7f 28             mov    QWORD PTR [r15+0x28], rdi
   8dff5:       e9 8f fe ff ff          jmp    0x8de89
   8dffa:       48 8b 01                mov    rax, QWORD PTR [rcx]
   8dffd:       48 8d 51 08             lea    rdx, [rcx+0x8]
   8e001:       48 8d 73 f7             lea    rsi, [rbx-0x9]
   8e005:       48 89 07                mov    QWORD PTR [rdi], rax
   8e008:       48 8d 47 08             lea    rax, [rdi+0x8]
   8e00c:       48 83 fb 08             cmp    rbx, 0x8
   8e010:       0f 85 77 ff ff ff       jne    0x8df8d
   8e016:       eb d3                   jmp    0x8dfeb
   8e018:       0f 1f 84 00 00 00 00 00         nop    DWORD PTR [rax+rax*1+0x0]
   8e020:       31 c0                   xor    eax, eax
   8e022:       c3                      ret    
   8e023:       0f 1f 44 00 00          nop    DWORD PTR [rax+rax*1+0x0]
   8e028:       31 c0                   xor    eax, eax
   8e02a:       66 0f 1f 44 00 00       nop    WORD PTR [rax+rax*1+0x0]
   8e030:       0f b6 14 01             movzx  edx, BYTE PTR [rcx+rax*1]
   8e034:       88 14 07                mov    BYTE PTR [rdi+rax*1], dl
   8e037:       48 83 c0 01             add    rax, 0x1
   8e03b:       48 39 d8                cmp    rax, rbx
   8e03e:       75 f0                   jne    0x8e030
   8e040:       eb a9                   jmp    0x8dfeb
================
_IO_file_write 0x8af40
   8af40:       f3 0f 1e fa             endbr64 
   8af44:       41 55                   push   r13
   8af46:       49 89 fd                mov    r13, rdi
   8af49:       41 54                   push   r12
   8af4b:       55                      push   rbp
   8af4c:       53                      push   rbx
   8af4d:       48 83 ec 08             sub    rsp, 0x8
   8af51:       48 85 d2                test   rdx, rdx
   8af54:       0f 8e 7e 00 00 00       jle    0x8afd8
   8af5a:       48 89 f5                mov    rbp, rsi
   8af5d:       49 89 d4                mov    r12, rdx
   8af60:       48 89 d3                mov    rbx, rdx
   8af63:       eb 18                   jmp    0x8af7d
   8af65:       0f 1f 00                nop    DWORD PTR [rax]
   8af68:       e8 b3 9a 08 00          call   0x114a20
   8af6d:       48 85 c0                test   rax, rax
   8af70:       78 2e                   js     0x8afa0
   8af72:       48 29 c3                sub    rbx, rax
   8af75:       48 01 c5                add    rbp, rax
   8af78:       48 85 db                test   rbx, rbx
   8af7b:       7e 53                   jle    0x8afd0
   8af7d:       41 8b 7d 70             mov    edi, DWORD PTR [r13+0x70]
   8af81:       48 89 da                mov    rdx, rbx
   8af84:       48 89 ee                mov    rsi, rbp
   8af87:       41 f6 45 74 02          test   BYTE PTR [r13+0x74], 0x2
   8af8c:       74 da                   je     0x8af68
   8af8e:       e8 ad ed 08 00          call   0x119d40
   8af93:       48 85 c0                test   rax, rax
   8af96:       79 da                   jns    0x8af72
   8af98:       0f 1f 84 00 00 00 00 00         nop    DWORD PTR [rax+rax*1+0x0]
   8afa0:       41 83 4d 00 20          or     DWORD PTR [r13+0x0], 0x20
   8afa5:       4c 89 e0                mov    rax, r12
   8afa8:       48 29 d8                sub    rax, rbx
   8afab:       49 8b 95 90 00 00 00    mov    rdx, QWORD PTR [r13+0x90]
   8afb2:       48 85 d2                test   rdx, rdx
   8afb5:       78 0a                   js     0x8afc1
   8afb7:       48 01 c2                add    rdx, rax
   8afba:       49 89 95 90 00 00 00    mov    QWORD PTR [r13+0x90], rdx
   8afc1:       48 83 c4 08             add    rsp, 0x8
   8afc5:       5b                      pop    rbx
   8afc6:       5d                      pop    rbp
   8afc7:       41 5c                   pop    r12
   8afc9:       41 5d                   pop    r13
   8afcb:       c3                      ret    
   8afcc:       0f 1f 40 00             nop    DWORD PTR [rax+0x0]
   8afd0:       4c 89 e0                mov    rax, r12
   8afd3:       48 29 d8                sub    rax, rbx
   8afd6:       eb d3                   jmp    0x8afab
   8afd8:       31 c0                   xor    eax, eax
   8afda:       eb cf                   jmp    0x8afab
================
_IO_file_write 0x8af40
   8af40:       f3 0f 1e fa             endbr64 
   8af44:       41 55                   push   r13
   8af46:       49 89 fd                mov    r13, rdi
   8af49:       41 54                   push   r12
   8af4b:       55                      push   rbp
   8af4c:       53                      push   rbx
   8af4d:       48 83 ec 08             sub    rsp, 0x8
   8af51:       48 85 d2                test   rdx, rdx
   8af54:       0f 8e 7e 00 00 00       jle    0x8afd8
   8af5a:       48 89 f5                mov    rbp, rsi
   8af5d:       49 89 d4                mov    r12, rdx
   8af60:       48 89 d3                mov    rbx, rdx
   8af63:       eb 18                   jmp    0x8af7d
   8af65:       0f 1f 00                nop    DWORD PTR [rax]
   8af68:       e8 b3 9a 08 00          call   0x114a20
   8af6d:       48 85 c0                test   rax, rax
   8af70:       78 2e                   js     0x8afa0
   8af72:       48 29 c3                sub    rbx, rax
   8af75:       48 01 c5                add    rbp, rax
   8af78:       48 85 db                test   rbx, rbx
   8af7b:       7e 53                   jle    0x8afd0
   8af7d:       41 8b 7d 70             mov    edi, DWORD PTR [r13+0x70]
   8af81:       48 89 da                mov    rdx, rbx
   8af84:       48 89 ee                mov    rsi, rbp
   8af87:       41 f6 45 74 02          test   BYTE PTR [r13+0x74], 0x2
   8af8c:       74 da                   je     0x8af68
   8af8e:       e8 ad ed 08 00          call   0x119d40
   8af93:       48 85 c0                test   rax, rax
   8af96:       79 da                   jns    0x8af72
   8af98:       0f 1f 84 00 00 00 00 00         nop    DWORD PTR [rax+rax*1+0x0]
   8afa0:       41 83 4d 00 20          or     DWORD PTR [r13+0x0], 0x20
   8afa5:       4c 89 e0                mov    rax, r12
   8afa8:       48 29 d8                sub    rax, rbx
   8afab:       49 8b 95 90 00 00 00    mov    rdx, QWORD PTR [r13+0x90]
   8afb2:       48 85 d2                test   rdx, rdx
   8afb5:       78 0a                   js     0x8afc1
   8afb7:       48 01 c2                add    rdx, rax
   8afba:       49 89 95 90 00 00 00    mov    QWORD PTR [r13+0x90], rdx
   8afc1:       48 83 c4 08             add    rsp, 0x8
   8afc5:       5b                      pop    rbx
   8afc6:       5d                      pop    rbp
   8afc7:       41 5c                   pop    r12
   8afc9:       41 5d                   pop    r13
   8afcb:       c3                      ret    
   8afcc:       0f 1f 40 00             nop    DWORD PTR [rax+0x0]
   8afd0:       4c 89 e0                mov    rax, r12
   8afd3:       48 29 d8                sub    rax, rbx
   8afd6:       eb d3                   jmp    0x8afab
   8afd8:       31 c0                   xor    eax, eax
   8afda:       eb cf                   jmp    0x8afab
================
_IO_file_doallocate 0x7eb90
   7eb90:       f3 0f 1e fa             endbr64 
   7eb94:       41 54                   push   r12
   7eb96:       55                      push   rbp
   7eb97:       48 89 fd                mov    rbp, rdi
   7eb9a:       53                      push   rbx
   7eb9b:       48 81 ec a0 00 00 00    sub    rsp, 0xa0
   7eba2:       64 48 8b 04 25 28 00 00 00      mov    rax, QWORD PTR fs:0x28
   7ebab:       48 89 84 24 98 00 00 00         mov    QWORD PTR [rsp+0x98], rax
   7ebb3:       31 c0                   xor    eax, eax
   7ebb5:       8b 47 70                mov    eax, DWORD PTR [rdi+0x70]
   7ebb8:       85 c0                   test   eax, eax
   7ebba:       0f 88 a8 00 00 00       js     0x7ec68
   7ebc0:       48 8b 9f d8 00 00 00    mov    rbx, QWORD PTR [rdi+0xd8]
   7ebc7:       48 8d 15 32 6e 19 00    lea    rdx, [rip+0x196e32]        # 0x215a00
   7ebce:       48 8d 05 93 7b 19 00    lea    rax, [rip+0x197b93]        # 0x216768
   7ebd5:       48 29 d0                sub    rax, rdx
   7ebd8:       48 89 d9                mov    rcx, rbx
   7ebdb:       48 29 d1                sub    rcx, rdx
   7ebde:       48 39 c8                cmp    rax, rcx
   7ebe1:       0f 86 f9 00 00 00       jbe    0x7ece0
   7ebe7:       48 89 e6                mov    rsi, rsp
   7ebea:       48 89 ef                mov    rdi, rbp
   7ebed:       ff 93 90 00 00 00       call   QWORD PTR [rbx+0x90]
   7ebf3:       85 c0                   test   eax, eax
   7ebf5:       78 71                   js     0x7ec68
   7ebf7:       8b 44 24 18             mov    eax, DWORD PTR [rsp+0x18]
   7ebfb:       25 00 f0 00 00          and    eax, 0xf000
   7ec00:       3d 00 20 00 00          cmp    eax, 0x2000
   7ec05:       0f 84 7d 00 00 00       je     0x7ec88
   7ec0b:       48 8b 5c 24 38          mov    rbx, QWORD PTR [rsp+0x38]
   7ec10:       48 8d 43 ff             lea    rax, [rbx-0x1]
   7ec14:       48 3d fe 1f 00 00       cmp    rax, 0x1ffe
   7ec1a:       77 4c                   ja     0x7ec68
   7ec1c:       48 89 df                mov    rdi, rbx
   7ec1f:       e8 5c 97 fa ff          call   0x28380
   7ec24:       48 89 c6                mov    rsi, rax
   7ec27:       48 85 c0                test   rax, rax
   7ec2a:       74 51                   je     0x7ec7d
   7ec2c:       48 8d 14 18             lea    rdx, [rax+rbx*1]
   7ec30:       b9 01 00 00 00          mov    ecx, 0x1
   7ec35:       48 89 ef                mov    rdi, rbp
   7ec38:       e8 63 f0 00 00          call   0x8dca0
   7ec3d:       b8 01 00 00 00          mov    eax, 0x1
   7ec42:       48 8b 94 24 98 00 00 00         mov    rdx, QWORD PTR [rsp+0x98]
   7ec4a:       64 48 2b 14 25 28 00 00 00      sub    rdx, QWORD PTR fs:0x28
   7ec53:       0f 85 91 00 00 00       jne    0x7ecea
   7ec59:       48 81 c4 a0 00 00 00    add    rsp, 0xa0
   7ec60:       5b                      pop    rbx
   7ec61:       5d                      pop    rbp
   7ec62:       41 5c                   pop    r12
   7ec64:       c3                      ret    
   7ec65:       0f 1f 00                nop    DWORD PTR [rax]
   7ec68:       bb 00 20 00 00          mov    ebx, 0x2000
   7ec6d:       48 89 df                mov    rdi, rbx
   7ec70:       e8 0b 97 fa ff          call   0x28380
   7ec75:       48 89 c6                mov    rsi, rax
   7ec78:       48 85 c0                test   rax, rax
   7ec7b:       75 af                   jne    0x7ec2c
   7ec7d:       b8 ff ff ff ff          mov    eax, 0xffffffff
   7ec82:       eb be                   jmp    0x7ec42
   7ec84:       0f 1f 40 00             nop    DWORD PTR [rax+0x0]
   7ec88:       48 8b 44 24 28          mov    rax, QWORD PTR [rsp+0x28]
   7ec8d:       48 89 c2                mov    rdx, rax
   7ec90:       48 c1 e8 20             shr    rax, 0x20
   7ec94:       48 c1 ea 08             shr    rdx, 0x8
   7ec98:       25 00 f0 ff ff          and    eax, 0xfffff000
   7ec9d:       81 e2 ff 0f 00 00       and    edx, 0xfff
   7eca3:       09 d0                   or     eax, edx
   7eca5:       2d 88 00 00 00          sub    eax, 0x88
   7ecaa:       83 f8 07                cmp    eax, 0x7
   7ecad:       77 11                   ja     0x7ecc0
   7ecaf:       81 4d 00 00 02 00 00    or     DWORD PTR [rbp+0x0], 0x200
   7ecb6:       e9 50 ff ff ff          jmp    0x7ec0b
   7ecbb:       0f 1f 44 00 00          nop    DWORD PTR [rax+rax*1+0x0]
   7ecc0:       48 8b 1d 49 a1 19 00    mov    rbx, QWORD PTR [rip+0x19a149]        # 0x218e10
   7ecc7:       8b 7d 70                mov    edi, DWORD PTR [rbp+0x70]
   7ecca:       64 44 8b 23             mov    r12d, DWORD PTR fs:[rbx]
   7ecce:       e8 0d 74 09 00          call   0x1160e0
   7ecd3:       64 44 89 23             mov    DWORD PTR fs:[rbx], r12d
   7ecd7:       85 c0                   test   eax, eax
   7ecd9:       75 d4                   jne    0x7ecaf
   7ecdb:       e9 2b ff ff ff          jmp    0x7ec0b
   7ece0:       e8 8b b2 00 00          call   0x89f70
   7ece5:       e9 fd fe ff ff          jmp    0x7ebe7
   7ecea:       e8 31 7a 0b 00          call   0x136720
================
_IO_file_doallocate 0x7eb90
   7eb90:       f3 0f 1e fa             endbr64 
   7eb94:       41 54                   push   r12
   7eb96:       55                      push   rbp
   7eb97:       48 89 fd                mov    rbp, rdi
   7eb9a:       53                      push   rbx
   7eb9b:       48 81 ec a0 00 00 00    sub    rsp, 0xa0
   7eba2:       64 48 8b 04 25 28 00 00 00      mov    rax, QWORD PTR fs:0x28
   7ebab:       48 89 84 24 98 00 00 00         mov    QWORD PTR [rsp+0x98], rax
   7ebb3:       31 c0                   xor    eax, eax
   7ebb5:       8b 47 70                mov    eax, DWORD PTR [rdi+0x70]
   7ebb8:       85 c0                   test   eax, eax
   7ebba:       0f 88 a8 00 00 00       js     0x7ec68
   7ebc0:       48 8b 9f d8 00 00 00    mov    rbx, QWORD PTR [rdi+0xd8]
   7ebc7:       48 8d 15 32 6e 19 00    lea    rdx, [rip+0x196e32]        # 0x215a00
   7ebce:       48 8d 05 93 7b 19 00    lea    rax, [rip+0x197b93]        # 0x216768
   7ebd5:       48 29 d0                sub    rax, rdx
   7ebd8:       48 89 d9                mov    rcx, rbx
   7ebdb:       48 29 d1                sub    rcx, rdx
   7ebde:       48 39 c8                cmp    rax, rcx
   7ebe1:       0f 86 f9 00 00 00       jbe    0x7ece0
   7ebe7:       48 89 e6                mov    rsi, rsp
   7ebea:       48 89 ef                mov    rdi, rbp
   7ebed:       ff 93 90 00 00 00       call   QWORD PTR [rbx+0x90]
   7ebf3:       85 c0                   test   eax, eax
   7ebf5:       78 71                   js     0x7ec68
   7ebf7:       8b 44 24 18             mov    eax, DWORD PTR [rsp+0x18]
   7ebfb:       25 00 f0 00 00          and    eax, 0xf000
   7ec00:       3d 00 20 00 00          cmp    eax, 0x2000
   7ec05:       0f 84 7d 00 00 00       je     0x7ec88
   7ec0b:       48 8b 5c 24 38          mov    rbx, QWORD PTR [rsp+0x38]
   7ec10:       48 8d 43 ff             lea    rax, [rbx-0x1]
   7ec14:       48 3d fe 1f 00 00       cmp    rax, 0x1ffe
   7ec1a:       77 4c                   ja     0x7ec68
   7ec1c:       48 89 df                mov    rdi, rbx
   7ec1f:       e8 5c 97 fa ff          call   0x28380
   7ec24:       48 89 c6                mov    rsi, rax
   7ec27:       48 85 c0                test   rax, rax
   7ec2a:       74 51                   je     0x7ec7d
   7ec2c:       48 8d 14 18             lea    rdx, [rax+rbx*1]
   7ec30:       b9 01 00 00 00          mov    ecx, 0x1
   7ec35:       48 89 ef                mov    rdi, rbp
   7ec38:       e8 63 f0 00 00          call   0x8dca0
   7ec3d:       b8 01 00 00 00          mov    eax, 0x1
   7ec42:       48 8b 94 24 98 00 00 00         mov    rdx, QWORD PTR [rsp+0x98]
   7ec4a:       64 48 2b 14 25 28 00 00 00      sub    rdx, QWORD PTR fs:0x28
   7ec53:       0f 85 91 00 00 00       jne    0x7ecea
   7ec59:       48 81 c4 a0 00 00 00    add    rsp, 0xa0
   7ec60:       5b                      pop    rbx
   7ec61:       5d                      pop    rbp
   7ec62:       41 5c                   pop    r12
   7ec64:       c3                      ret    
   7ec65:       0f 1f 00                nop    DWORD PTR [rax]
   7ec68:       bb 00 20 00 00          mov    ebx, 0x2000
   7ec6d:       48 89 df                mov    rdi, rbx
   7ec70:       e8 0b 97 fa ff          call   0x28380
   7ec75:       48 89 c6                mov    rsi, rax
   7ec78:       48 85 c0                test   rax, rax
   7ec7b:       75 af                   jne    0x7ec2c
   7ec7d:       b8 ff ff ff ff          mov    eax, 0xffffffff
   7ec82:       eb be                   jmp    0x7ec42
   7ec84:       0f 1f 40 00             nop    DWORD PTR [rax+0x0]
   7ec88:       48 8b 44 24 28          mov    rax, QWORD PTR [rsp+0x28]
   7ec8d:       48 89 c2                mov    rdx, rax
   7ec90:       48 c1 e8 20             shr    rax, 0x20
   7ec94:       48 c1 ea 08             shr    rdx, 0x8
   7ec98:       25 00 f0 ff ff          and    eax, 0xfffff000
   7ec9d:       81 e2 ff 0f 00 00       and    edx, 0xfff
   7eca3:       09 d0                   or     eax, edx
   7eca5:       2d 88 00 00 00          sub    eax, 0x88
   7ecaa:       83 f8 07                cmp    eax, 0x7
   7ecad:       77 11                   ja     0x7ecc0
   7ecaf:       81 4d 00 00 02 00 00    or     DWORD PTR [rbp+0x0], 0x200
   7ecb6:       e9 50 ff ff ff          jmp    0x7ec0b
   7ecbb:       0f 1f 44 00 00          nop    DWORD PTR [rax+rax*1+0x0]
   7ecc0:       48 8b 1d 49 a1 19 00    mov    rbx, QWORD PTR [rip+0x19a149]        # 0x218e10
   7ecc7:       8b 7d 70                mov    edi, DWORD PTR [rbp+0x70]
   7ecca:       64 44 8b 23             mov    r12d, DWORD PTR fs:[rbx]
   7ecce:       e8 0d 74 09 00          call   0x1160e0
   7ecd3:       64 44 89 23             mov    DWORD PTR fs:[rbx], r12d
   7ecd7:       85 c0                   test   eax, eax
   7ecd9:       75 d4                   jne    0x7ecaf
   7ecdb:       e9 2b ff ff ff          jmp    0x7ec0b
   7ece0:       e8 8b b2 00 00          call   0x89f70
   7ece5:       e9 fd fe ff ff          jmp    0x7ebe7
   7ecea:       e8 31 7a 0b 00          call   0x136720
================
_IO_file_overflow 0x8ce40
   8ce40:       f3 0f 1e fa             endbr64 
   8ce44:       41 54                   push   r12
   8ce46:       55                      push   rbp
   8ce47:       48 89 fd                mov    rbp, rdi
   8ce4a:       53                      push   rbx
   8ce4b:       8b 07                   mov    eax, DWORD PTR [rdi]
   8ce4d:       a8 08                   test   al, 0x8
   8ce4f:       0f 85 eb 01 00 00       jne    0x8d040
   8ce55:       89 f3                   mov    ebx, esi
   8ce57:       48 8b 77 20             mov    rsi, QWORD PTR [rdi+0x20]
   8ce5b:       f6 c4 08                test   ah, 0x8
   8ce5e:       74 50                   je     0x8ceb0
   8ce60:       48 85 f6                test   rsi, rsi
   8ce63:       0f 84 6f 01 00 00       je     0x8cfd8
   8ce69:       48 8b 57 28             mov    rdx, QWORD PTR [rdi+0x28]
   8ce6d:       83 fb ff                cmp    ebx, 0xffffffff
   8ce70:       0f 84 a6 00 00 00       je     0x8cf1c
   8ce76:       48 39 55 40             cmp    QWORD PTR [rbp+0x40], rdx
   8ce7a:       0f 84 e0 00 00 00       je     0x8cf60
   8ce80:       48 8d 42 01             lea    rax, [rdx+0x1]
   8ce84:       48 89 45 28             mov    QWORD PTR [rbp+0x28], rax
   8ce88:       88 1a                   mov    BYTE PTR [rdx], bl
   8ce8a:       8b 45 00                mov    eax, DWORD PTR [rbp+0x0]
   8ce8d:       a8 02                   test   al, 0x2
   8ce8f:       0f 85 9b 00 00 00       jne    0x8cf30
   8ce95:       f6 c4 02                test   ah, 0x2
   8ce98:       74 09                   je     0x8cea3
   8ce9a:       83 fb 0a                cmp    ebx, 0xa
   8ce9d:       0f 84 8d 00 00 00       je     0x8cf30
   8cea3:       0f b6 c3                movzx  eax, bl
   8cea6:       5b                      pop    rbx
   8cea7:       5d                      pop    rbp
   8cea8:       41 5c                   pop    r12
   8ceaa:       c3                      ret    
   8ceab:       0f 1f 44 00 00          nop    DWORD PTR [rax+rax*1+0x0]
   8ceb0:       48 85 f6                test   rsi, rsi
   8ceb3:       0f 84 1f 01 00 00       je     0x8cfd8
   8ceb9:       48 8b 57 08             mov    rdx, QWORD PTR [rdi+0x8]
   8cebd:       f6 c4 01                test   ah, 0x1
   8cec0:       0f 85 3a 01 00 00       jne    0x8d000
   8cec6:       48 8b 75 40             mov    rsi, QWORD PTR [rbp+0x40]
   8ceca:       48 39 d6                cmp    rsi, rdx
   8cecd:       0f 84 cd 00 00 00       je     0x8cfa0
   8ced3:       48 8b 4d 10             mov    rcx, QWORD PTR [rbp+0x10]
   8ced7:       48 89 4d 08             mov    QWORD PTR [rbp+0x8], rcx
   8cedb:       48 89 4d 18             mov    QWORD PTR [rbp+0x18], rcx
   8cedf:       89 c1                   mov    ecx, eax
   8cee1:       80 cd 08                or     ch, 0x8
   8cee4:       48 89 75 30             mov    QWORD PTR [rbp+0x30], rsi
   8cee8:       48 89 d6                mov    rsi, rdx
   8ceeb:       89 4d 00                mov    DWORD PTR [rbp+0x0], ecx
   8ceee:       8b 8d c0 00 00 00       mov    ecx, DWORD PTR [rbp+0xc0]
   8cef4:       48 89 55 28             mov    QWORD PTR [rbp+0x28], rdx
   8cef8:       48 89 55 20             mov    QWORD PTR [rbp+0x20], rdx
   8cefc:       85 c9                   test   ecx, ecx
   8cefe:       0f 8f 69 ff ff ff       jg     0x8ce6d
   8cf04:       a9 02 02 00 00          test   eax, 0x202
   8cf09:       0f 84 5e ff ff ff       je     0x8ce6d
   8cf0f:       48 89 55 30             mov    QWORD PTR [rbp+0x30], rdx
   8cf13:       83 fb ff                cmp    ebx, 0xffffffff
   8cf16:       0f 85 5a ff ff ff       jne    0x8ce76
   8cf1c:       5b                      pop    rbx
   8cf1d:       48 89 ef                mov    rdi, rbp
   8cf20:       48 29 f2                sub    rdx, rsi
   8cf23:       5d                      pop    rbp
   8cf24:       41 5c                   pop    r12
   8cf26:       e9 85 fa ff ff          jmp    0x8c9b0
   8cf2b:       0f 1f 44 00 00          nop    DWORD PTR [rax+rax*1+0x0]
   8cf30:       48 8b 75 20             mov    rsi, QWORD PTR [rbp+0x20]
   8cf34:       48 8b 55 28             mov    rdx, QWORD PTR [rbp+0x28]
   8cf38:       48 89 ef                mov    rdi, rbp
   8cf3b:       48 29 f2                sub    rdx, rsi
   8cf3e:       e8 6d fa ff ff          call   0x8c9b0
   8cf43:       83 f8 ff                cmp    eax, 0xffffffff
   8cf46:       0f 85 57 ff ff ff       jne    0x8cea3
   8cf4c:       b8 ff ff ff ff          mov    eax, 0xffffffff
   8cf51:       e9 50 ff ff ff          jmp    0x8cea6
   8cf56:       66 2e 0f 1f 84 00 00 00 00 00   cs nop WORD PTR [rax+rax*1+0x0]
   8cf60:       8b 85 c0 00 00 00       mov    eax, DWORD PTR [rbp+0xc0]
   8cf66:       85 c0                   test   eax, eax
   8cf68:       7e 56                   jle    0x8cfc0
   8cf6a:       48 8b 85 a0 00 00 00    mov    rax, QWORD PTR [rbp+0xa0]
   8cf71:       48 89 ef                mov    rdi, rbp
   8cf74:       48 8b 70 18             mov    rsi, QWORD PTR [rax+0x18]
   8cf78:       48 8b 50 20             mov    rdx, QWORD PTR [rax+0x20]
   8cf7c:       48 29 f2                sub    rdx, rsi
   8cf7f:       48 c1 fa 02             sar    rdx, 0x2
   8cf83:       e8 98 92 ff ff          call   0x86220
   8cf88:       83 f8 ff                cmp    eax, 0xffffffff
   8cf8b:       74 bf                   je     0x8cf4c
   8cf8d:       48 8b 55 28             mov    rdx, QWORD PTR [rbp+0x28]
   8cf91:       e9 ea fe ff ff          jmp    0x8ce80
   8cf96:       66 2e 0f 1f 84 00 00 00 00 00   cs nop WORD PTR [rax+rax*1+0x0]
   8cfa0:       48 8b 55 38             mov    rdx, QWORD PTR [rbp+0x38]
   8cfa4:       66 48 0f 6e c2          movq   xmm0, rdx
   8cfa9:       48 89 d1                mov    rcx, rdx
   8cfac:       66 0f 6c c0             punpcklqdq xmm0, xmm0
   8cfb0:       0f 11 45 08             movups XMMWORD PTR [rbp+0x8], xmm0
   8cfb4:       e9 1e ff ff ff          jmp    0x8ced7
   8cfb9:       0f 1f 80 00 00 00 00    nop    DWORD PTR [rax+0x0]
   8cfc0:       48 29 f2                sub    rdx, rsi
   8cfc3:       48 89 ef                mov    rdi, rbp
   8cfc6:       e8 e5 f9 ff ff          call   0x8c9b0
   8cfcb:       83 f8 ff                cmp    eax, 0xffffffff
   8cfce:       75 bd                   jne    0x8cf8d
   8cfd0:       e9 77 ff ff ff          jmp    0x8cf4c
   8cfd5:       0f 1f 00                nop    DWORD PTR [rax]
   8cfd8:       48 89 ef                mov    rdi, rbp
   8cfdb:       e8 30 0d 00 00          call   0x8dd10
   8cfe0:       48 8b 55 38             mov    rdx, QWORD PTR [rbp+0x38]
   8cfe4:       8b 45 00                mov    eax, DWORD PTR [rbp+0x0]
   8cfe7:       66 48 0f 6e c2          movq   xmm0, rdx
   8cfec:       48 89 55 18             mov    QWORD PTR [rbp+0x18], rdx
   8cff0:       66 0f 6c c0             punpcklqdq xmm0, xmm0
   8cff4:       0f 11 45 08             movups XMMWORD PTR [rbp+0x8], xmm0
   8cff8:       e9 c0 fe ff ff          jmp    0x8cebd
   8cffd:       0f 1f 00                nop    DWORD PTR [rax]
   8d000:       4c 8b 65 10             mov    r12, QWORD PTR [rbp+0x10]
   8d004:       48 89 ef                mov    rdi, rbp
   8d007:       49 29 d4                sub    r12, rdx
   8d00a:       e8 31 08 00 00          call   0x8d840
   8d00f:       48 8b 55 18             mov    rdx, QWORD PTR [rbp+0x18]
   8d013:       4c 89 e6                mov    rsi, r12
   8d016:       48 f7 de                neg    rsi
   8d019:       48 89 d1                mov    rcx, rdx
   8d01c:       48 2b 4d 38             sub    rcx, QWORD PTR [rbp+0x38]
   8d020:       48 89 c8                mov    rax, rcx
   8d023:       48 f7 d8                neg    rax
   8d026:       4c 39 e1                cmp    rcx, r12
   8d029:       48 0f 47 c6             cmova  rax, rsi
   8d02d:       48 01 c2                add    rdx, rax
   8d030:       8b 45 00                mov    eax, DWORD PTR [rbp+0x0]
   8d033:       e9 8e fe ff ff          jmp    0x8cec6
   8d038:       0f 1f 84 00 00 00 00 00         nop    DWORD PTR [rax+rax*1+0x0]
   8d040:       83 c8 20                or     eax, 0x20
   8d043:       89 07                   mov    DWORD PTR [rdi], eax
   8d045:       48 8b 05 c4 bd 18 00    mov    rax, QWORD PTR [rip+0x18bdc4]        # 0x218e10
   8d04c:       64 c7 00 09 00 00 00    mov    DWORD PTR fs:[rax], 0x9
   8d053:       b8 ff ff ff ff          mov    eax, 0xffffffff
   8d058:       e9 49 fe ff ff          jmp    0x8cea6
================
_IO_file_overflow 0x8ce40
   8ce40:       f3 0f 1e fa             endbr64 
   8ce44:       41 54                   push   r12
   8ce46:       55                      push   rbp
   8ce47:       48 89 fd                mov    rbp, rdi
   8ce4a:       53                      push   rbx
   8ce4b:       8b 07                   mov    eax, DWORD PTR [rdi]
   8ce4d:       a8 08                   test   al, 0x8
   8ce4f:       0f 85 eb 01 00 00       jne    0x8d040
   8ce55:       89 f3                   mov    ebx, esi
   8ce57:       48 8b 77 20             mov    rsi, QWORD PTR [rdi+0x20]
   8ce5b:       f6 c4 08                test   ah, 0x8
   8ce5e:       74 50                   je     0x8ceb0
   8ce60:       48 85 f6                test   rsi, rsi
   8ce63:       0f 84 6f 01 00 00       je     0x8cfd8
   8ce69:       48 8b 57 28             mov    rdx, QWORD PTR [rdi+0x28]
   8ce6d:       83 fb ff                cmp    ebx, 0xffffffff
   8ce70:       0f 84 a6 00 00 00       je     0x8cf1c
   8ce76:       48 39 55 40             cmp    QWORD PTR [rbp+0x40], rdx
   8ce7a:       0f 84 e0 00 00 00       je     0x8cf60
   8ce80:       48 8d 42 01             lea    rax, [rdx+0x1]
   8ce84:       48 89 45 28             mov    QWORD PTR [rbp+0x28], rax
   8ce88:       88 1a                   mov    BYTE PTR [rdx], bl
   8ce8a:       8b 45 00                mov    eax, DWORD PTR [rbp+0x0]
   8ce8d:       a8 02                   test   al, 0x2
   8ce8f:       0f 85 9b 00 00 00       jne    0x8cf30
   8ce95:       f6 c4 02                test   ah, 0x2
   8ce98:       74 09                   je     0x8cea3
   8ce9a:       83 fb 0a                cmp    ebx, 0xa
   8ce9d:       0f 84 8d 00 00 00       je     0x8cf30
   8cea3:       0f b6 c3                movzx  eax, bl
   8cea6:       5b                      pop    rbx
   8cea7:       5d                      pop    rbp
   8cea8:       41 5c                   pop    r12
   8ceaa:       c3                      ret    
   8ceab:       0f 1f 44 00 00          nop    DWORD PTR [rax+rax*1+0x0]
   8ceb0:       48 85 f6                test   rsi, rsi
   8ceb3:       0f 84 1f 01 00 00       je     0x8cfd8
   8ceb9:       48 8b 57 08             mov    rdx, QWORD PTR [rdi+0x8]
   8cebd:       f6 c4 01                test   ah, 0x1
   8cec0:       0f 85 3a 01 00 00       jne    0x8d000
   8cec6:       48 8b 75 40             mov    rsi, QWORD PTR [rbp+0x40]
   8ceca:       48 39 d6                cmp    rsi, rdx
   8cecd:       0f 84 cd 00 00 00       je     0x8cfa0
   8ced3:       48 8b 4d 10             mov    rcx, QWORD PTR [rbp+0x10]
   8ced7:       48 89 4d 08             mov    QWORD PTR [rbp+0x8], rcx
   8cedb:       48 89 4d 18             mov    QWORD PTR [rbp+0x18], rcx
   8cedf:       89 c1                   mov    ecx, eax
   8cee1:       80 cd 08                or     ch, 0x8
   8cee4:       48 89 75 30             mov    QWORD PTR [rbp+0x30], rsi
   8cee8:       48 89 d6                mov    rsi, rdx
   8ceeb:       89 4d 00                mov    DWORD PTR [rbp+0x0], ecx
   8ceee:       8b 8d c0 00 00 00       mov    ecx, DWORD PTR [rbp+0xc0]
   8cef4:       48 89 55 28             mov    QWORD PTR [rbp+0x28], rdx
   8cef8:       48 89 55 20             mov    QWORD PTR [rbp+0x20], rdx
   8cefc:       85 c9                   test   ecx, ecx
   8cefe:       0f 8f 69 ff ff ff       jg     0x8ce6d
   8cf04:       a9 02 02 00 00          test   eax, 0x202
   8cf09:       0f 84 5e ff ff ff       je     0x8ce6d
   8cf0f:       48 89 55 30             mov    QWORD PTR [rbp+0x30], rdx
   8cf13:       83 fb ff                cmp    ebx, 0xffffffff
   8cf16:       0f 85 5a ff ff ff       jne    0x8ce76
   8cf1c:       5b                      pop    rbx
   8cf1d:       48 89 ef                mov    rdi, rbp
   8cf20:       48 29 f2                sub    rdx, rsi
   8cf23:       5d                      pop    rbp
   8cf24:       41 5c                   pop    r12
   8cf26:       e9 85 fa ff ff          jmp    0x8c9b0
   8cf2b:       0f 1f 44 00 00          nop    DWORD PTR [rax+rax*1+0x0]
   8cf30:       48 8b 75 20             mov    rsi, QWORD PTR [rbp+0x20]
   8cf34:       48 8b 55 28             mov    rdx, QWORD PTR [rbp+0x28]
   8cf38:       48 89 ef                mov    rdi, rbp
   8cf3b:       48 29 f2                sub    rdx, rsi
   8cf3e:       e8 6d fa ff ff          call   0x8c9b0
   8cf43:       83 f8 ff                cmp    eax, 0xffffffff
   8cf46:       0f 85 57 ff ff ff       jne    0x8cea3
   8cf4c:       b8 ff ff ff ff          mov    eax, 0xffffffff
   8cf51:       e9 50 ff ff ff          jmp    0x8cea6
   8cf56:       66 2e 0f 1f 84 00 00 00 00 00   cs nop WORD PTR [rax+rax*1+0x0]
   8cf60:       8b 85 c0 00 00 00       mov    eax, DWORD PTR [rbp+0xc0]
   8cf66:       85 c0                   test   eax, eax
   8cf68:       7e 56                   jle    0x8cfc0
   8cf6a:       48 8b 85 a0 00 00 00    mov    rax, QWORD PTR [rbp+0xa0]
   8cf71:       48 89 ef                mov    rdi, rbp
   8cf74:       48 8b 70 18             mov    rsi, QWORD PTR [rax+0x18]
   8cf78:       48 8b 50 20             mov    rdx, QWORD PTR [rax+0x20]
   8cf7c:       48 29 f2                sub    rdx, rsi
   8cf7f:       48 c1 fa 02             sar    rdx, 0x2
   8cf83:       e8 98 92 ff ff          call   0x86220
   8cf88:       83 f8 ff                cmp    eax, 0xffffffff
   8cf8b:       74 bf                   je     0x8cf4c
   8cf8d:       48 8b 55 28             mov    rdx, QWORD PTR [rbp+0x28]
   8cf91:       e9 ea fe ff ff          jmp    0x8ce80
   8cf96:       66 2e 0f 1f 84 00 00 00 00 00   cs nop WORD PTR [rax+rax*1+0x0]
   8cfa0:       48 8b 55 38             mov    rdx, QWORD PTR [rbp+0x38]
   8cfa4:       66 48 0f 6e c2          movq   xmm0, rdx
   8cfa9:       48 89 d1                mov    rcx, rdx
   8cfac:       66 0f 6c c0             punpcklqdq xmm0, xmm0
   8cfb0:       0f 11 45 08             movups XMMWORD PTR [rbp+0x8], xmm0
   8cfb4:       e9 1e ff ff ff          jmp    0x8ced7
   8cfb9:       0f 1f 80 00 00 00 00    nop    DWORD PTR [rax+0x0]
   8cfc0:       48 29 f2                sub    rdx, rsi
   8cfc3:       48 89 ef                mov    rdi, rbp
   8cfc6:       e8 e5 f9 ff ff          call   0x8c9b0
   8cfcb:       83 f8 ff                cmp    eax, 0xffffffff
   8cfce:       75 bd                   jne    0x8cf8d
   8cfd0:       e9 77 ff ff ff          jmp    0x8cf4c
   8cfd5:       0f 1f 00                nop    DWORD PTR [rax]
   8cfd8:       48 89 ef                mov    rdi, rbp
   8cfdb:       e8 30 0d 00 00          call   0x8dd10
   8cfe0:       48 8b 55 38             mov    rdx, QWORD PTR [rbp+0x38]
   8cfe4:       8b 45 00                mov    eax, DWORD PTR [rbp+0x0]
   8cfe7:       66 48 0f 6e c2          movq   xmm0, rdx
   8cfec:       48 89 55 18             mov    QWORD PTR [rbp+0x18], rdx
   8cff0:       66 0f 6c c0             punpcklqdq xmm0, xmm0
   8cff4:       0f 11 45 08             movups XMMWORD PTR [rbp+0x8], xmm0
   8cff8:       e9 c0 fe ff ff          jmp    0x8cebd
   8cffd:       0f 1f 00                nop    DWORD PTR [rax]
   8d000:       4c 8b 65 10             mov    r12, QWORD PTR [rbp+0x10]
   8d004:       48 89 ef                mov    rdi, rbp
   8d007:       49 29 d4                sub    r12, rdx
   8d00a:       e8 31 08 00 00          call   0x8d840
   8d00f:       48 8b 55 18             mov    rdx, QWORD PTR [rbp+0x18]
   8d013:       4c 89 e6                mov    rsi, r12
   8d016:       48 f7 de                neg    rsi
   8d019:       48 89 d1                mov    rcx, rdx
   8d01c:       48 2b 4d 38             sub    rcx, QWORD PTR [rbp+0x38]
   8d020:       48 89 c8                mov    rax, rcx
   8d023:       48 f7 d8                neg    rax
   8d026:       4c 39 e1                cmp    rcx, r12
   8d029:       48 0f 47 c6             cmova  rax, rsi
   8d02d:       48 01 c2                add    rdx, rax
   8d030:       8b 45 00                mov    eax, DWORD PTR [rbp+0x0]
   8d033:       e9 8e fe ff ff          jmp    0x8cec6
   8d038:       0f 1f 84 00 00 00 00 00         nop    DWORD PTR [rax+rax*1+0x0]
   8d040:       83 c8 20                or     eax, 0x20
   8d043:       89 07                   mov    DWORD PTR [rdi], eax
   8d045:       48 8b 05 c4 bd 18 00    mov    rax, QWORD PTR [rip+0x18bdc4]        # 0x218e10
   8d04c:       64 c7 00 09 00 00 00    mov    DWORD PTR fs:[rax], 0x9
   8d053:       b8 ff ff ff ff          mov    eax, 0xffffffff
   8d058:       e9 49 fe ff ff          jmp    0x8cea6
================
_IO_helper_overflow 0x722e0
   722e0:       f3 0f 1e fa             endbr64 
   722e4:       41 55                   push   r13
   722e6:       41 54                   push   r12
   722e8:       55                      push   rbp
   722e9:       48 89 fd                mov    rbp, rdi
   722ec:       53                      push   rbx
   722ed:       89 f3                   mov    ebx, esi
   722ef:       48 83 ec 18             sub    rsp, 0x18
   722f3:       48 8b 4d 28             mov    rcx, QWORD PTR [rbp+0x28]
   722f7:       48 8b 75 20             mov    rsi, QWORD PTR [rbp+0x20]
   722fb:       48 8b bf e0 00 00 00    mov    rdi, QWORD PTR [rdi+0xe0]
   72302:       49 89 cc                mov    r12, rcx
   72305:       49 29 f4                sub    r12, rsi
   72308:       39 f1                   cmp    ecx, esi
   7230a:       74 58                   je     0x72364
   7230c:       4c 8b af d8 00 00 00    mov    r13, QWORD PTR [rdi+0xd8]
   72313:       48 8d 15 e6 36 1a 00    lea    rdx, [rip+0x1a36e6]        # 0x215a00
   7231a:       48 8d 05 47 44 1a 00    lea    rax, [rip+0x1a4447]        # 0x216768
   72321:       48 29 d0                sub    rax, rdx
   72324:       4c 89 e9                mov    rcx, r13
   72327:       48 29 d1                sub    rcx, rdx
   7232a:       48 39 c8                cmp    rax, rcx
   7232d:       76 59                   jbe    0x72388
   7232f:       4d 63 e4                movsxd r12, r12d
   72332:       4c 89 e2                mov    rdx, r12
   72335:       41 ff 55 38             call   QWORD PTR [r13+0x38]
   72339:       49 89 c5                mov    r13, rax
   7233c:       48 8d 40 ff             lea    rax, [rax-0x1]
   72340:       48 83 f8 fd             cmp    rax, 0xfffffffffffffffd
   72344:       77 72                   ja     0x723b8
   72346:       48 8b 7d 20             mov    rdi, QWORD PTR [rbp+0x20]
   7234a:       4c 89 e2                mov    rdx, r12
   7234d:       4c 29 ea                sub    rdx, r13
   72350:       4a 8d 34 2f             lea    rsi, [rdi+r13*1]
   72354:       e8 d7 60 fb ff          call   0x28430
   72359:       48 8b 4d 28             mov    rcx, QWORD PTR [rbp+0x28]
   7235d:       4c 29 e9                sub    rcx, r13
   72360:       48 89 4d 28             mov    QWORD PTR [rbp+0x28], rcx
   72364:       0f b6 c3                movzx  eax, bl
   72367:       48 39 4d 30             cmp    QWORD PTR [rbp+0x30], rcx
   7236b:       76 33                   jbe    0x723a0
   7236d:       48 8d 51 01             lea    rdx, [rcx+0x1]
   72371:       48 89 55 28             mov    QWORD PTR [rbp+0x28], rdx
   72375:       88 19                   mov    BYTE PTR [rcx], bl
   72377:       48 83 c4 18             add    rsp, 0x18
   7237b:       5b                      pop    rbx
   7237c:       5d                      pop    rbp
   7237d:       41 5c                   pop    r12
   7237f:       41 5d                   pop    r13
   72381:       c3                      ret    
   72382:       66 0f 1f 44 00 00       nop    WORD PTR [rax+rax*1+0x0]
   72388:       48 89 7c 24 08          mov    QWORD PTR [rsp+0x8], rdi
   7238d:       e8 de 7b 01 00          call   0x89f70
   72392:       48 8b 75 20             mov    rsi, QWORD PTR [rbp+0x20]
   72396:       48 8b 7c 24 08          mov    rdi, QWORD PTR [rsp+0x8]
   7239b:       eb 92                   jmp    0x7232f
   7239d:       0f 1f 00                nop    DWORD PTR [rax]
   723a0:       48 83 c4 18             add    rsp, 0x18
   723a4:       48 89 ef                mov    rdi, rbp
   723a7:       89 c6                   mov    esi, eax
   723a9:       5b                      pop    rbx
   723aa:       5d                      pop    rbp
   723ab:       41 5c                   pop    r12
   723ad:       41 5d                   pop    r13
   723af:       e9 cc b4 01 00          jmp    0x8d880
   723b4:       0f 1f 40 00             nop    DWORD PTR [rax+0x0]
   723b8:       b8 ff ff ff ff          mov    eax, 0xffffffff
   723bd:       eb b8                   jmp    0x72377
================
_IO_helper_overflow 0x77860
   77860:       f3 0f 1e fa             endbr64 
   77864:       41 55                   push   r13
   77866:       41 54                   push   r12
   77868:       49 89 fc                mov    r12, rdi
   7786b:       55                      push   rbp
   7786c:       89 f5                   mov    ebp, esi
   7786e:       53                      push   rbx
   7786f:       48 83 ec 18             sub    rsp, 0x18
   77873:       49 8b 84 24 a0 00 00 00         mov    rax, QWORD PTR [r12+0xa0]
   7787b:       48 8b bf c8 01 00 00    mov    rdi, QWORD PTR [rdi+0x1c8]
   77882:       48 8b 50 20             mov    rdx, QWORD PTR [rax+0x20]
   77886:       48 8b 70 18             mov    rsi, QWORD PTR [rax+0x18]
   7788a:       48 89 d3                mov    rbx, rdx
   7788d:       48 29 f3                sub    rbx, rsi
   77890:       48 c1 fb 02             sar    rbx, 0x2
   77894:       85 db                   test   ebx, ebx
   77896:       74 7a                   je     0x77912
   77898:       4c 8b af d8 00 00 00    mov    r13, QWORD PTR [rdi+0xd8]
   7789f:       48 8d 15 5a e1 19 00    lea    rdx, [rip+0x19e15a]        # 0x215a00
   778a6:       48 8d 05 bb ee 19 00    lea    rax, [rip+0x19eebb]        # 0x216768
   778ad:       48 29 d0                sub    rax, rdx
   778b0:       4c 89 e9                mov    rcx, r13
   778b3:       48 29 d1                sub    rcx, rdx
   778b6:       48 39 c8                cmp    rax, rcx
   778b9:       76 75                   jbe    0x77930
   778bb:       48 63 db                movsxd rbx, ebx
   778be:       48 89 da                mov    rdx, rbx
   778c1:       41 ff 55 38             call   QWORD PTR [r13+0x38]
   778c5:       48 85 c0                test   rax, rax
   778c8:       0f 84 9a 00 00 00       je     0x77968
   778ce:       ba ff ff ff ff          mov    edx, 0xffffffff
   778d3:       48 39 d0                cmp    rax, rdx
   778d6:       0f 84 8c 00 00 00       je     0x77968
   778dc:       49 8b 94 24 a0 00 00 00         mov    rdx, QWORD PTR [r12+0xa0]
   778e4:       4c 8d 2c 85 00 00 00 00         lea    r13, [rax*4+0x0]
   778ec:       48 29 c3                sub    rbx, rax
   778ef:       48 8b 7a 18             mov    rdi, QWORD PTR [rdx+0x18]
   778f3:       48 89 da                mov    rdx, rbx
   778f6:       4a 8d 34 2f             lea    rsi, [rdi+r13*1]
   778fa:       e8 71 e2 04 00          call   0xc5b70
   778ff:       49 8b 84 24 a0 00 00 00         mov    rax, QWORD PTR [r12+0xa0]
   77907:       48 8b 50 20             mov    rdx, QWORD PTR [rax+0x20]
   7790b:       4c 29 ea                sub    rdx, r13
   7790e:       48 89 50 20             mov    QWORD PTR [rax+0x20], rdx
   77912:       48 39 50 28             cmp    QWORD PTR [rax+0x28], rdx
   77916:       76 38                   jbe    0x77950
   77918:       48 8d 4a 04             lea    rcx, [rdx+0x4]
   7791c:       48 89 48 20             mov    QWORD PTR [rax+0x20], rcx
   77920:       89 e8                   mov    eax, ebp
   77922:       89 2a                   mov    DWORD PTR [rdx], ebp
   77924:       48 83 c4 18             add    rsp, 0x18
   77928:       5b                      pop    rbx
   77929:       5d                      pop    rbp
   7792a:       41 5c                   pop    r12
   7792c:       41 5d                   pop    r13
   7792e:       c3                      ret    
   7792f:       90                      nop
   77930:       48 89 7c 24 08          mov    QWORD PTR [rsp+0x8], rdi
   77935:       e8 36 26 01 00          call   0x89f70
   7793a:       49 8b 84 24 a0 00 00 00         mov    rax, QWORD PTR [r12+0xa0]
   77942:       48 8b 7c 24 08          mov    rdi, QWORD PTR [rsp+0x8]
   77947:       48 8b 70 18             mov    rsi, QWORD PTR [rax+0x18]
   7794b:       e9 6b ff ff ff          jmp    0x778bb
   77950:       48 83 c4 18             add    rsp, 0x18
   77954:       89 ee                   mov    esi, ebp
   77956:       4c 89 e7                mov    rdi, r12
   77959:       5b                      pop    rbx
   7795a:       5d                      pop    rbp
   7795b:       41 5c                   pop    r12
   7795d:       41 5d                   pop    r13
   7795f:       e9 cc bf 00 00          jmp    0x83930
   77964:       0f 1f 40 00             nop    DWORD PTR [rax+0x0]
   77968:       b8 ff ff ff ff          mov    eax, 0xffffffff
   7796d:       eb b5                   jmp    0x77924
================
_IO_file_finish 0x8c070
   8c070:       f3 0f 1e fa             endbr64 
   8c074:       55                      push   rbp
   8c075:       48 89 fd                mov    rbp, rdi
   8c078:       53                      push   rbx
   8c079:       48 83 ec 08             sub    rsp, 0x8
   8c07d:       83 7f 70 ff             cmp    DWORD PTR [rdi+0x70], 0xffffffff
   8c081:       74 57                   je     0x8c0da
   8c083:       8b 87 c0 00 00 00       mov    eax, DWORD PTR [rdi+0xc0]
   8c089:       85 c0                   test   eax, eax
   8c08b:       7e 63                   jle    0x8c0f0
   8c08d:       48 8b 87 a0 00 00 00    mov    rax, QWORD PTR [rdi+0xa0]
   8c094:       48 8b 70 18             mov    rsi, QWORD PTR [rax+0x18]
   8c098:       48 8b 50 20             mov    rdx, QWORD PTR [rax+0x20]
   8c09c:       48 29 f2                sub    rdx, rsi
   8c09f:       48 c1 fa 02             sar    rdx, 0x2
   8c0a3:       e8 78 a1 ff ff          call   0x86220
   8c0a8:       f6 45 00 40             test   BYTE PTR [rbp+0x0], 0x40
   8c0ac:       75 2c                   jne    0x8c0da
   8c0ae:       48 8b 9d d8 00 00 00    mov    rbx, QWORD PTR [rbp+0xd8]
   8c0b5:       48 8d 15 44 99 18 00    lea    rdx, [rip+0x189944]        # 0x215a00
   8c0bc:       48 8d 05 a5 a6 18 00    lea    rax, [rip+0x18a6a5]        # 0x216768
   8c0c3:       48 29 d0                sub    rax, rdx
   8c0c6:       48 89 d9                mov    rcx, rbx
   8c0c9:       48 29 d1                sub    rcx, rdx
   8c0cc:       48 39 c8                cmp    rax, rcx
   8c0cf:       76 37                   jbe    0x8c108
   8c0d1:       48 89 ef                mov    rdi, rbp
   8c0d4:       ff 93 88 00 00 00       call   QWORD PTR [rbx+0x88]
   8c0da:       48 83 c4 08             add    rsp, 0x8
   8c0de:       48 89 ef                mov    rdi, rbp
   8c0e1:       31 f6                   xor    esi, esi
   8c0e3:       5b                      pop    rbx
   8c0e4:       5d                      pop    rbp
   8c0e5:       e9 c6 26 00 00          jmp    0x8e7b0
   8c0ea:       66 0f 1f 44 00 00       nop    WORD PTR [rax+rax*1+0x0]
   8c0f0:       48 8b 77 20             mov    rsi, QWORD PTR [rdi+0x20]
   8c0f4:       48 8b 57 28             mov    rdx, QWORD PTR [rdi+0x28]
   8c0f8:       48 29 f2                sub    rdx, rsi
   8c0fb:       e8 b0 08 00 00          call   0x8c9b0
   8c100:       eb a6                   jmp    0x8c0a8
   8c102:       66 0f 1f 44 00 00       nop    WORD PTR [rax+rax*1+0x0]
   8c108:       e8 63 de ff ff          call   0x89f70
   8c10d:       eb c2                   jmp    0x8c0d1
================
_IO_file_finish 0x8c070
   8c070:       f3 0f 1e fa             endbr64 
   8c074:       55                      push   rbp
   8c075:       48 89 fd                mov    rbp, rdi
   8c078:       53                      push   rbx
   8c079:       48 83 ec 08             sub    rsp, 0x8
   8c07d:       83 7f 70 ff             cmp    DWORD PTR [rdi+0x70], 0xffffffff
   8c081:       74 57                   je     0x8c0da
   8c083:       8b 87 c0 00 00 00       mov    eax, DWORD PTR [rdi+0xc0]
   8c089:       85 c0                   test   eax, eax
   8c08b:       7e 63                   jle    0x8c0f0
   8c08d:       48 8b 87 a0 00 00 00    mov    rax, QWORD PTR [rdi+0xa0]
   8c094:       48 8b 70 18             mov    rsi, QWORD PTR [rax+0x18]
   8c098:       48 8b 50 20             mov    rdx, QWORD PTR [rax+0x20]
   8c09c:       48 29 f2                sub    rdx, rsi
   8c09f:       48 c1 fa 02             sar    rdx, 0x2
   8c0a3:       e8 78 a1 ff ff          call   0x86220
   8c0a8:       f6 45 00 40             test   BYTE PTR [rbp+0x0], 0x40
   8c0ac:       75 2c                   jne    0x8c0da
   8c0ae:       48 8b 9d d8 00 00 00    mov    rbx, QWORD PTR [rbp+0xd8]
   8c0b5:       48 8d 15 44 99 18 00    lea    rdx, [rip+0x189944]        # 0x215a00
   8c0bc:       48 8d 05 a5 a6 18 00    lea    rax, [rip+0x18a6a5]        # 0x216768
   8c0c3:       48 29 d0                sub    rax, rdx
   8c0c6:       48 89 d9                mov    rcx, rbx
   8c0c9:       48 29 d1                sub    rcx, rdx
   8c0cc:       48 39 c8                cmp    rax, rcx
   8c0cf:       76 37                   jbe    0x8c108
   8c0d1:       48 89 ef                mov    rdi, rbp
   8c0d4:       ff 93 88 00 00 00       call   QWORD PTR [rbx+0x88]
   8c0da:       48 83 c4 08             add    rsp, 0x8
   8c0de:       48 89 ef                mov    rdi, rbp
   8c0e1:       31 f6                   xor    esi, esi
   8c0e3:       5b                      pop    rbx
   8c0e4:       5d                      pop    rbp
   8c0e5:       e9 c6 26 00 00          jmp    0x8e7b0
   8c0ea:       66 0f 1f 44 00 00       nop    WORD PTR [rax+rax*1+0x0]
   8c0f0:       48 8b 77 20             mov    rsi, QWORD PTR [rdi+0x20]
   8c0f4:       48 8b 57 28             mov    rdx, QWORD PTR [rdi+0x28]
   8c0f8:       48 29 f2                sub    rdx, rsi
   8c0fb:       e8 b0 08 00 00          call   0x8c9b0
   8c100:       eb a6                   jmp    0x8c0a8
   8c102:       66 0f 1f 44 00 00       nop    WORD PTR [rax+rax*1+0x0]
   8c108:       e8 63 de ff ff          call   0x89f70
   8c10d:       eb c2                   jmp    0x8c0d1
================
_IO_file_close_mmap 0x8a6c0
   8a6c0:       f3 0f 1e fa             endbr64 
   8a6c4:       53                      push   rbx
   8a6c5:       48 89 fb                mov    rbx, rdi
   8a6c8:       48 8b 7f 38             mov    rdi, QWORD PTR [rdi+0x38]
   8a6cc:       48 8b 73 40             mov    rsi, QWORD PTR [rbx+0x40]
   8a6d0:       48 29 fe                sub    rsi, rdi
   8a6d3:       e8 48 45 09 00          call   0x11ec20
   8a6d8:       8b 7b 70                mov    edi, DWORD PTR [rbx+0x70]
   8a6db:       66 0f ef c0             pxor   xmm0, xmm0
   8a6df:       0f 11 43 38             movups XMMWORD PTR [rbx+0x38], xmm0
   8a6e3:       5b                      pop    rbx
   8a6e4:       e9 27 f3 08 00          jmp    0x119a10
================
_IO_wfile_underflow_mmap 0x860b0
   860b0:       f3 0f 1e fa             endbr64 
   860b4:       55                      push   rbp
   860b5:       53                      push   rbx
   860b6:       48 89 fb                mov    rbx, rdi
   860b9:       48 83 ec 18             sub    rsp, 0x18
   860bd:       64 48 8b 04 25 28 00 00 00      mov    rax, QWORD PTR fs:0x28
   860c6:       48 89 44 24 08          mov    QWORD PTR [rsp+0x8], rax
   860cb:       8b 07                   mov    eax, DWORD PTR [rdi]
   860cd:       a8 04                   test   al, 0x4
   860cf:       0f 85 1b 01 00 00       jne    0x861f0
   860d5:       48 8b 87 a0 00 00 00    mov    rax, QWORD PTR [rdi+0xa0]
   860dc:       48 8b 10                mov    rdx, QWORD PTR [rax]
   860df:       48 3b 50 08             cmp    rdx, QWORD PTR [rax+0x8]
   860e3:       0f 82 87 00 00 00       jb     0x86170
   860e9:       48 8b af 98 00 00 00    mov    rbp, QWORD PTR [rdi+0x98]
   860f0:       48 8b 57 08             mov    rdx, QWORD PTR [rdi+0x8]
   860f4:       48 3b 57 10             cmp    rdx, QWORD PTR [rdi+0x10]
   860f8:       0f 83 92 00 00 00       jae    0x86190
   860fe:       4c 8b 48 30             mov    r9, QWORD PTR [rax+0x30]
   86102:       48 89 14 24             mov    QWORD PTR [rsp], rdx
   86106:       4d 85 c9                test   r9, r9
   86109:       0f 84 a7 00 00 00       je     0x861b6
   8610f:       48 8b 48 58             mov    rcx, QWORD PTR [rax+0x58]
   86113:       48 8d 78 08             lea    rdi, [rax+0x8]
   86117:       4c 89 08                mov    QWORD PTR [rax], r9
   8611a:       48 8d 70 58             lea    rsi, [rax+0x58]
   8611e:       4c 89 48 10             mov    QWORD PTR [rax+0x10], r9
   86122:       48 89 48 60             mov    QWORD PTR [rax+0x60], rcx
   86126:       48 8b 4b 10             mov    rcx, QWORD PTR [rbx+0x10]
   8612a:       57                      push   rdi
   8612b:       48 89 ef                mov    rdi, rbp
   8612e:       ff 70 38                push   QWORD PTR [rax+0x38]
   86131:       4c 8d 44 24 10          lea    r8, [rsp+0x10]
   86136:       e8 45 0c 00 00          call   0x86d80
   8613b:       48 8b 44 24 10          mov    rax, QWORD PTR [rsp+0x10]
   86140:       59                      pop    rcx
   86141:       5e                      pop    rsi
   86142:       48 89 43 08             mov    QWORD PTR [rbx+0x8], rax
   86146:       48 8b 83 a0 00 00 00    mov    rax, QWORD PTR [rbx+0xa0]
   8614d:       48 8b 10                mov    rdx, QWORD PTR [rax]
   86150:       48 3b 50 08             cmp    rdx, QWORD PTR [rax+0x8]
   86154:       72 1a                   jb     0x86170
   86156:       48 8b 05 b3 2c 19 00    mov    rax, QWORD PTR [rip+0x192cb3]        # 0x218e10
   8615d:       64 c7 00 54 00 00 00    mov    DWORD PTR fs:[rax], 0x54
   86164:       b8 ff ff ff ff          mov    eax, 0xffffffff
   86169:       83 0b 20                or     DWORD PTR [rbx], 0x20
   8616c:       eb 04                   jmp    0x86172
   8616e:       66 90                   xchg   ax, ax
   86170:       8b 02                   mov    eax, DWORD PTR [rdx]
   86172:       48 8b 54 24 08          mov    rdx, QWORD PTR [rsp+0x8]
   86177:       64 48 2b 14 25 28 00 00 00      sub    rdx, QWORD PTR fs:0x28
   86180:       0f 85 94 00 00 00       jne    0x8621a
   86186:       48 83 c4 18             add    rsp, 0x18
   8618a:       5b                      pop    rbx
   8618b:       5d                      pop    rbp
   8618c:       c3                      ret    
   8618d:       0f 1f 00                nop    DWORD PTR [rax]
   86190:       e8 3b 5a 00 00          call   0x8bbd0
   86195:       83 f8 ff                cmp    eax, 0xffffffff
   86198:       74 76                   je     0x86210
   8619a:       48 8b 83 a0 00 00 00    mov    rax, QWORD PTR [rbx+0xa0]
   861a1:       48 8b 53 08             mov    rdx, QWORD PTR [rbx+0x8]
   861a5:       4c 8b 48 30             mov    r9, QWORD PTR [rax+0x30]
   861a9:       48 89 14 24             mov    QWORD PTR [rsp], rdx
   861ad:       4d 85 c9                test   r9, r9
   861b0:       0f 85 59 ff ff ff       jne    0x8610f
   861b6:       48 8b 78 40             mov    rdi, QWORD PTR [rax+0x40]
   861ba:       48 85 ff                test   rdi, rdi
   861bd:       74 0b                   je     0x861ca
   861bf:       e8 ac 21 fa ff          call   0x28370
   861c4:       81 23 ff fe ff ff       and    DWORD PTR [rbx], 0xfffffeff
   861ca:       48 89 df                mov    rdi, rbx
   861cd:       e8 1e da ff ff          call   0x83bf0
   861d2:       48 8b 83 a0 00 00 00    mov    rax, QWORD PTR [rbx+0xa0]
   861d9:       48 8b 53 08             mov    rdx, QWORD PTR [rbx+0x8]
   861dd:       4c 8b 48 30             mov    r9, QWORD PTR [rax+0x30]
   861e1:       e9 29 ff ff ff          jmp    0x8610f
   861e6:       66 2e 0f 1f 84 00 00 00 00 00   cs nop WORD PTR [rax+rax*1+0x0]
   861f0:       83 c8 20                or     eax, 0x20
   861f3:       89 07                   mov    DWORD PTR [rdi], eax
   861f5:       48 8b 05 14 2c 19 00    mov    rax, QWORD PTR [rip+0x192c14]        # 0x218e10
   861fc:       64 c7 00 09 00 00 00    mov    DWORD PTR fs:[rax], 0x9
   86203:       b8 ff ff ff ff          mov    eax, 0xffffffff
   86208:       e9 65 ff ff ff          jmp    0x86172
   8620d:       0f 1f 00                nop    DWORD PTR [rax]
   86210:       b8 ff ff ff ff          mov    eax, 0xffffffff
   86215:       e9 58 ff ff ff          jmp    0x86172
   8621a:       e8 01 05 0b 00          call   0x136720
================
_IO_default_sync 0x8e7a0
   8e7a0:       f3 0f 1e fa             endbr64 
   8e7a4:       31 c0                   xor    eax, eax
   8e7a6:       c3                      ret
================
_IO_wstr_underflow 0x84750
   84750:       f3 0f 1e fa             endbr64 
   84754:       48 8b 97 a0 00 00 00    mov    rdx, QWORD PTR [rdi+0xa0]
   8475b:       48 8b 42 20             mov    rax, QWORD PTR [rdx+0x20]
   8475f:       48 8b 4a 08             mov    rcx, QWORD PTR [rdx+0x8]
   84763:       48 39 c8                cmp    rax, rcx
   84766:       76 07                   jbe    0x8476f
   84768:       48 89 42 08             mov    QWORD PTR [rdx+0x8], rax
   8476c:       48 89 c1                mov    rcx, rax
   8476f:       8b 37                   mov    esi, DWORD PTR [rdi]
   84771:       41 89 f0                mov    r8d, esi
   84774:       41 81 e0 00 0c 00 00    and    r8d, 0xc00
   8477b:       41 81 f8 00 0c 00 00    cmp    r8d, 0xc00
   84782:       74 1c                   je     0x847a0
   84784:       48 8b 02                mov    rax, QWORD PTR [rdx]
   84787:       41 b8 ff ff ff ff       mov    r8d, 0xffffffff
   8478d:       48 39 c8                cmp    rax, rcx
   84790:       73 03                   jae    0x84795
   84792:       44 8b 00                mov    r8d, DWORD PTR [rax]
   84795:       44 89 c0                mov    eax, r8d
   84798:       c3                      ret    
   84799:       0f 1f 80 00 00 00 00    nop    DWORD PTR [rax+0x0]
   847a0:       81 e6 ff f7 ff ff       and    esi, 0xfffff7ff
   847a6:       89 37                   mov    DWORD PTR [rdi], esi
   847a8:       48 8b 72 28             mov    rsi, QWORD PTR [rdx+0x28]
   847ac:       48 89 02                mov    QWORD PTR [rdx], rax
   847af:       48 89 72 20             mov    QWORD PTR [rdx+0x20], rsi
   847b3:       eb d2                   jmp    0x84787
================
_IO_default_underflow 0x8ddd0
   8ddd0:       f3 0f 1e fa             endbr64 
   8ddd4:       b8 ff ff ff ff          mov    eax, 0xffffffff
   8ddd9:       c3                      ret
================
_IO_default_uflow 0x8dde0
   8dde0:       f3 0f 1e fa             endbr64 
   8dde4:       55                      push   rbp
   8dde5:       48 8d 15 14 7c 18 00    lea    rdx, [rip+0x187c14]        # 0x215a00
   8ddec:       48 8d 05 75 89 18 00    lea    rax, [rip+0x188975]        # 0x216768
   8ddf3:       53                      push   rbx
   8ddf4:       48 29 d0                sub    rax, rdx
   8ddf7:       48 89 fb                mov    rbx, rdi
   8ddfa:       48 83 ec 08             sub    rsp, 0x8
   8ddfe:       48 8b af d8 00 00 00    mov    rbp, QWORD PTR [rdi+0xd8]
   8de05:       48 89 e9                mov    rcx, rbp
   8de08:       48 29 d1                sub    rcx, rdx
   8de0b:       48 39 c8                cmp    rax, rcx
   8de0e:       76 28                   jbe    0x8de38
   8de10:       48 89 df                mov    rdi, rbx
   8de13:       ff 55 20                call   QWORD PTR [rbp+0x20]
   8de16:       83 f8 ff                cmp    eax, 0xffffffff
   8de19:       74 0f                   je     0x8de2a
   8de1b:       48 8b 43 08             mov    rax, QWORD PTR [rbx+0x8]
   8de1f:       48 8d 50 01             lea    rdx, [rax+0x1]
   8de23:       48 89 53 08             mov    QWORD PTR [rbx+0x8], rdx
   8de27:       0f b6 00                movzx  eax, BYTE PTR [rax]
   8de2a:       48 83 c4 08             add    rsp, 0x8
   8de2e:       5b                      pop    rbx
   8de2f:       5d                      pop    rbp
   8de30:       c3                      ret    
   8de31:       0f 1f 80 00 00 00 00    nop    DWORD PTR [rax+0x0]
   8de38:       e8 33 c1 ff ff          call   0x89f70
   8de3d:       eb d1                   jmp    0x8de10
================
_IO_default_uflow 0x8dde0
   8dde0:       f3 0f 1e fa             endbr64 
   8dde4:       55                      push   rbp
   8dde5:       48 8d 15 14 7c 18 00    lea    rdx, [rip+0x187c14]        # 0x215a00
   8ddec:       48 8d 05 75 89 18 00    lea    rax, [rip+0x188975]        # 0x216768
   8ddf3:       53                      push   rbx
   8ddf4:       48 29 d0                sub    rax, rdx
   8ddf7:       48 89 fb                mov    rbx, rdi
   8ddfa:       48 83 ec 08             sub    rsp, 0x8
   8ddfe:       48 8b af d8 00 00 00    mov    rbp, QWORD PTR [rdi+0xd8]
   8de05:       48 89 e9                mov    rcx, rbp
   8de08:       48 29 d1                sub    rcx, rdx
   8de0b:       48 39 c8                cmp    rax, rcx
   8de0e:       76 28                   jbe    0x8de38
   8de10:       48 89 df                mov    rdi, rbx
   8de13:       ff 55 20                call   QWORD PTR [rbp+0x20]
   8de16:       83 f8 ff                cmp    eax, 0xffffffff
   8de19:       74 0f                   je     0x8de2a
   8de1b:       48 8b 43 08             mov    rax, QWORD PTR [rbx+0x8]
   8de1f:       48 8d 50 01             lea    rdx, [rax+0x1]
   8de23:       48 89 53 08             mov    QWORD PTR [rbx+0x8], rdx
   8de27:       0f b6 00                movzx  eax, BYTE PTR [rax]
   8de2a:       48 83 c4 08             add    rsp, 0x8
   8de2e:       5b                      pop    rbx
   8de2f:       5d                      pop    rbp
   8de30:       c3                      ret    
   8de31:       0f 1f 80 00 00 00 00    nop    DWORD PTR [rax+0x0]
   8de38:       e8 33 c1 ff ff          call   0x89f70
   8de3d:       eb d1                   jmp    0x8de10
================
_IO_cookie_read 0x7f7b0
   7f7b0:       f3 0f 1e fa             endbr64 
   7f7b4:       48 8b 87 e8 00 00 00    mov    rax, QWORD PTR [rdi+0xe8]
   7f7bb:       48 c1 c8 11             ror    rax, 0x11
   7f7bf:       64 48 33 04 25 30 00 00 00      xor    rax, QWORD PTR fs:0x30
   7f7c8:       48 85 c0                test   rax, rax
   7f7cb:       74 09                   je     0x7f7d6
   7f7cd:       48 8b bf e0 00 00 00    mov    rdi, QWORD PTR [rdi+0xe0]
   7f7d4:       ff e0                   jmp    rax
   7f7d6:       48 c7 c0 ff ff ff ff    mov    rax, 0xffffffffffffffff
   7f7dd:       c3                      ret
================
_IO_str_chk_overflow 0x81950
   81950:       f3 0f 1e fa             endbr64 
   81954:       50                      push   rax
   81955:       58                      pop    rax
   81956:       48 83 ec 08             sub    rsp, 0x8
   8195a:       e8 51 37 0b 00          call   0x1350b0
================
_IO_wfile_underflow 0x85050
   85050:       f3 0f 1e fa             endbr64 
   85054:       41 57                   push   r15
   85056:       41 56                   push   r14
   85058:       41 55                   push   r13
   8505a:       41 54                   push   r12
   8505c:       55                      push   rbp
   8505d:       53                      push   rbx
   8505e:       48 83 ec 68             sub    rsp, 0x68
   85062:       64 48 8b 04 25 28 00 00 00      mov    rax, QWORD PTR fs:0x28
   8506b:       48 89 44 24 58          mov    QWORD PTR [rsp+0x58], rax
   85070:       8b 07                   mov    eax, DWORD PTR [rdi]
   85072:       a8 10                   test   al, 0x10
   85074:       0f 85 8f 01 00 00       jne    0x85209
   8507a:       48 89 fb                mov    rbx, rdi
   8507d:       a8 04                   test   al, 0x4
   8507f:       0f 85 d3 05 00 00       jne    0x85658
   85085:       48 8b 87 a0 00 00 00    mov    rax, QWORD PTR [rdi+0xa0]
   8508c:       48 8b 10                mov    rdx, QWORD PTR [rax]
   8508f:       48 3b 50 08             cmp    rdx, QWORD PTR [rax+0x8]
   85093:       0f 82 2f 01 00 00       jb     0x851c8
   85099:       48 8b 57 08             mov    rdx, QWORD PTR [rdi+0x8]
   8509d:       48 8b 4f 10             mov    rcx, QWORD PTR [rdi+0x10]
   850a1:       4c 8b b7 98 00 00 00    mov    r14, QWORD PTR [rdi+0x98]
   850a8:       48 39 ca                cmp    rdx, rcx
   850ab:       0f 82 4f 04 00 00       jb     0x85500
   850b1:       48 8b 47 38             mov    rax, QWORD PTR [rdi+0x38]
   850b5:       66 48 0f 6e c0          movq   xmm0, rax
   850ba:       48 89 47 18             mov    QWORD PTR [rdi+0x18], rax
   850be:       66 0f 6c c0             punpcklqdq xmm0, xmm0
   850c2:       0f 11 47 08             movups XMMWORD PTR [rdi+0x8], xmm0
   850c6:       66 48 0f 6e c0          movq   xmm0, rax
   850cb:       66 0f 6c c0             punpcklqdq xmm0, xmm0
   850cf:       48 85 c0                test   rax, rax
   850d2:       0f 84 f0 04 00 00       je     0x855c8
   850d8:       48 89 43 30             mov    QWORD PTR [rbx+0x30], rax
   850dc:       48 8b 83 a0 00 00 00    mov    rax, QWORD PTR [rbx+0xa0]
   850e3:       0f 11 43 20             movups XMMWORD PTR [rbx+0x20], xmm0
   850e7:       48 83 78 30 00          cmp    QWORD PTR [rax+0x30], 0x0
   850ec:       0f 84 ae 04 00 00       je     0x855a0
   850f2:       f7 03 02 02 00 00       test   DWORD PTR [rbx], 0x202
   850f8:       0f 84 24 01 00 00       je     0x85222
   850fe:       48 8b 05 33 3d 19 00    mov    rax, QWORD PTR [rip+0x193d33]        # 0x218e38
   85105:       4c 8b 38                mov    r15, QWORD PTR [rax]
   85108:       41 8b 17                mov    edx, DWORD PTR [r15]
   8510b:       89 d0                   mov    eax, edx
   8510d:       25 00 80 00 00          and    eax, 0x8000
   85112:       0f 85 f8 00 00 00       jne    0x85210
   85118:       64 48 8b 2c 25 10 00 00 00      mov    rbp, QWORD PTR fs:0x10
   85121:       49 8b bf 88 00 00 00    mov    rdi, QWORD PTR [r15+0x88]
   85128:       48 39 6f 08             cmp    QWORD PTR [rdi+0x8], rbp
   8512c:       0f 84 46 05 00 00       je     0x85678
   85132:       ba 01 00 00 00          mov    edx, 0x1
   85137:       f0 0f b1 17             lock cmpxchg DWORD PTR [rdi], edx
   8513b:       0f 85 57 05 00 00       jne    0x85698
   85141:       48 8b 05 f0 3c 19 00    mov    rax, QWORD PTR [rip+0x193cf0]        # 0x218e38
   85148:       49 8b bf 88 00 00 00    mov    rdi, QWORD PTR [r15+0x88]
   8514f:       4c 8b 00                mov    r8, QWORD PTR [rax]
   85152:       48 89 6f 08             mov    QWORD PTR [rdi+0x8], rbp
   85156:       41 8b 10                mov    edx, DWORD PTR [r8]
   85159:       81 e2 88 02 00 00       and    edx, 0x288
   8515f:       83 47 04 01             add    DWORD PTR [rdi+0x4], 0x1
   85163:       81 fa 80 02 00 00       cmp    edx, 0x280
   85169:       0f 84 9e 04 00 00       je     0x8560d
   8516f:       48 8d 05 f2 15 19 00    lea    rax, [rip+0x1915f2]        # 0x216768
   85176:       48 8d 2d 83 08 19 00    lea    rbp, [rip+0x190883]        # 0x215a00
   8517d:       48 89 04 24             mov    QWORD PTR [rsp], rax
   85181:       49 89 c4                mov    r12, rax
   85184:       49 89 ed                mov    r13, rbp
   85187:       49 29 ec                sub    r12, rbp
   8518a:       41 f7 07 00 80 00 00    test   DWORD PTR [r15], 0x8000
   85191:       0f 85 9d 00 00 00       jne    0x85234
   85197:       49 8b bf 88 00 00 00    mov    rdi, QWORD PTR [r15+0x88]
   8519e:       8b 47 04                mov    eax, DWORD PTR [rdi+0x4]
   851a1:       83 e8 01                sub    eax, 0x1
   851a4:       89 47 04                mov    DWORD PTR [rdi+0x4], eax
   851a7:       0f 85 87 00 00 00       jne    0x85234
   851ad:       48 c7 47 08 00 00 00 00         mov    QWORD PTR [rdi+0x8], 0x0
   851b5:       87 07                   xchg   DWORD PTR [rdi], eax
   851b7:       83 f8 01                cmp    eax, 0x1
   851ba:       7e 78                   jle    0x85234
   851bc:       e8 bf c1 00 00          call   0x91380
   851c1:       eb 7f                   jmp    0x85242
   851c3:       0f 1f 44 00 00          nop    DWORD PTR [rax+rax*1+0x0]
   851c8:       8b 02                   mov    eax, DWORD PTR [rdx]
   851ca:       66 0f 1f 44 00 00       nop    WORD PTR [rax+rax*1+0x0]
   851d0:       48 8b 54 24 58          mov    rdx, QWORD PTR [rsp+0x58]
   851d5:       64 48 2b 14 25 28 00 00 00      sub    rdx, QWORD PTR fs:0x28
   851de:       0f 85 dd 04 00 00       jne    0x856c1
   851e4:       48 83 c4 68             add    rsp, 0x68
   851e8:       5b                      pop    rbx
   851e9:       5d                      pop    rbp
   851ea:       41 5c                   pop    r12
   851ec:       41 5d                   pop    r13
   851ee:       41 5e                   pop    r14
   851f0:       41 5f                   pop    r15
   851f2:       c3                      ret    
   851f3:       0f 1f 44 00 00          nop    DWORD PTR [rax+rax*1+0x0]
   851f8:       48 8b 05 11 3c 19 00    mov    rax, QWORD PTR [rip+0x193c11]        # 0x218e10
   851ff:       64 c7 00 54 00 00 00    mov    DWORD PTR fs:[rax], 0x54
   85206:       83 0b 20                or     DWORD PTR [rbx], 0x20
   85209:       b8 ff ff ff ff          mov    eax, 0xffffffff
   8520e:       eb c0                   jmp    0x851d0
   85210:       81 e2 88 02 00 00       and    edx, 0x288
   85216:       81 fa 80 02 00 00       cmp    edx, 0x280
   8521c:       0f 84 e8 03 00 00       je     0x8560a
   85222:       48 8d 05 3f 15 19 00    lea    rax, [rip+0x19153f]        # 0x216768
   85229:       48 8d 2d d0 07 19 00    lea    rbp, [rip+0x1907d0]        # 0x215a00
   85230:       48 89 04 24             mov    QWORD PTR [rsp], rax
   85234:       4c 8b 24 24             mov    r12, QWORD PTR [rsp]
   85238:       4c 8d 2d c1 07 19 00    lea    r13, [rip+0x1907c1]        # 0x215a00
   8523f:       49 29 ec                sub    r12, rbp
   85242:       48 89 df                mov    rdi, rbx
   85245:       31 ed                   xor    ebp, ebp
   85247:       4c 8d 7c 24 38          lea    r15, [rsp+0x38]
   8524c:       e8 4f 85 00 00          call   0x8d7a0
   85251:       48 8b 83 a0 00 00 00    mov    rax, QWORD PTR [rbx+0xa0]
   85258:       f3 0f 7e 40 30          movq   xmm0, QWORD PTR [rax+0x30]
   8525d:       66 0f 6c c0             punpcklqdq xmm0, xmm0
   85261:       0f 11 00                movups XMMWORD PTR [rax], xmm0
   85264:       0f 11 40 10             movups XMMWORD PTR [rax+0x10], xmm0
   85268:       0f 11 40 20             movups XMMWORD PTR [rax+0x20], xmm0
   8526c:       eb 49                   jmp    0x852b7
   8526e:       66 90                   xchg   ax, ax
   85270:       48 8b 53 10             mov    rdx, QWORD PTR [rbx+0x10]
   85274:       4c 8b 43 18             mov    r8, QWORD PTR [rbx+0x18]
   85278:       48 29 f2                sub    rdx, rsi
   8527b:       4c 39 c6                cmp    rsi, r8
   8527e:       0f 87 44 02 00 00       ja     0x854c8
   85284:       4c 89 04 24             mov    QWORD PTR [rsp], r8
   85288:       48 83 fa 0f             cmp    rdx, 0xf
   8528c:       0f 87 66 ff ff ff       ja     0x851f8
   85292:       48 8d 7c 24 40          lea    rdi, [rsp+0x40]
   85297:       48 89 54 24 08          mov    QWORD PTR [rsp+0x8], rdx
   8529c:       e8 7f 33 fa ff          call   0x28620
   852a1:       48 8b 6c 24 08          mov    rbp, QWORD PTR [rsp+0x8]
   852a6:       4c 8b 04 24             mov    r8, QWORD PTR [rsp]
   852aa:       66 49 0f 6e c0          movq   xmm0, r8
   852af:       66 0f 6c c0             punpcklqdq xmm0, xmm0
   852b3:       0f 11 43 08             movups XMMWORD PTR [rbx+0x8], xmm0
   852b7:       48 8b 83 d8 00 00 00    mov    rax, QWORD PTR [rbx+0xd8]
   852be:       48 89 c2                mov    rdx, rax
   852c1:       4c 29 ea                sub    rdx, r13
   852c4:       4c 39 e2                cmp    rdx, r12
   852c7:       0f 83 43 01 00 00       jae    0x85410
   852cd:       48 8b 73 10             mov    rsi, QWORD PTR [rbx+0x10]
   852d1:       48 8b 53 40             mov    rdx, QWORD PTR [rbx+0x40]
   852d5:       48 89 df                mov    rdi, rbx
   852d8:       48 29 f2                sub    rdx, rsi
   852db:       ff 50 70                call   QWORD PTR [rax+0x70]
   852de:       48 85 c0                test   rax, rax
   852e1:       0f 8e c9 00 00 00       jle    0x853b0
   852e7:       4c 8b 5b 10             mov    r11, QWORD PTR [rbx+0x10]
   852eb:       48 8b 93 90 00 00 00    mov    rdx, QWORD PTR [rbx+0x90]
   852f2:       49 01 c3                add    r11, rax
   852f5:       4c 89 5b 10             mov    QWORD PTR [rbx+0x10], r11
   852f9:       48 83 fa ff             cmp    rdx, 0xffffffffffffffff
   852fd:       74 0a                   je     0x85309
   852ff:       48 01 c2                add    rdx, rax
   85302:       48 89 93 90 00 00 00    mov    QWORD PTR [rbx+0x90], rdx
   85309:       4c 8b 83 a0 00 00 00    mov    r8, QWORD PTR [rbx+0xa0]
   85310:       48 8b 73 08             mov    rsi, QWORD PTR [rbx+0x8]
   85314:       49 8b 50 58             mov    rdx, QWORD PTR [r8+0x58]
   85318:       49 8d 48 08             lea    rcx, [r8+0x8]
   8531c:       4d 8d 50 58             lea    r10, [r8+0x58]
   85320:       49 89 50 60             mov    QWORD PTR [r8+0x60], rdx
   85324:       48 89 73 18             mov    QWORD PTR [rbx+0x18], rsi
   85328:       48 85 ed                test   rbp, rbp
   8532b:       0f 85 f7 00 00 00       jne    0x85428
   85331:       4d 8b 48 08             mov    r9, QWORD PTR [r8+0x8]
   85335:       51                      push   rcx
   85336:       48 89 f2                mov    rdx, rsi
   85339:       4c 89 d9                mov    rcx, r11
   8533c:       41 ff 70 38             push   QWORD PTR [r8+0x38]
   85340:       4c 89 d6                mov    rsi, r10
   85343:       4d 89 f8                mov    r8, r15
   85346:       4c 89 f7                mov    rdi, r14
   85349:       e8 32 1a 00 00          call   0x86d80
   8534e:       5a                      pop    rdx
   8534f:       59                      pop    rcx
   85350:       48 8b 74 24 38          mov    rsi, QWORD PTR [rsp+0x38]
   85355:       31 ed                   xor    ebp, ebp
   85357:       49 89 f0                mov    r8, rsi
   8535a:       48 8b 93 a0 00 00 00    mov    rdx, QWORD PTR [rbx+0xa0]
   85361:       48 89 73 08             mov    QWORD PTR [rbx+0x8], rsi
   85365:       48 8b 4a 30             mov    rcx, QWORD PTR [rdx+0x30]
   85369:       48 39 4a 08             cmp    QWORD PTR [rdx+0x8], rcx
   8536d:       0f 85 8d 02 00 00       jne    0x85600
   85373:       83 f8 02                cmp    eax, 0x2
   85376:       0f 84 7c fe ff ff       je     0x851f8
   8537c:       83 f8 01                cmp    eax, 0x1
   8537f:       0f 85 1d 03 00 00       jne    0x856a2
   85385:       48 85 ed                test   rbp, rbp
   85388:       0f 84 e2 fe ff ff       je     0x85270
   8538e:       48 8d 7c 24 40          lea    rdi, [rsp+0x40]
   85393:       4c 89 c0                mov    rax, r8
   85396:       48 29 f8                sub    rax, rdi
   85399:       75 65                   jne    0x85400
   8539b:       48 83 fd 10             cmp    rbp, 0x10
   8539f:       0f 84 53 fe ff ff       je     0x851f8
   853a5:       4c 8b 43 18             mov    r8, QWORD PTR [rbx+0x18]
   853a9:       e9 fc fe ff ff          jmp    0x852aa
   853ae:       66 90                   xchg   ax, ax
   853b0:       48 09 e8                or     rax, rbp
   853b3:       8b 13                   mov    edx, DWORD PTR [rbx]
   853b5:       75 21                   jne    0x853d8
   853b7:       83 ca 10                or     edx, 0x10
   853ba:       b8 ff ff ff ff          mov    eax, 0xffffffff
   853bf:       48 c7 83 90 00 00 00 ff ff ff ff        mov    QWORD PTR [rbx+0x90], 0xffffffffffffffff
   853ca:       89 13                   mov    DWORD PTR [rbx], edx
   853cc:       e9 ff fd ff ff          jmp    0x851d0
   853d1:       0f 1f 80 00 00 00 00    nop    DWORD PTR [rax+0x0]
   853d8:       83 ca 20                or     edx, 0x20
   853db:       89 13                   mov    DWORD PTR [rbx], edx
   853dd:       48 85 ed                test   rbp, rbp
   853e0:       0f 84 23 fe ff ff       je     0x85209
   853e6:       48 8b 05 23 3a 19 00    mov    rax, QWORD PTR [rip+0x193a23]        # 0x218e10
   853ed:       64 c7 00 54 00 00 00    mov    DWORD PTR fs:[rax], 0x54
   853f4:       b8 ff ff ff ff          mov    eax, 0xffffffff
   853f9:       e9 d2 fd ff ff          jmp    0x851d0
   853fe:       66 90                   xchg   ax, ax
   85400:       48 29 c5                sub    rbp, rax
   85403:       4c 89 c6                mov    rsi, r8
   85406:       48 89 ea                mov    rdx, rbp
   85409:       e8 22 30 fa ff          call   0x28430
   8540e:       eb 8b                   jmp    0x8539b
   85410:       48 89 04 24             mov    QWORD PTR [rsp], rax
   85414:       e8 57 4b 00 00          call   0x89f70
   85419:       48 8b 04 24             mov    rax, QWORD PTR [rsp]
   8541d:       e9 ab fe ff ff          jmp    0x852cd
   85422:       66 0f 1f 44 00 00       nop    WORD PTR [rax+rax*1+0x0]
   85428:       ba 10 00 00 00          mov    edx, 0x10
   8542d:       4c 8d 5c 24 40          lea    r11, [rsp+0x40]
   85432:       4c 89 54 24 28          mov    QWORD PTR [rsp+0x28], r10
   85437:       48 29 ea                sub    rdx, rbp
   8543a:       48 89 4c 24 20          mov    QWORD PTR [rsp+0x20], rcx
   8543f:       48 39 c2                cmp    rdx, rax
   85442:       4c 89 44 24 18          mov    QWORD PTR [rsp+0x18], r8
   85447:       48 0f 47 d0             cmova  rdx, rax
   8544b:       49 8d 04 2b             lea    rax, [r11+rbp*1]
   8544f:       4c 89 5c 24 10          mov    QWORD PTR [rsp+0x10], r11
   85454:       48 89 c7                mov    rdi, rax
   85457:       48 89 04 24             mov    QWORD PTR [rsp], rax
   8545b:       48 89 54 24 08          mov    QWORD PTR [rsp+0x8], rdx
   85460:       e8 7b 2f fa ff          call   0x283e0
   85465:       4c 8b 44 24 18          mov    r8, QWORD PTR [rsp+0x18]
   8546a:       48 8b 4c 24 20          mov    rcx, QWORD PTR [rsp+0x20]
   8546f:       4c 89 f7                mov    rdi, r14
   85472:       48 8b 54 24 08          mov    rdx, QWORD PTR [rsp+0x8]
   85477:       4d 8b 48 08             mov    r9, QWORD PTR [r8+0x8]
   8547b:       51                      push   rcx
   8547c:       48 89 c1                mov    rcx, rax
   8547f:       41 ff 70 38             push   QWORD PTR [r8+0x38]
   85483:       48 01 d5                add    rbp, rdx
   85486:       48 8b 74 24 38          mov    rsi, QWORD PTR [rsp+0x38]
   8548b:       4d 89 f8                mov    r8, r15
   8548e:       48 8b 54 24 20          mov    rdx, QWORD PTR [rsp+0x20]
   85493:       e8 e8 18 00 00          call   0x86d80
   85498:       5e                      pop    rsi
   85499:       5f                      pop    rdi
   8549a:       48 85 ed                test   rbp, rbp
   8549d:       0f 84 ad fe ff ff       je     0x85350
   854a3:       4c 8b 44 24 38          mov    r8, QWORD PTR [rsp+0x38]
   854a8:       ba 00 00 00 00          mov    edx, 0x0
   854ad:       4c 89 c6                mov    rsi, r8
   854b0:       48 2b 34 24             sub    rsi, QWORD PTR [rsp]
   854b4:       48 0f 48 f2             cmovs  rsi, rdx
   854b8:       48 03 73 08             add    rsi, QWORD PTR [rbx+0x8]
   854bc:       e9 99 fe ff ff          jmp    0x8535a
   854c1:       0f 1f 80 00 00 00 00    nop    DWORD PTR [rax+0x0]
   854c8:       4c 89 c7                mov    rdi, r8
   854cb:       48 89 14 24             mov    QWORD PTR [rsp], rdx
   854cf:       e8 5c 2f fa ff          call   0x28430
   854d4:       48 8b 43 10             mov    rax, QWORD PTR [rbx+0x10]
   854d8:       48 8b 14 24             mov    rdx, QWORD PTR [rsp]
   854dc:       f3 0f 7e 43 18          movq   xmm0, QWORD PTR [rbx+0x18]
   854e1:       48 29 d0                sub    rax, rdx
   854e4:       66 48 0f 6e c8          movq   xmm1, rax
   854e9:       66 0f 6c c1             punpcklqdq xmm0, xmm1
   854ed:       0f 11 43 08             movups XMMWORD PTR [rbx+0x8], xmm0
   854f1:       e9 c1 fd ff ff          jmp    0x852b7
   854f6:       66 2e 0f 1f 84 00 00 00 00 00   cs nop WORD PTR [rax+rax*1+0x0]
   85500:       4c 8b 48 30             mov    r9, QWORD PTR [rax+0x30]
   85504:       48 8b 70 58             mov    rsi, QWORD PTR [rax+0x58]
   85508:       48 8d 78 08             lea    rdi, [rax+0x8]
   8550c:       48 89 54 24 38          mov    QWORD PTR [rsp+0x38], rdx
   85511:       48 89 70 60             mov    QWORD PTR [rax+0x60], rsi
   85515:       48 8d 70 58             lea    rsi, [rax+0x58]
   85519:       4c 89 08                mov    QWORD PTR [rax], r9
   8551c:       4c 89 48 10             mov    QWORD PTR [rax+0x10], r9
   85520:       57                      push   rdi
   85521:       4c 89 f7                mov    rdi, r14
   85524:       ff 70 38                push   QWORD PTR [rax+0x38]
   85527:       4c 8d 44 24 48          lea    r8, [rsp+0x48]
   8552c:       e8 4f 18 00 00          call   0x86d80
   85531:       48 8b 53 08             mov    rdx, QWORD PTR [rbx+0x8]
   85535:       48 8b 74 24 48          mov    rsi, QWORD PTR [rsp+0x48]
   8553a:       48 89 53 18             mov    QWORD PTR [rbx+0x18], rdx
   8553e:       48 8b 93 a0 00 00 00    mov    rdx, QWORD PTR [rbx+0xa0]
   85545:       48 89 73 08             mov    QWORD PTR [rbx+0x8], rsi
   85549:       41 58                   pop    r8
   8554b:       48 8b 0a                mov    rcx, QWORD PTR [rdx]
   8554e:       41 59                   pop    r9
   85550:       48 3b 4a 08             cmp    rcx, QWORD PTR [rdx+0x8]
   85554:       0f 82 26 01 00 00       jb     0x85680
   8555a:       83 f8 02                cmp    eax, 0x2
   8555d:       0f 84 95 fc ff ff       je     0x851f8
   85563:       48 8b 53 10             mov    rdx, QWORD PTR [rbx+0x10]
   85567:       48 8b 7b 38             mov    rdi, QWORD PTR [rbx+0x38]
   8556b:       48 29 f2                sub    rdx, rsi
   8556e:       e8 bd 2e fa ff          call   0x28430
   85573:       48 8b 43 38             mov    rax, QWORD PTR [rbx+0x38]
   85577:       48 8b 53 10             mov    rdx, QWORD PTR [rbx+0x10]
   8557b:       48 01 c2                add    rdx, rax
   8557e:       48 2b 53 08             sub    rdx, QWORD PTR [rbx+0x8]
   85582:       66 48 0f 6e c0          movq   xmm0, rax
   85587:       48 89 43 18             mov    QWORD PTR [rbx+0x18], rax
   8558b:       66 48 0f 6e d2          movq   xmm2, rdx
   85590:       66 0f 6c c2             punpcklqdq xmm0, xmm2
   85594:       0f 11 43 08             movups XMMWORD PTR [rbx+0x8], xmm0
   85598:       e9 29 fb ff ff          jmp    0x850c6
   8559d:       0f 1f 00                nop    DWORD PTR [rax]
   855a0:       48 8b 78 40             mov    rdi, QWORD PTR [rax+0x40]
   855a4:       48 85 ff                test   rdi, rdi
   855a7:       74 0b                   je     0x855b4
   855a9:       e8 c2 2d fa ff          call   0x28370
   855ae:       81 23 ff fe ff ff       and    DWORD PTR [rbx], 0xfffffeff
   855b4:       48 89 df                mov    rdi, rbx
   855b7:       e8 34 e6 ff ff          call   0x83bf0
   855bc:       e9 31 fb ff ff          jmp    0x850f2
   855c1:       0f 1f 80 00 00 00 00    nop    DWORD PTR [rax+0x0]
   855c8:       48 8b 7b 48             mov    rdi, QWORD PTR [rbx+0x48]
   855cc:       48 85 ff                test   rdi, rdi
   855cf:       74 0b                   je     0x855dc
   855d1:       e8 9a 2d fa ff          call   0x28370
   855d6:       81 23 ff fe ff ff       and    DWORD PTR [rbx], 0xfffffeff
   855dc:       48 89 df                mov    rdi, rbx
   855df:       e8 2c 87 00 00          call   0x8dd10
   855e4:       48 8b 43 38             mov    rax, QWORD PTR [rbx+0x38]
   855e8:       66 48 0f 6e c0          movq   xmm0, rax
   855ed:       48 89 43 18             mov    QWORD PTR [rbx+0x18], rax
   855f1:       66 0f 6c c0             punpcklqdq xmm0, xmm0
   855f5:       0f 11 43 08             movups XMMWORD PTR [rbx+0x8], xmm0
   855f9:       e9 da fa ff ff          jmp    0x850d8
   855fe:       66 90                   xchg   ax, ax
   85600:       48 8b 02                mov    rax, QWORD PTR [rdx]
   85603:       8b 00                   mov    eax, DWORD PTR [rax]
   85605:       e9 c6 fb ff ff          jmp    0x851d0
   8560a:       4d 89 f8                mov    r8, r15
   8560d:       49 8b 80 d8 00 00 00    mov    rax, QWORD PTR [r8+0xd8]
   85614:       48 8d 0d 4d 11 19 00    lea    rcx, [rip+0x19114d]        # 0x216768
   8561b:       48 8d 2d de 03 19 00    lea    rbp, [rip+0x1903de]        # 0x215a00
   85622:       49 89 cc                mov    r12, rcx
   85625:       48 89 0c 24             mov    QWORD PTR [rsp], rcx
   85629:       49 89 ed                mov    r13, rbp
   8562c:       48 89 44 24 08          mov    QWORD PTR [rsp+0x8], rax
   85631:       49 29 ec                sub    r12, rbp
   85634:       48 29 e8                sub    rax, rbp
   85637:       49 39 c4                cmp    r12, rax
   8563a:       76 4b                   jbe    0x85687
   8563c:       48 8b 44 24 08          mov    rax, QWORD PTR [rsp+0x8]
   85641:       be ff ff ff ff          mov    esi, 0xffffffff
   85646:       4c 89 c7                mov    rdi, r8
   85649:       ff 50 18                call   QWORD PTR [rax+0x18]
   8564c:       e9 39 fb ff ff          jmp    0x8518a
   85651:       0f 1f 80 00 00 00 00    nop    DWORD PTR [rax+0x0]
   85658:       83 c8 20                or     eax, 0x20
   8565b:       89 07                   mov    DWORD PTR [rdi], eax
   8565d:       48 8b 05 ac 37 19 00    mov    rax, QWORD PTR [rip+0x1937ac]        # 0x218e10
   85664:       64 c7 00 09 00 00 00    mov    DWORD PTR fs:[rax], 0x9
   8566b:       b8 ff ff ff ff          mov    eax, 0xffffffff
   85670:       e9 5b fb ff ff          jmp    0x851d0
   85675:       0f 1f 00                nop    DWORD PTR [rax]
   85678:       4d 89 f8                mov    r8, r15
   8567b:       e9 d9 fa ff ff          jmp    0x85159
   85680:       8b 01                   mov    eax, DWORD PTR [rcx]
   85682:       e9 49 fb ff ff          jmp    0x851d0
   85687:       e8 e4 48 00 00          call   0x89f70
   8568c:       48 8b 05 a5 37 19 00    mov    rax, QWORD PTR [rip+0x1937a5]        # 0x218e38
   85693:       4c 8b 00                mov    r8, QWORD PTR [rax]
   85696:       eb a4                   jmp    0x8563c
   85698:       e8 13 bc 00 00          call   0x912b0
   8569d:       e9 9f fa ff ff          jmp    0x85141
   856a2:       48 8d 0d 97 c0 15 00    lea    rcx, [rip+0x15c097]        # 0x1e1740
   856a9:       ba 20 01 00 00          mov    edx, 0x120
   856ae:       48 8d 35 24 3d 15 00    lea    rsi, [rip+0x153d24]        # 0x1d93d9
   856b5:       48 8d 3d 28 3d 15 00    lea    rdi, [rip+0x153d28]        # 0x1d93e4
   856bc:       e8 8f 47 fb ff          call   0x39e50
   856c1:       e8 5a 10 0b 00          call   0x136720
   856c6:       f3 0f 1e fa             endbr64 
   856ca:       48 89 c5                mov    rbp, rax
   856cd:       e9 b9 3e fa ff          jmp    0x2958b
================
_IO_wfile_underflow 0x85050
   85050:       f3 0f 1e fa             endbr64 
   85054:       41 57                   push   r15
   85056:       41 56                   push   r14
   85058:       41 55                   push   r13
   8505a:       41 54                   push   r12
   8505c:       55                      push   rbp
   8505d:       53                      push   rbx
   8505e:       48 83 ec 68             sub    rsp, 0x68
   85062:       64 48 8b 04 25 28 00 00 00      mov    rax, QWORD PTR fs:0x28
   8506b:       48 89 44 24 58          mov    QWORD PTR [rsp+0x58], rax
   85070:       8b 07                   mov    eax, DWORD PTR [rdi]
   85072:       a8 10                   test   al, 0x10
   85074:       0f 85 8f 01 00 00       jne    0x85209
   8507a:       48 89 fb                mov    rbx, rdi
   8507d:       a8 04                   test   al, 0x4
   8507f:       0f 85 d3 05 00 00       jne    0x85658
   85085:       48 8b 87 a0 00 00 00    mov    rax, QWORD PTR [rdi+0xa0]
   8508c:       48 8b 10                mov    rdx, QWORD PTR [rax]
   8508f:       48 3b 50 08             cmp    rdx, QWORD PTR [rax+0x8]
   85093:       0f 82 2f 01 00 00       jb     0x851c8
   85099:       48 8b 57 08             mov    rdx, QWORD PTR [rdi+0x8]
   8509d:       48 8b 4f 10             mov    rcx, QWORD PTR [rdi+0x10]
   850a1:       4c 8b b7 98 00 00 00    mov    r14, QWORD PTR [rdi+0x98]
   850a8:       48 39 ca                cmp    rdx, rcx
   850ab:       0f 82 4f 04 00 00       jb     0x85500
   850b1:       48 8b 47 38             mov    rax, QWORD PTR [rdi+0x38]
   850b5:       66 48 0f 6e c0          movq   xmm0, rax
   850ba:       48 89 47 18             mov    QWORD PTR [rdi+0x18], rax
   850be:       66 0f 6c c0             punpcklqdq xmm0, xmm0
   850c2:       0f 11 47 08             movups XMMWORD PTR [rdi+0x8], xmm0
   850c6:       66 48 0f 6e c0          movq   xmm0, rax
   850cb:       66 0f 6c c0             punpcklqdq xmm0, xmm0
   850cf:       48 85 c0                test   rax, rax
   850d2:       0f 84 f0 04 00 00       je     0x855c8
   850d8:       48 89 43 30             mov    QWORD PTR [rbx+0x30], rax
   850dc:       48 8b 83 a0 00 00 00    mov    rax, QWORD PTR [rbx+0xa0]
   850e3:       0f 11 43 20             movups XMMWORD PTR [rbx+0x20], xmm0
   850e7:       48 83 78 30 00          cmp    QWORD PTR [rax+0x30], 0x0
   850ec:       0f 84 ae 04 00 00       je     0x855a0
   850f2:       f7 03 02 02 00 00       test   DWORD PTR [rbx], 0x202
   850f8:       0f 84 24 01 00 00       je     0x85222
   850fe:       48 8b 05 33 3d 19 00    mov    rax, QWORD PTR [rip+0x193d33]        # 0x218e38
   85105:       4c 8b 38                mov    r15, QWORD PTR [rax]
   85108:       41 8b 17                mov    edx, DWORD PTR [r15]
   8510b:       89 d0                   mov    eax, edx
   8510d:       25 00 80 00 00          and    eax, 0x8000
   85112:       0f 85 f8 00 00 00       jne    0x85210
   85118:       64 48 8b 2c 25 10 00 00 00      mov    rbp, QWORD PTR fs:0x10
   85121:       49 8b bf 88 00 00 00    mov    rdi, QWORD PTR [r15+0x88]
   85128:       48 39 6f 08             cmp    QWORD PTR [rdi+0x8], rbp
   8512c:       0f 84 46 05 00 00       je     0x85678
   85132:       ba 01 00 00 00          mov    edx, 0x1
   85137:       f0 0f b1 17             lock cmpxchg DWORD PTR [rdi], edx
   8513b:       0f 85 57 05 00 00       jne    0x85698
   85141:       48 8b 05 f0 3c 19 00    mov    rax, QWORD PTR [rip+0x193cf0]        # 0x218e38
   85148:       49 8b bf 88 00 00 00    mov    rdi, QWORD PTR [r15+0x88]
   8514f:       4c 8b 00                mov    r8, QWORD PTR [rax]
   85152:       48 89 6f 08             mov    QWORD PTR [rdi+0x8], rbp
   85156:       41 8b 10                mov    edx, DWORD PTR [r8]
   85159:       81 e2 88 02 00 00       and    edx, 0x288
   8515f:       83 47 04 01             add    DWORD PTR [rdi+0x4], 0x1
   85163:       81 fa 80 02 00 00       cmp    edx, 0x280
   85169:       0f 84 9e 04 00 00       je     0x8560d
   8516f:       48 8d 05 f2 15 19 00    lea    rax, [rip+0x1915f2]        # 0x216768
   85176:       48 8d 2d 83 08 19 00    lea    rbp, [rip+0x190883]        # 0x215a00
   8517d:       48 89 04 24             mov    QWORD PTR [rsp], rax
   85181:       49 89 c4                mov    r12, rax
   85184:       49 89 ed                mov    r13, rbp
   85187:       49 29 ec                sub    r12, rbp
   8518a:       41 f7 07 00 80 00 00    test   DWORD PTR [r15], 0x8000
   85191:       0f 85 9d 00 00 00       jne    0x85234
   85197:       49 8b bf 88 00 00 00    mov    rdi, QWORD PTR [r15+0x88]
   8519e:       8b 47 04                mov    eax, DWORD PTR [rdi+0x4]
   851a1:       83 e8 01                sub    eax, 0x1
   851a4:       89 47 04                mov    DWORD PTR [rdi+0x4], eax
   851a7:       0f 85 87 00 00 00       jne    0x85234
   851ad:       48 c7 47 08 00 00 00 00         mov    QWORD PTR [rdi+0x8], 0x0
   851b5:       87 07                   xchg   DWORD PTR [rdi], eax
   851b7:       83 f8 01                cmp    eax, 0x1
   851ba:       7e 78                   jle    0x85234
   851bc:       e8 bf c1 00 00          call   0x91380
   851c1:       eb 7f                   jmp    0x85242
   851c3:       0f 1f 44 00 00          nop    DWORD PTR [rax+rax*1+0x0]
   851c8:       8b 02                   mov    eax, DWORD PTR [rdx]
   851ca:       66 0f 1f 44 00 00       nop    WORD PTR [rax+rax*1+0x0]
   851d0:       48 8b 54 24 58          mov    rdx, QWORD PTR [rsp+0x58]
   851d5:       64 48 2b 14 25 28 00 00 00      sub    rdx, QWORD PTR fs:0x28
   851de:       0f 85 dd 04 00 00       jne    0x856c1
   851e4:       48 83 c4 68             add    rsp, 0x68
   851e8:       5b                      pop    rbx
   851e9:       5d                      pop    rbp
   851ea:       41 5c                   pop    r12
   851ec:       41 5d                   pop    r13
   851ee:       41 5e                   pop    r14
   851f0:       41 5f                   pop    r15
   851f2:       c3                      ret    
   851f3:       0f 1f 44 00 00          nop    DWORD PTR [rax+rax*1+0x0]
   851f8:       48 8b 05 11 3c 19 00    mov    rax, QWORD PTR [rip+0x193c11]        # 0x218e10
   851ff:       64 c7 00 54 00 00 00    mov    DWORD PTR fs:[rax], 0x54
   85206:       83 0b 20                or     DWORD PTR [rbx], 0x20
   85209:       b8 ff ff ff ff          mov    eax, 0xffffffff
   8520e:       eb c0                   jmp    0x851d0
   85210:       81 e2 88 02 00 00       and    edx, 0x288
   85216:       81 fa 80 02 00 00       cmp    edx, 0x280
   8521c:       0f 84 e8 03 00 00       je     0x8560a
   85222:       48 8d 05 3f 15 19 00    lea    rax, [rip+0x19153f]        # 0x216768
   85229:       48 8d 2d d0 07 19 00    lea    rbp, [rip+0x1907d0]        # 0x215a00
   85230:       48 89 04 24             mov    QWORD PTR [rsp], rax
   85234:       4c 8b 24 24             mov    r12, QWORD PTR [rsp]
   85238:       4c 8d 2d c1 07 19 00    lea    r13, [rip+0x1907c1]        # 0x215a00
   8523f:       49 29 ec                sub    r12, rbp
   85242:       48 89 df                mov    rdi, rbx
   85245:       31 ed                   xor    ebp, ebp
   85247:       4c 8d 7c 24 38          lea    r15, [rsp+0x38]
   8524c:       e8 4f 85 00 00          call   0x8d7a0
   85251:       48 8b 83 a0 00 00 00    mov    rax, QWORD PTR [rbx+0xa0]
   85258:       f3 0f 7e 40 30          movq   xmm0, QWORD PTR [rax+0x30]
   8525d:       66 0f 6c c0             punpcklqdq xmm0, xmm0
   85261:       0f 11 00                movups XMMWORD PTR [rax], xmm0
   85264:       0f 11 40 10             movups XMMWORD PTR [rax+0x10], xmm0
   85268:       0f 11 40 20             movups XMMWORD PTR [rax+0x20], xmm0
   8526c:       eb 49                   jmp    0x852b7
   8526e:       66 90                   xchg   ax, ax
   85270:       48 8b 53 10             mov    rdx, QWORD PTR [rbx+0x10]
   85274:       4c 8b 43 18             mov    r8, QWORD PTR [rbx+0x18]
   85278:       48 29 f2                sub    rdx, rsi
   8527b:       4c 39 c6                cmp    rsi, r8
   8527e:       0f 87 44 02 00 00       ja     0x854c8
   85284:       4c 89 04 24             mov    QWORD PTR [rsp], r8
   85288:       48 83 fa 0f             cmp    rdx, 0xf
   8528c:       0f 87 66 ff ff ff       ja     0x851f8
   85292:       48 8d 7c 24 40          lea    rdi, [rsp+0x40]
   85297:       48 89 54 24 08          mov    QWORD PTR [rsp+0x8], rdx
   8529c:       e8 7f 33 fa ff          call   0x28620
   852a1:       48 8b 6c 24 08          mov    rbp, QWORD PTR [rsp+0x8]
   852a6:       4c 8b 04 24             mov    r8, QWORD PTR [rsp]
   852aa:       66 49 0f 6e c0          movq   xmm0, r8
   852af:       66 0f 6c c0             punpcklqdq xmm0, xmm0
   852b3:       0f 11 43 08             movups XMMWORD PTR [rbx+0x8], xmm0
   852b7:       48 8b 83 d8 00 00 00    mov    rax, QWORD PTR [rbx+0xd8]
   852be:       48 89 c2                mov    rdx, rax
   852c1:       4c 29 ea                sub    rdx, r13
   852c4:       4c 39 e2                cmp    rdx, r12
   852c7:       0f 83 43 01 00 00       jae    0x85410
   852cd:       48 8b 73 10             mov    rsi, QWORD PTR [rbx+0x10]
   852d1:       48 8b 53 40             mov    rdx, QWORD PTR [rbx+0x40]
   852d5:       48 89 df                mov    rdi, rbx
   852d8:       48 29 f2                sub    rdx, rsi
   852db:       ff 50 70                call   QWORD PTR [rax+0x70]
   852de:       48 85 c0                test   rax, rax
   852e1:       0f 8e c9 00 00 00       jle    0x853b0
   852e7:       4c 8b 5b 10             mov    r11, QWORD PTR [rbx+0x10]
   852eb:       48 8b 93 90 00 00 00    mov    rdx, QWORD PTR [rbx+0x90]
   852f2:       49 01 c3                add    r11, rax
   852f5:       4c 89 5b 10             mov    QWORD PTR [rbx+0x10], r11
   852f9:       48 83 fa ff             cmp    rdx, 0xffffffffffffffff
   852fd:       74 0a                   je     0x85309
   852ff:       48 01 c2                add    rdx, rax
   85302:       48 89 93 90 00 00 00    mov    QWORD PTR [rbx+0x90], rdx
   85309:       4c 8b 83 a0 00 00 00    mov    r8, QWORD PTR [rbx+0xa0]
   85310:       48 8b 73 08             mov    rsi, QWORD PTR [rbx+0x8]
   85314:       49 8b 50 58             mov    rdx, QWORD PTR [r8+0x58]
   85318:       49 8d 48 08             lea    rcx, [r8+0x8]
   8531c:       4d 8d 50 58             lea    r10, [r8+0x58]
   85320:       49 89 50 60             mov    QWORD PTR [r8+0x60], rdx
   85324:       48 89 73 18             mov    QWORD PTR [rbx+0x18], rsi
   85328:       48 85 ed                test   rbp, rbp
   8532b:       0f 85 f7 00 00 00       jne    0x85428
   85331:       4d 8b 48 08             mov    r9, QWORD PTR [r8+0x8]
   85335:       51                      push   rcx
   85336:       48 89 f2                mov    rdx, rsi
   85339:       4c 89 d9                mov    rcx, r11
   8533c:       41 ff 70 38             push   QWORD PTR [r8+0x38]
   85340:       4c 89 d6                mov    rsi, r10
   85343:       4d 89 f8                mov    r8, r15
   85346:       4c 89 f7                mov    rdi, r14
   85349:       e8 32 1a 00 00          call   0x86d80
   8534e:       5a                      pop    rdx
   8534f:       59                      pop    rcx
   85350:       48 8b 74 24 38          mov    rsi, QWORD PTR [rsp+0x38]
   85355:       31 ed                   xor    ebp, ebp
   85357:       49 89 f0                mov    r8, rsi
   8535a:       48 8b 93 a0 00 00 00    mov    rdx, QWORD PTR [rbx+0xa0]
   85361:       48 89 73 08             mov    QWORD PTR [rbx+0x8], rsi
   85365:       48 8b 4a 30             mov    rcx, QWORD PTR [rdx+0x30]
   85369:       48 39 4a 08             cmp    QWORD PTR [rdx+0x8], rcx
   8536d:       0f 85 8d 02 00 00       jne    0x85600
   85373:       83 f8 02                cmp    eax, 0x2
   85376:       0f 84 7c fe ff ff       je     0x851f8
   8537c:       83 f8 01                cmp    eax, 0x1
   8537f:       0f 85 1d 03 00 00       jne    0x856a2
   85385:       48 85 ed                test   rbp, rbp
   85388:       0f 84 e2 fe ff ff       je     0x85270
   8538e:       48 8d 7c 24 40          lea    rdi, [rsp+0x40]
   85393:       4c 89 c0                mov    rax, r8
   85396:       48 29 f8                sub    rax, rdi
   85399:       75 65                   jne    0x85400
   8539b:       48 83 fd 10             cmp    rbp, 0x10
   8539f:       0f 84 53 fe ff ff       je     0x851f8
   853a5:       4c 8b 43 18             mov    r8, QWORD PTR [rbx+0x18]
   853a9:       e9 fc fe ff ff          jmp    0x852aa
   853ae:       66 90                   xchg   ax, ax
   853b0:       48 09 e8                or     rax, rbp
   853b3:       8b 13                   mov    edx, DWORD PTR [rbx]
   853b5:       75 21                   jne    0x853d8
   853b7:       83 ca 10                or     edx, 0x10
   853ba:       b8 ff ff ff ff          mov    eax, 0xffffffff
   853bf:       48 c7 83 90 00 00 00 ff ff ff ff        mov    QWORD PTR [rbx+0x90], 0xffffffffffffffff
   853ca:       89 13                   mov    DWORD PTR [rbx], edx
   853cc:       e9 ff fd ff ff          jmp    0x851d0
   853d1:       0f 1f 80 00 00 00 00    nop    DWORD PTR [rax+0x0]
   853d8:       83 ca 20                or     edx, 0x20
   853db:       89 13                   mov    DWORD PTR [rbx], edx
   853dd:       48 85 ed                test   rbp, rbp
   853e0:       0f 84 23 fe ff ff       je     0x85209
   853e6:       48 8b 05 23 3a 19 00    mov    rax, QWORD PTR [rip+0x193a23]        # 0x218e10
   853ed:       64 c7 00 54 00 00 00    mov    DWORD PTR fs:[rax], 0x54
   853f4:       b8 ff ff ff ff          mov    eax, 0xffffffff
   853f9:       e9 d2 fd ff ff          jmp    0x851d0
   853fe:       66 90                   xchg   ax, ax
   85400:       48 29 c5                sub    rbp, rax
   85403:       4c 89 c6                mov    rsi, r8
   85406:       48 89 ea                mov    rdx, rbp
   85409:       e8 22 30 fa ff          call   0x28430
   8540e:       eb 8b                   jmp    0x8539b
   85410:       48 89 04 24             mov    QWORD PTR [rsp], rax
   85414:       e8 57 4b 00 00          call   0x89f70
   85419:       48 8b 04 24             mov    rax, QWORD PTR [rsp]
   8541d:       e9 ab fe ff ff          jmp    0x852cd
   85422:       66 0f 1f 44 00 00       nop    WORD PTR [rax+rax*1+0x0]
   85428:       ba 10 00 00 00          mov    edx, 0x10
   8542d:       4c 8d 5c 24 40          lea    r11, [rsp+0x40]
   85432:       4c 89 54 24 28          mov    QWORD PTR [rsp+0x28], r10
   85437:       48 29 ea                sub    rdx, rbp
   8543a:       48 89 4c 24 20          mov    QWORD PTR [rsp+0x20], rcx
   8543f:       48 39 c2                cmp    rdx, rax
   85442:       4c 89 44 24 18          mov    QWORD PTR [rsp+0x18], r8
   85447:       48 0f 47 d0             cmova  rdx, rax
   8544b:       49 8d 04 2b             lea    rax, [r11+rbp*1]
   8544f:       4c 89 5c 24 10          mov    QWORD PTR [rsp+0x10], r11
   85454:       48 89 c7                mov    rdi, rax
   85457:       48 89 04 24             mov    QWORD PTR [rsp], rax
   8545b:       48 89 54 24 08          mov    QWORD PTR [rsp+0x8], rdx
   85460:       e8 7b 2f fa ff          call   0x283e0
   85465:       4c 8b 44 24 18          mov    r8, QWORD PTR [rsp+0x18]
   8546a:       48 8b 4c 24 20          mov    rcx, QWORD PTR [rsp+0x20]
   8546f:       4c 89 f7                mov    rdi, r14
   85472:       48 8b 54 24 08          mov    rdx, QWORD PTR [rsp+0x8]
   85477:       4d 8b 48 08             mov    r9, QWORD PTR [r8+0x8]
   8547b:       51                      push   rcx
   8547c:       48 89 c1                mov    rcx, rax
   8547f:       41 ff 70 38             push   QWORD PTR [r8+0x38]
   85483:       48 01 d5                add    rbp, rdx
   85486:       48 8b 74 24 38          mov    rsi, QWORD PTR [rsp+0x38]
   8548b:       4d 89 f8                mov    r8, r15
   8548e:       48 8b 54 24 20          mov    rdx, QWORD PTR [rsp+0x20]
   85493:       e8 e8 18 00 00          call   0x86d80
   85498:       5e                      pop    rsi
   85499:       5f                      pop    rdi
   8549a:       48 85 ed                test   rbp, rbp
   8549d:       0f 84 ad fe ff ff       je     0x85350
   854a3:       4c 8b 44 24 38          mov    r8, QWORD PTR [rsp+0x38]
   854a8:       ba 00 00 00 00          mov    edx, 0x0
   854ad:       4c 89 c6                mov    rsi, r8
   854b0:       48 2b 34 24             sub    rsi, QWORD PTR [rsp]
   854b4:       48 0f 48 f2             cmovs  rsi, rdx
   854b8:       48 03 73 08             add    rsi, QWORD PTR [rbx+0x8]
   854bc:       e9 99 fe ff ff          jmp    0x8535a
   854c1:       0f 1f 80 00 00 00 00    nop    DWORD PTR [rax+0x0]
   854c8:       4c 89 c7                mov    rdi, r8
   854cb:       48 89 14 24             mov    QWORD PTR [rsp], rdx
   854cf:       e8 5c 2f fa ff          call   0x28430
   854d4:       48 8b 43 10             mov    rax, QWORD PTR [rbx+0x10]
   854d8:       48 8b 14 24             mov    rdx, QWORD PTR [rsp]
   854dc:       f3 0f 7e 43 18          movq   xmm0, QWORD PTR [rbx+0x18]
   854e1:       48 29 d0                sub    rax, rdx
   854e4:       66 48 0f 6e c8          movq   xmm1, rax
   854e9:       66 0f 6c c1             punpcklqdq xmm0, xmm1
   854ed:       0f 11 43 08             movups XMMWORD PTR [rbx+0x8], xmm0
   854f1:       e9 c1 fd ff ff          jmp    0x852b7
   854f6:       66 2e 0f 1f 84 00 00 00 00 00   cs nop WORD PTR [rax+rax*1+0x0]
   85500:       4c 8b 48 30             mov    r9, QWORD PTR [rax+0x30]
   85504:       48 8b 70 58             mov    rsi, QWORD PTR [rax+0x58]
   85508:       48 8d 78 08             lea    rdi, [rax+0x8]
   8550c:       48 89 54 24 38          mov    QWORD PTR [rsp+0x38], rdx
   85511:       48 89 70 60             mov    QWORD PTR [rax+0x60], rsi
   85515:       48 8d 70 58             lea    rsi, [rax+0x58]
   85519:       4c 89 08                mov    QWORD PTR [rax], r9
   8551c:       4c 89 48 10             mov    QWORD PTR [rax+0x10], r9
   85520:       57                      push   rdi
   85521:       4c 89 f7                mov    rdi, r14
   85524:       ff 70 38                push   QWORD PTR [rax+0x38]
   85527:       4c 8d 44 24 48          lea    r8, [rsp+0x48]
   8552c:       e8 4f 18 00 00          call   0x86d80
   85531:       48 8b 53 08             mov    rdx, QWORD PTR [rbx+0x8]
   85535:       48 8b 74 24 48          mov    rsi, QWORD PTR [rsp+0x48]
   8553a:       48 89 53 18             mov    QWORD PTR [rbx+0x18], rdx
   8553e:       48 8b 93 a0 00 00 00    mov    rdx, QWORD PTR [rbx+0xa0]
   85545:       48 89 73 08             mov    QWORD PTR [rbx+0x8], rsi
   85549:       41 58                   pop    r8
   8554b:       48 8b 0a                mov    rcx, QWORD PTR [rdx]
   8554e:       41 59                   pop    r9
   85550:       48 3b 4a 08             cmp    rcx, QWORD PTR [rdx+0x8]
   85554:       0f 82 26 01 00 00       jb     0x85680
   8555a:       83 f8 02                cmp    eax, 0x2
   8555d:       0f 84 95 fc ff ff       je     0x851f8
   85563:       48 8b 53 10             mov    rdx, QWORD PTR [rbx+0x10]
   85567:       48 8b 7b 38             mov    rdi, QWORD PTR [rbx+0x38]
   8556b:       48 29 f2                sub    rdx, rsi
   8556e:       e8 bd 2e fa ff          call   0x28430
   85573:       48 8b 43 38             mov    rax, QWORD PTR [rbx+0x38]
   85577:       48 8b 53 10             mov    rdx, QWORD PTR [rbx+0x10]
   8557b:       48 01 c2                add    rdx, rax
   8557e:       48 2b 53 08             sub    rdx, QWORD PTR [rbx+0x8]
   85582:       66 48 0f 6e c0          movq   xmm0, rax
   85587:       48 89 43 18             mov    QWORD PTR [rbx+0x18], rax
   8558b:       66 48 0f 6e d2          movq   xmm2, rdx
   85590:       66 0f 6c c2             punpcklqdq xmm0, xmm2
   85594:       0f 11 43 08             movups XMMWORD PTR [rbx+0x8], xmm0
   85598:       e9 29 fb ff ff          jmp    0x850c6
   8559d:       0f 1f 00                nop    DWORD PTR [rax]
   855a0:       48 8b 78 40             mov    rdi, QWORD PTR [rax+0x40]
   855a4:       48 85 ff                test   rdi, rdi
   855a7:       74 0b                   je     0x855b4
   855a9:       e8 c2 2d fa ff          call   0x28370
   855ae:       81 23 ff fe ff ff       and    DWORD PTR [rbx], 0xfffffeff
   855b4:       48 89 df                mov    rdi, rbx
   855b7:       e8 34 e6 ff ff          call   0x83bf0
   855bc:       e9 31 fb ff ff          jmp    0x850f2
   855c1:       0f 1f 80 00 00 00 00    nop    DWORD PTR [rax+0x0]
   855c8:       48 8b 7b 48             mov    rdi, QWORD PTR [rbx+0x48]
   855cc:       48 85 ff                test   rdi, rdi
   855cf:       74 0b                   je     0x855dc
   855d1:       e8 9a 2d fa ff          call   0x28370
   855d6:       81 23 ff fe ff ff       and    DWORD PTR [rbx], 0xfffffeff
   855dc:       48 89 df                mov    rdi, rbx
   855df:       e8 2c 87 00 00          call   0x8dd10
   855e4:       48 8b 43 38             mov    rax, QWORD PTR [rbx+0x38]
   855e8:       66 48 0f 6e c0          movq   xmm0, rax
   855ed:       48 89 43 18             mov    QWORD PTR [rbx+0x18], rax
   855f1:       66 0f 6c c0             punpcklqdq xmm0, xmm0
   855f5:       0f 11 43 08             movups XMMWORD PTR [rbx+0x8], xmm0
   855f9:       e9 da fa ff ff          jmp    0x850d8
   855fe:       66 90                   xchg   ax, ax
   85600:       48 8b 02                mov    rax, QWORD PTR [rdx]
   85603:       8b 00                   mov    eax, DWORD PTR [rax]
   85605:       e9 c6 fb ff ff          jmp    0x851d0
   8560a:       4d 89 f8                mov    r8, r15
   8560d:       49 8b 80 d8 00 00 00    mov    rax, QWORD PTR [r8+0xd8]
   85614:       48 8d 0d 4d 11 19 00    lea    rcx, [rip+0x19114d]        # 0x216768
   8561b:       48 8d 2d de 03 19 00    lea    rbp, [rip+0x1903de]        # 0x215a00
   85622:       49 89 cc                mov    r12, rcx
   85625:       48 89 0c 24             mov    QWORD PTR [rsp], rcx
   85629:       49 89 ed                mov    r13, rbp
   8562c:       48 89 44 24 08          mov    QWORD PTR [rsp+0x8], rax
   85631:       49 29 ec                sub    r12, rbp
   85634:       48 29 e8                sub    rax, rbp
   85637:       49 39 c4                cmp    r12, rax
   8563a:       76 4b                   jbe    0x85687
   8563c:       48 8b 44 24 08          mov    rax, QWORD PTR [rsp+0x8]
   85641:       be ff ff ff ff          mov    esi, 0xffffffff
   85646:       4c 89 c7                mov    rdi, r8
   85649:       ff 50 18                call   QWORD PTR [rax+0x18]
   8564c:       e9 39 fb ff ff          jmp    0x8518a
   85651:       0f 1f 80 00 00 00 00    nop    DWORD PTR [rax+0x0]
   85658:       83 c8 20                or     eax, 0x20
   8565b:       89 07                   mov    DWORD PTR [rdi], eax
   8565d:       48 8b 05 ac 37 19 00    mov    rax, QWORD PTR [rip+0x1937ac]        # 0x218e10
   85664:       64 c7 00 09 00 00 00    mov    DWORD PTR fs:[rax], 0x9
   8566b:       b8 ff ff ff ff          mov    eax, 0xffffffff
   85670:       e9 5b fb ff ff          jmp    0x851d0
   85675:       0f 1f 00                nop    DWORD PTR [rax]
   85678:       4d 89 f8                mov    r8, r15
   8567b:       e9 d9 fa ff ff          jmp    0x85159
   85680:       8b 01                   mov    eax, DWORD PTR [rcx]
   85682:       e9 49 fb ff ff          jmp    0x851d0
   85687:       e8 e4 48 00 00          call   0x89f70
   8568c:       48 8b 05 a5 37 19 00    mov    rax, QWORD PTR [rip+0x1937a5]        # 0x218e38
   85693:       4c 8b 00                mov    r8, QWORD PTR [rax]
   85696:       eb a4                   jmp    0x8563c
   85698:       e8 13 bc 00 00          call   0x912b0
   8569d:       e9 9f fa ff ff          jmp    0x85141
   856a2:       48 8d 0d 97 c0 15 00    lea    rcx, [rip+0x15c097]        # 0x1e1740
   856a9:       ba 20 01 00 00          mov    edx, 0x120
   856ae:       48 8d 35 24 3d 15 00    lea    rsi, [rip+0x153d24]        # 0x1d93d9
   856b5:       48 8d 3d 28 3d 15 00    lea    rdi, [rip+0x153d28]        # 0x1d93e4
   856bc:       e8 8f 47 fb ff          call   0x39e50
   856c1:       e8 5a 10 0b 00          call   0x136720
   856c6:       f3 0f 1e fa             endbr64 
   856ca:       48 89 c5                mov    rbp, rax
   856cd:       e9 b9 3e fa ff          jmp    0x2958b
================
_IO_str_underflow 0x8f5b0
   8f5b0:       f3 0f 1e fa             endbr64 
   8f5b4:       48 8b 47 28             mov    rax, QWORD PTR [rdi+0x28]
   8f5b8:       48 8b 57 10             mov    rdx, QWORD PTR [rdi+0x10]
   8f5bc:       48 39 d0                cmp    rax, rdx
   8f5bf:       76 07                   jbe    0x8f5c8
   8f5c1:       48 89 47 10             mov    QWORD PTR [rdi+0x10], rax
   8f5c5:       48 89 c2                mov    rdx, rax
   8f5c8:       8b 0f                   mov    ecx, DWORD PTR [rdi]
   8f5ca:       89 ce                   mov    esi, ecx
   8f5cc:       81 e6 00 0c 00 00       and    esi, 0xc00
   8f5d2:       81 fe 00 0c 00 00       cmp    esi, 0xc00
   8f5d8:       74 16                   je     0x8f5f0
   8f5da:       48 8b 47 08             mov    rax, QWORD PTR [rdi+0x8]
   8f5de:       48 39 d0                cmp    rax, rdx
   8f5e1:       73 25                   jae    0x8f608
   8f5e3:       0f b6 00                movzx  eax, BYTE PTR [rax]
   8f5e6:       c3                      ret    
   8f5e7:       66 0f 1f 84 00 00 00 00 00      nop    WORD PTR [rax+rax*1+0x0]
   8f5f0:       80 e5 f7                and    ch, 0xf7
   8f5f3:       48 89 47 08             mov    QWORD PTR [rdi+0x8], rax
   8f5f7:       89 0f                   mov    DWORD PTR [rdi], ecx
   8f5f9:       48 8b 4f 30             mov    rcx, QWORD PTR [rdi+0x30]
   8f5fd:       48 89 4f 28             mov    QWORD PTR [rdi+0x28], rcx
   8f601:       eb db                   jmp    0x8f5de
   8f603:       0f 1f 44 00 00          nop    DWORD PTR [rax+rax*1+0x0]
   8f608:       b8 ff ff ff ff          mov    eax, 0xffffffff
   8f60d:       c3                      ret
================
_IO_str_underflow 0x8f5b0
   8f5b0:       f3 0f 1e fa             endbr64 
   8f5b4:       48 8b 47 28             mov    rax, QWORD PTR [rdi+0x28]
   8f5b8:       48 8b 57 10             mov    rdx, QWORD PTR [rdi+0x10]
   8f5bc:       48 39 d0                cmp    rax, rdx
   8f5bf:       76 07                   jbe    0x8f5c8
   8f5c1:       48 89 47 10             mov    QWORD PTR [rdi+0x10], rax
   8f5c5:       48 89 c2                mov    rdx, rax
   8f5c8:       8b 0f                   mov    ecx, DWORD PTR [rdi]
   8f5ca:       89 ce                   mov    esi, ecx
   8f5cc:       81 e6 00 0c 00 00       and    esi, 0xc00
   8f5d2:       81 fe 00 0c 00 00       cmp    esi, 0xc00
   8f5d8:       74 16                   je     0x8f5f0
   8f5da:       48 8b 47 08             mov    rax, QWORD PTR [rdi+0x8]
   8f5de:       48 39 d0                cmp    rax, rdx
   8f5e1:       73 25                   jae    0x8f608
   8f5e3:       0f b6 00                movzx  eax, BYTE PTR [rax]
   8f5e6:       c3                      ret    
   8f5e7:       66 0f 1f 84 00 00 00 00 00      nop    WORD PTR [rax+rax*1+0x0]
   8f5f0:       80 e5 f7                and    ch, 0xf7
   8f5f3:       48 89 47 08             mov    QWORD PTR [rdi+0x8], rax
   8f5f7:       89 0f                   mov    DWORD PTR [rdi], ecx
   8f5f9:       48 8b 4f 30             mov    rcx, QWORD PTR [rdi+0x30]
   8f5fd:       48 89 4f 28             mov    QWORD PTR [rdi+0x28], rcx
   8f601:       eb db                   jmp    0x8f5de
   8f603:       0f 1f 44 00 00          nop    DWORD PTR [rax+rax*1+0x0]
   8f608:       b8 ff ff ff ff          mov    eax, 0xffffffff
   8f60d:       c3                      ret
================
_IO_file_setbuf_mmap 0x8a650
   8a650:       f3 0f 1e fa             endbr64 
   8a654:       48 8d 05 a5 bf 18 00    lea    rax, [rip+0x18bfa5]        # 0x216600
   8a65b:       48 8d 0d 5e ba 18 00    lea    rcx, [rip+0x18ba5e]        # 0x2160c0
   8a662:       53                      push   rbx
   8a663:       48 89 fb                mov    rbx, rdi
   8a666:       48 89 87 d8 00 00 00    mov    QWORD PTR [rdi+0xd8], rax
   8a66d:       48 8b 87 a0 00 00 00    mov    rax, QWORD PTR [rdi+0xa0]
   8a674:       48 89 88 e0 00 00 00    mov    QWORD PTR [rax+0xe0], rcx
   8a67b:       e8 a0 ff ff ff          call   0x8a620
   8a680:       48 85 c0                test   rax, rax
   8a683:       74 0b                   je     0x8a690
   8a685:       5b                      pop    rbx
   8a686:       c3                      ret    
   8a687:       66 0f 1f 84 00 00 00 00 00      nop    WORD PTR [rax+rax*1+0x0]
   8a690:       48 8b 93 a0 00 00 00    mov    rdx, QWORD PTR [rbx+0xa0]
   8a697:       48 8d 0d a2 be 18 00    lea    rcx, [rip+0x18bea2]        # 0x216540
   8a69e:       48 89 8b d8 00 00 00    mov    QWORD PTR [rbx+0xd8], rcx
   8a6a5:       48 8d 0d 54 b9 18 00    lea    rcx, [rip+0x18b954]        # 0x216000
   8a6ac:       48 89 8a e0 00 00 00    mov    QWORD PTR [rdx+0xe0], rcx
   8a6b3:       5b                      pop    rbx
   8a6b4:       c3                      ret
================
_IO_obstack_overflow 0x88650
   88650:       f3 0f 1e fa             endbr64 
   88654:       41 54                   push   r12
   88656:       55                      push   rbp
   88657:       53                      push   rbx
   88658:       48 8b 9f e0 00 00 00    mov    rbx, QWORD PTR [rdi+0xe0]
   8865f:       83 fe ff                cmp    esi, 0xffffffff
   88662:       74 63                   je     0x886c7
   88664:       48 8b 43 18             mov    rax, QWORD PTR [rbx+0x18]
   88668:       48 89 fd                mov    rbp, rdi
   8866b:       41 89 f4                mov    r12d, esi
   8866e:       48 8d 50 01             lea    rdx, [rax+0x1]
   88672:       48 3b 53 20             cmp    rdx, QWORD PTR [rbx+0x20]
   88676:       77 38                   ja     0x886b0
   88678:       48 89 53 18             mov    QWORD PTR [rbx+0x18], rdx
   8867c:       44 88 20                mov    BYTE PTR [rax], r12b
   8867f:       f3 0f 6f 43 10          movdqu xmm0, XMMWORD PTR [rbx+0x10]
   88684:       48 8b 43 18             mov    rax, QWORD PTR [rbx+0x18]
   88688:       0f 11 45 20             movups XMMWORD PTR [rbp+0x20], xmm0
   8868c:       48 8b 53 20             mov    rdx, QWORD PTR [rbx+0x20]
   88690:       48 29 c2                sub    rdx, rax
   88693:       48 63 d2                movsxd rdx, edx
   88696:       48 01 d0                add    rax, rdx
   88699:       48 89 45 30             mov    QWORD PTR [rbp+0x30], rax
   8869d:       48 89 43 18             mov    QWORD PTR [rbx+0x18], rax
   886a1:       44 89 e0                mov    eax, r12d
   886a4:       5b                      pop    rbx
   886a5:       5d                      pop    rbp
   886a6:       41 5c                   pop    r12
   886a8:       c3                      ret    
   886a9:       0f 1f 80 00 00 00 00    nop    DWORD PTR [rax+0x0]
   886b0:       be 01 00 00 00          mov    esi, 0x1
   886b5:       48 89 df                mov    rdi, rbx
   886b8:       e8 43 f0 01 00          call   0xa7700
   886bd:       48 8b 43 18             mov    rax, QWORD PTR [rbx+0x18]
   886c1:       48 8d 50 01             lea    rdx, [rax+0x1]
   886c5:       eb b1                   jmp    0x88678
   886c7:       48 8d 0d b2 90 15 00    lea    rcx, [rip+0x1590b2]        # 0x1e1780
   886ce:       ba 2e 00 00 00          mov    edx, 0x2e
   886d3:       48 8d 35 5c 0d 15 00    lea    rsi, [rip+0x150d5c]        # 0x1d9436
   886da:       48 8d 3d 60 0d 15 00    lea    rdi, [rip+0x150d60]        # 0x1d9441
   886e1:       e8 6a 17 fb ff          call   0x39e50
================
_IO_default_read 0x8f480
   8f480:       f3 0f 1e fa             endbr64 
   8f484:       48 c7 c0 ff ff ff ff    mov    rax, 0xffffffffffffffff
   8f48b:       c3                      ret
================
_IO_file_seekoff 0x8a960
   8a960:       f3 0f 1e fa             endbr64 
   8a964:       41 57                   push   r15
   8a966:       41 56                   push   r14
   8a968:       41 55                   push   r13
   8a96a:       41 54                   push   r12
   8a96c:       55                      push   rbp
   8a96d:       48 89 fd                mov    rbp, rdi
   8a970:       53                      push   rbx
   8a971:       48 81 ec b8 00 00 00    sub    rsp, 0xb8
   8a978:       64 48 8b 04 25 28 00 00 00      mov    rax, QWORD PTR fs:0x28
   8a981:       48 89 84 24 a8 00 00 00         mov    QWORD PTR [rsp+0xa8], rax
   8a989:       31 c0                   xor    eax, eax
   8a98b:       85 c9                   test   ecx, ecx
   8a98d:       0f 84 25 03 00 00       je     0x8acb8
   8a993:       41 89 d5                mov    r13d, edx
   8a996:       48 8b 47 20             mov    rax, QWORD PTR [rdi+0x20]
   8a99a:       48 8b 57 28             mov    rdx, QWORD PTR [rdi+0x28]
   8a99e:       49 89 f4                mov    r12, rsi
   8a9a1:       48 8b 5f 10             mov    rbx, QWORD PTR [rdi+0x10]
   8a9a5:       48 39 5f 18             cmp    QWORD PTR [rdi+0x18], rbx
   8a9a9:       0f 84 99 00 00 00       je     0x8aa48
   8a9af:       45 31 ff                xor    r15d, r15d
   8a9b2:       48 39 c2                cmp    rdx, rax
   8a9b5:       0f 86 a5 00 00 00       jbe    0x8aa60
   8a9bb:       48 89 ef                mov    rdi, rbp
   8a9be:       e8 dd 2d 00 00          call   0x8d7a0
   8a9c3:       85 c0                   test   eax, eax
   8a9c5:       0f 85 b4 03 00 00       jne    0x8ad7f
   8a9cb:       48 83 7d 38 00          cmp    QWORD PTR [rbp+0x38], 0x0
   8a9d0:       0f 84 a2 00 00 00       je     0x8aa78
   8a9d6:       41 83 fd 01             cmp    r13d, 0x1
   8a9da:       0f 84 d4 00 00 00       je     0x8aab4
   8a9e0:       41 83 fd 02             cmp    r13d, 0x2
   8a9e4:       0f 85 f2 00 00 00       jne    0x8aadc
   8a9ea:       48 8b 85 d8 00 00 00    mov    rax, QWORD PTR [rbp+0xd8]
   8a9f1:       4c 8d 35 08 b0 18 00    lea    r14, [rip+0x18b008]        # 0x215a00
   8a9f8:       48 8d 1d 69 bd 18 00    lea    rbx, [rip+0x18bd69]        # 0x216768
   8a9ff:       4c 29 f3                sub    rbx, r14
   8aa02:       48 89 c2                mov    rdx, rax
   8aa05:       4c 29 f2                sub    rdx, r14
   8aa08:       48 39 da                cmp    rdx, rbx
   8aa0b:       0f 83 b7 04 00 00       jae    0x8aec8
   8aa11:       48 8d 74 24 10          lea    rsi, [rsp+0x10]
   8aa16:       48 89 ef                mov    rdi, rbp
   8aa19:       ff 90 90 00 00 00       call   QWORD PTR [rax+0x90]
   8aa1f:       85 c0                   test   eax, eax
   8aa21:       0f 85 11 02 00 00       jne    0x8ac38
   8aa27:       8b 44 24 28             mov    eax, DWORD PTR [rsp+0x28]
   8aa2b:       25 00 f0 00 00          and    eax, 0xf000
   8aa30:       3d 00 80 00 00          cmp    eax, 0x8000
   8aa35:       0f 85 fd 01 00 00       jne    0x8ac38
   8aa3b:       4c 03 64 24 40          add    r12, QWORD PTR [rsp+0x40]
   8aa40:       e9 94 00 00 00          jmp    0x8aad9
   8aa45:       0f 1f 00                nop    DWORD PTR [rax]
   8aa48:       48 39 c2                cmp    rdx, rax
   8aa4b:       0f 85 5e ff ff ff       jne    0x8a9af
   8aa51:       41 bf 01 00 00 00       mov    r15d, 0x1
   8aa57:       66 0f 1f 84 00 00 00 00 00      nop    WORD PTR [rax+rax*1+0x0]
   8aa60:       f7 45 00 00 08 00 00    test   DWORD PTR [rbp+0x0], 0x800
   8aa67:       0f 85 4e ff ff ff       jne    0x8a9bb
   8aa6d:       48 83 7d 38 00          cmp    QWORD PTR [rbp+0x38], 0x0
   8aa72:       0f 85 5e ff ff ff       jne    0x8a9d6
   8aa78:       48 8b 7d 18             mov    rdi, QWORD PTR [rbp+0x18]
   8aa7c:       48 85 ff                test   rdi, rdi
   8aa7f:       74 0c                   je     0x8aa8d
   8aa81:       e8 ea d8 f9 ff          call   0x28370
   8aa86:       81 65 00 ff fe ff ff    and    DWORD PTR [rbp+0x0], 0xfffffeff
   8aa8d:       48 89 ef                mov    rdi, rbp
   8aa90:       e8 7b 32 00 00          call   0x8dd10
   8aa95:       f3 0f 7e 45 38          movq   xmm0, QWORD PTR [rbp+0x38]
   8aa9a:       66 0f 6c c0             punpcklqdq xmm0, xmm0
   8aa9e:       0f 11 45 08             movups XMMWORD PTR [rbp+0x8], xmm0
   8aaa2:       0f 11 45 18             movups XMMWORD PTR [rbp+0x18], xmm0
   8aaa6:       0f 11 45 28             movups XMMWORD PTR [rbp+0x28], xmm0
   8aaaa:       41 83 fd 01             cmp    r13d, 0x1
   8aaae:       0f 85 2c ff ff ff       jne    0x8a9e0
   8aab4:       48 8b 45 10             mov    rax, QWORD PTR [rbp+0x10]
   8aab8:       48 2b 45 08             sub    rax, QWORD PTR [rbp+0x8]
   8aabc:       49 29 c4                sub    r12, rax
   8aabf:       48 8b 85 90 00 00 00    mov    rax, QWORD PTR [rbp+0x90]
   8aac6:       48 83 f8 ff             cmp    rax, 0xffffffffffffffff
   8aaca:       0f 84 50 01 00 00       je     0x8ac20
   8aad0:       49 01 c4                add    r12, rax
   8aad3:       0f 88 98 02 00 00       js     0x8ad71
   8aad9:       45 31 ed                xor    r13d, r13d
   8aadc:       48 89 ef                mov    rdi, rbp
   8aadf:       e8 5c 2d 00 00          call   0x8d840
   8aae4:       48 8b b5 90 00 00 00    mov    rsi, QWORD PTR [rbp+0x90]
   8aaeb:       8b 45 00                mov    eax, DWORD PTR [rbp+0x0]
   8aaee:       48 83 fe ff             cmp    rsi, 0xffffffffffffffff
   8aaf2:       74 3c                   je     0x8ab30
   8aaf4:       48 83 7d 18 00          cmp    QWORD PTR [rbp+0x18], 0x0
   8aaf9:       74 35                   je     0x8ab30
   8aafb:       f6 c4 01                test   ah, 0x1
   8aafe:       75 30                   jne    0x8ab30
   8ab00:       f3 0f 6f 45 30          movdqu xmm0, XMMWORD PTR [rbp+0x30]
   8ab05:       0f 12 d0                movhlps xmm2, xmm0
   8ab08:       66 0f 6f c8             movdqa xmm1, xmm0
   8ab0c:       66 48 0f 7e d1          movq   rcx, xmm2
   8ab11:       48 2b 4d 10             sub    rcx, QWORD PTR [rbp+0x10]
   8ab15:       66 0f 6d c8             punpckhqdq xmm1, xmm0
   8ab19:       66 48 0f 7e d2          movq   rdx, xmm2
   8ab1e:       48 01 f1                add    rcx, rsi
   8ab21:       4c 39 e6                cmp    rsi, r12
   8ab24:       7e 0a                   jle    0x8ab30
   8ab26:       49 39 cc                cmp    r12, rcx
   8ab29:       0f 8d f1 02 00 00       jge    0x8ae20
   8ab2f:       90                      nop
   8ab30:       4c 8d 35 c9 ae 18 00    lea    r14, [rip+0x18aec9]        # 0x215a00
   8ab37:       48 8d 1d 2a bc 18 00    lea    rbx, [rip+0x18bc2a]        # 0x216768
   8ab3e:       4c 29 f3                sub    rbx, r14
   8ab41:       a8 04                   test   al, 0x4
   8ab43:       0f 85 ef 00 00 00       jne    0x8ac38
   8ab49:       48 8b 55 38             mov    rdx, QWORD PTR [rbp+0x38]
   8ab4d:       48 8b 45 40             mov    rax, QWORD PTR [rbp+0x40]
   8ab51:       4d 89 e5                mov    r13, r12
   8ab54:       48 89 d6                mov    rsi, rdx
   8ab57:       48 29 c6                sub    rsi, rax
   8ab5a:       48 29 d0                sub    rax, rdx
   8ab5d:       4c 21 e6                and    rsi, r12
   8ab60:       49 29 f5                sub    r13, rsi
   8ab63:       4c 39 e8                cmp    rax, r13
   8ab66:       0f 8c cc 01 00 00       jl     0x8ad38
   8ab6c:       48 8b 85 d8 00 00 00    mov    rax, QWORD PTR [rbp+0xd8]
   8ab73:       48 89 c2                mov    rdx, rax
   8ab76:       4c 29 f2                sub    rdx, r14
   8ab79:       48 39 da                cmp    rdx, rbx
   8ab7c:       0f 83 0e 03 00 00       jae    0x8ae90
   8ab82:       31 d2                   xor    edx, edx
   8ab84:       48 89 ef                mov    rdi, rbp
   8ab87:       ff 90 80 00 00 00       call   QWORD PTR [rax+0x80]
   8ab8d:       48 89 c1                mov    rcx, rax
   8ab90:       48 85 c0                test   rax, rax
   8ab93:       0f 88 e6 01 00 00       js     0x8ad7f
   8ab99:       4d 85 ed                test   r13, r13
   8ab9c:       0f 84 a6 01 00 00       je     0x8ad48
   8aba2:       48 8b 85 d8 00 00 00    mov    rax, QWORD PTR [rbp+0xd8]
   8aba9:       48 89 c2                mov    rdx, rax
   8abac:       4c 29 f2                sub    rdx, r14
   8abaf:       48 39 da                cmp    rdx, rbx
   8abb2:       0f 83 28 03 00 00       jae    0x8aee0
   8abb8:       48 8b 40 70             mov    rax, QWORD PTR [rax+0x70]
   8abbc:       48 8b 75 38             mov    rsi, QWORD PTR [rbp+0x38]
   8abc0:       4c 89 ea                mov    rdx, r13
   8abc3:       45 85 ff                test   r15d, r15d
   8abc6:       75 07                   jne    0x8abcf
   8abc8:       48 8b 55 40             mov    rdx, QWORD PTR [rbp+0x40]
   8abcc:       48 29 f2                sub    rdx, rsi
   8abcf:       48 89 4c 24 08          mov    QWORD PTR [rsp+0x8], rcx
   8abd4:       48 89 ef                mov    rdi, rbp
   8abd7:       ff d0                   call   rax
   8abd9:       49 39 c5                cmp    r13, rax
   8abdc:       0f 8f 16 02 00 00       jg     0x8adf8
   8abe2:       48 8b 4c 24 08          mov    rcx, QWORD PTR [rsp+0x8]
   8abe7:       48 89 04 24             mov    QWORD PTR [rsp], rax
   8abeb:       48 01 c1                add    rcx, rax
   8abee:       f3 0f 7e 45 38          movq   xmm0, QWORD PTR [rbp+0x38]
   8abf3:       66 49 0f 6e cd          movq   xmm1, r13
   8abf8:       83 65 00 ef             and    DWORD PTR [rbp+0x0], 0xffffffef
   8abfc:       0f 16 0c 24             movhps xmm1, QWORD PTR [rsp]
   8ac00:       48 89 8d 90 00 00 00    mov    QWORD PTR [rbp+0x90], rcx
   8ac07:       66 0f 6c c0             punpcklqdq xmm0, xmm0
   8ac0b:       66 0f d4 c8             paddq  xmm1, xmm0
   8ac0f:       0f 11 45 18             movups XMMWORD PTR [rbp+0x18], xmm0
   8ac13:       0f 11 4d 08             movups XMMWORD PTR [rbp+0x8], xmm1
   8ac17:       0f 11 45 28             movups XMMWORD PTR [rbp+0x28], xmm0
   8ac1b:       4c 89 e0                mov    rax, r12
   8ac1e:       eb 6c                   jmp    0x8ac8c
   8ac20:       4c 8d 35 d9 ad 18 00    lea    r14, [rip+0x18add9]        # 0x215a00
   8ac27:       48 8d 1d 3a bb 18 00    lea    rbx, [rip+0x18bb3a]        # 0x216768
   8ac2e:       4c 29 f3                sub    rbx, r14
   8ac31:       0f 1f 80 00 00 00 00    nop    DWORD PTR [rax+0x0]
   8ac38:       48 89 ef                mov    rdi, rbp
   8ac3b:       e8 70 46 00 00          call   0x8f2b0
   8ac40:       4c 8b bd d8 00 00 00    mov    r15, QWORD PTR [rbp+0xd8]
   8ac47:       4c 89 f8                mov    rax, r15
   8ac4a:       4c 29 f0                sub    rax, r14
   8ac4d:       48 39 d8                cmp    rax, rbx
   8ac50:       0f 83 2a 02 00 00       jae    0x8ae80
   8ac56:       44 89 ea                mov    edx, r13d
   8ac59:       4c 89 e6                mov    rsi, r12
   8ac5c:       48 89 ef                mov    rdi, rbp
   8ac5f:       41 ff 97 80 00 00 00    call   QWORD PTR [r15+0x80]
   8ac66:       48 83 f8 ff             cmp    rax, 0xffffffffffffffff
   8ac6a:       74 20                   je     0x8ac8c
   8ac6c:       f3 0f 7e 45 38          movq   xmm0, QWORD PTR [rbp+0x38]
   8ac71:       83 65 00 ef             and    DWORD PTR [rbp+0x0], 0xffffffef
   8ac75:       48 89 85 90 00 00 00    mov    QWORD PTR [rbp+0x90], rax
   8ac7c:       66 0f 6c c0             punpcklqdq xmm0, xmm0
   8ac80:       0f 11 45 08             movups XMMWORD PTR [rbp+0x8], xmm0
   8ac84:       0f 11 45 18             movups XMMWORD PTR [rbp+0x18], xmm0
   8ac88:       0f 11 45 28             movups XMMWORD PTR [rbp+0x28], xmm0
   8ac8c:       48 8b 94 24 a8 00 00 00         mov    rdx, QWORD PTR [rsp+0xa8]
   8ac94:       64 48 2b 14 25 28 00 00 00      sub    rdx, QWORD PTR fs:0x28
   8ac9d:       0f 85 7e 02 00 00       jne    0x8af21
   8aca3:       48 81 c4 b8 00 00 00    add    rsp, 0xb8
   8acaa:       5b                      pop    rbx
   8acab:       5d                      pop    rbp
   8acac:       41 5c                   pop    r12
   8acae:       41 5d                   pop    r13
   8acb0:       41 5e                   pop    r14
   8acb2:       41 5f                   pop    r15
   8acb4:       c3                      ret    
   8acb5:       0f 1f 00                nop    DWORD PTR [rax]
   8acb8:       48 83 7f 38 00          cmp    QWORD PTR [rdi+0x38], 0x0
   8acbd:       0f 84 95 00 00 00       je     0x8ad58
   8acc3:       8b 17                   mov    edx, DWORD PTR [rdi]
   8acc5:       4c 8b 67 28             mov    r12, QWORD PTR [rdi+0x28]
   8acc9:       48 8b 4f 20             mov    rcx, QWORD PTR [rdi+0x20]
   8accd:       81 e2 00 10 00 00       and    edx, 0x1000
   8acd3:       49 39 cc                cmp    r12, rcx
   8acd6:       0f 86 b4 00 00 00       jbe    0x8ad90
   8acdc:       85 d2                   test   edx, edx
   8acde:       0f 84 ac 00 00 00       je     0x8ad90
   8ace4:       48 8b 9f d8 00 00 00    mov    rbx, QWORD PTR [rdi+0xd8]
   8aceb:       48 8d 15 0e ad 18 00    lea    rdx, [rip+0x18ad0e]        # 0x215a00
   8acf2:       48 8d 05 6f ba 18 00    lea    rax, [rip+0x18ba6f]        # 0x216768
   8acf9:       48 29 d0                sub    rax, rdx
   8acfc:       48 89 d9                mov    rcx, rbx
   8acff:       48 29 d1                sub    rcx, rdx
   8ad02:       48 39 c8                cmp    rax, rcx
   8ad05:       0f 86 f1 01 00 00       jbe    0x8aefc
   8ad0b:       31 f6                   xor    esi, esi
   8ad0d:       ba 02 00 00 00          mov    edx, 0x2
   8ad12:       48 89 ef                mov    rdi, rbp
   8ad15:       ff 93 80 00 00 00       call   QWORD PTR [rbx+0x80]
   8ad1b:       48 83 f8 ff             cmp    rax, 0xffffffffffffffff
   8ad1f:       74 5e                   je     0x8ad7f
   8ad21:       48 89 85 90 00 00 00    mov    QWORD PTR [rbp+0x90], rax
   8ad28:       4c 8b 65 28             mov    r12, QWORD PTR [rbp+0x28]
   8ad2c:       4c 2b 65 20             sub    r12, QWORD PTR [rbp+0x20]
   8ad30:       eb 30                   jmp    0x8ad62
   8ad32:       66 0f 1f 44 00 00       nop    WORD PTR [rax+rax*1+0x0]
   8ad38:       4c 89 e6                mov    rsi, r12
   8ad3b:       45 31 ed                xor    r13d, r13d
   8ad3e:       e9 29 fe ff ff          jmp    0x8ab6c
   8ad43:       0f 1f 44 00 00          nop    DWORD PTR [rax+rax*1+0x0]
   8ad48:       48 c7 04 24 00 00 00 00         mov    QWORD PTR [rsp], 0x0
   8ad50:       e9 99 fe ff ff          jmp    0x8abee
   8ad55:       0f 1f 00                nop    DWORD PTR [rax]
   8ad58:       48 8b 87 90 00 00 00    mov    rax, QWORD PTR [rdi+0x90]
   8ad5f:       45 31 e4                xor    r12d, r12d
   8ad62:       48 83 f8 ff             cmp    rax, 0xffffffffffffffff
   8ad66:       74 48                   je     0x8adb0
   8ad68:       4c 01 e0                add    rax, r12
   8ad6b:       0f 89 1b ff ff ff       jns    0x8ac8c
   8ad71:       48 8b 05 98 e0 18 00    mov    rax, QWORD PTR [rip+0x18e098]        # 0x218e10
   8ad78:       64 c7 00 16 00 00 00    mov    DWORD PTR fs:[rax], 0x16
   8ad7f:       48 c7 c0 ff ff ff ff    mov    rax, 0xffffffffffffffff
   8ad86:       e9 01 ff ff ff          jmp    0x8ac8c
   8ad8b:       0f 1f 44 00 00          nop    DWORD PTR [rax+rax*1+0x0]
   8ad90:       48 8b 85 90 00 00 00    mov    rax, QWORD PTR [rbp+0x90]
   8ad97:       49 39 cc                cmp    r12, rcx
   8ad9a:       0f 87 10 01 00 00       ja     0x8aeb0
   8ada0:       4c 8b 65 08             mov    r12, QWORD PTR [rbp+0x8]
   8ada4:       4c 2b 65 10             sub    r12, QWORD PTR [rbp+0x10]
   8ada8:       eb b8                   jmp    0x8ad62
   8adaa:       66 0f 1f 44 00 00       nop    WORD PTR [rax+rax*1+0x0]
   8adb0:       48 8b 9d d8 00 00 00    mov    rbx, QWORD PTR [rbp+0xd8]
   8adb7:       48 8d 15 42 ac 18 00    lea    rdx, [rip+0x18ac42]        # 0x215a00
   8adbe:       48 8d 05 a3 b9 18 00    lea    rax, [rip+0x18b9a3]        # 0x216768
   8adc5:       48 29 d0                sub    rax, rdx
   8adc8:       48 89 d9                mov    rcx, rbx
   8adcb:       48 29 d1                sub    rcx, rdx
   8adce:       48 39 c8                cmp    rax, rcx
   8add1:       0f 86 2f 01 00 00       jbe    0x8af06
   8add7:       31 f6                   xor    esi, esi
   8add9:       ba 01 00 00 00          mov    edx, 0x1
   8adde:       48 89 ef                mov    rdi, rbp
   8ade1:       ff 93 80 00 00 00       call   QWORD PTR [rbx+0x80]
   8ade7:       48 83 f8 ff             cmp    rax, 0xffffffffffffffff
   8adeb:       0f 85 77 ff ff ff       jne    0x8ad68
   8adf1:       eb 8c                   jmp    0x8ad7f
   8adf3:       0f 1f 44 00 00          nop    DWORD PTR [rax+rax*1+0x0]
   8adf8:       4d 89 ec                mov    r12, r13
   8adfb:       41 bd 01 00 00 00       mov    r13d, 0x1
   8ae01:       48 83 f8 ff             cmp    rax, 0xffffffffffffffff
   8ae05:       0f 84 2d fe ff ff       je     0x8ac38
   8ae0b:       49 29 c4                sub    r12, rax
   8ae0e:       41 bd 01 00 00 00       mov    r13d, 0x1
   8ae14:       e9 1f fe ff ff          jmp    0x8ac38
   8ae19:       0f 1f 80 00 00 00 00    nop    DWORD PTR [rax+0x0]
   8ae20:       4c 89 e7                mov    rdi, r12
   8ae23:       83 e0 ef                and    eax, 0xffffffef
   8ae26:       0f 11 4d 18             movups XMMWORD PTR [rbp+0x18], xmm1
   8ae2a:       48 29 cf                sub    rdi, rcx
   8ae2d:       89 45 00                mov    DWORD PTR [rbp+0x0], eax
   8ae30:       48 01 fa                add    rdx, rdi
   8ae33:       0f 11 4d 28             movups XMMWORD PTR [rbp+0x28], xmm1
   8ae37:       48 89 55 08             mov    QWORD PTR [rbp+0x8], rdx
   8ae3b:       48 85 f6                test   rsi, rsi
   8ae3e:       0f 88 d7 fd ff ff       js     0x8ac1b
   8ae44:       48 8b 9d d8 00 00 00    mov    rbx, QWORD PTR [rbp+0xd8]
   8ae4b:       48 8d 15 ae ab 18 00    lea    rdx, [rip+0x18abae]        # 0x215a00
   8ae52:       48 8d 05 0f b9 18 00    lea    rax, [rip+0x18b90f]        # 0x216768
   8ae59:       48 29 d0                sub    rax, rdx
   8ae5c:       48 89 d9                mov    rcx, rbx
   8ae5f:       48 29 d1                sub    rcx, rdx
   8ae62:       48 39 c8                cmp    rax, rcx
   8ae65:       0f 86 a5 00 00 00       jbe    0x8af10
   8ae6b:       31 d2                   xor    edx, edx
   8ae6d:       48 89 ef                mov    rdi, rbp
   8ae70:       ff 93 80 00 00 00       call   QWORD PTR [rbx+0x80]
   8ae76:       4c 89 e0                mov    rax, r12
   8ae79:       e9 0e fe ff ff          jmp    0x8ac8c
   8ae7e:       66 90                   xchg   ax, ax
   8ae80:       e8 eb f0 ff ff          call   0x89f70
   8ae85:       e9 cc fd ff ff          jmp    0x8ac56
   8ae8a:       66 0f 1f 44 00 00       nop    WORD PTR [rax+rax*1+0x0]
   8ae90:       48 89 74 24 08          mov    QWORD PTR [rsp+0x8], rsi
   8ae95:       48 89 04 24             mov    QWORD PTR [rsp], rax
   8ae99:       e8 d2 f0 ff ff          call   0x89f70
   8ae9e:       48 8b 74 24 08          mov    rsi, QWORD PTR [rsp+0x8]
   8aea3:       48 8b 04 24             mov    rax, QWORD PTR [rsp]
   8aea7:       e9 d6 fc ff ff          jmp    0x8ab82
   8aeac:       0f 1f 40 00             nop    DWORD PTR [rax+0x0]
   8aeb0:       85 d2                   test   edx, edx
   8aeb2:       0f 85 74 fe ff ff       jne    0x8ad2c
   8aeb8:       4c 2b 65 10             sub    r12, QWORD PTR [rbp+0x10]
   8aebc:       e9 a1 fe ff ff          jmp    0x8ad62
   8aec1:       0f 1f 80 00 00 00 00    nop    DWORD PTR [rax+0x0]
   8aec8:       48 89 04 24             mov    QWORD PTR [rsp], rax
   8aecc:       e8 9f f0 ff ff          call   0x89f70
   8aed1:       48 8b 04 24             mov    rax, QWORD PTR [rsp]
   8aed5:       e9 37 fb ff ff          jmp    0x8aa11
   8aeda:       66 0f 1f 44 00 00       nop    WORD PTR [rax+rax*1+0x0]
   8aee0:       48 89 4c 24 08          mov    QWORD PTR [rsp+0x8], rcx
   8aee5:       48 89 04 24             mov    QWORD PTR [rsp], rax
   8aee9:       e8 82 f0 ff ff          call   0x89f70
   8aeee:       48 8b 4c 24 08          mov    rcx, QWORD PTR [rsp+0x8]
   8aef3:       48 8b 04 24             mov    rax, QWORD PTR [rsp]
   8aef7:       e9 bc fc ff ff          jmp    0x8abb8
   8aefc:       e8 6f f0 ff ff          call   0x89f70
   8af01:       e9 05 fe ff ff          jmp    0x8ad0b
   8af06:       e8 65 f0 ff ff          call   0x89f70
   8af0b:       e9 c7 fe ff ff          jmp    0x8add7
   8af10:       e8 5b f0 ff ff          call   0x89f70
   8af15:       48 8b b5 90 00 00 00    mov    rsi, QWORD PTR [rbp+0x90]
   8af1c:       e9 4a ff ff ff          jmp    0x8ae6b
   8af21:       e8 fa b7 0a 00          call   0x136720
================
_IO_file_seekoff 0x8a960
   8a960:       f3 0f 1e fa             endbr64 
   8a964:       41 57                   push   r15
   8a966:       41 56                   push   r14
   8a968:       41 55                   push   r13
   8a96a:       41 54                   push   r12
   8a96c:       55                      push   rbp
   8a96d:       48 89 fd                mov    rbp, rdi
   8a970:       53                      push   rbx
   8a971:       48 81 ec b8 00 00 00    sub    rsp, 0xb8
   8a978:       64 48 8b 04 25 28 00 00 00      mov    rax, QWORD PTR fs:0x28
   8a981:       48 89 84 24 a8 00 00 00         mov    QWORD PTR [rsp+0xa8], rax
   8a989:       31 c0                   xor    eax, eax
   8a98b:       85 c9                   test   ecx, ecx
   8a98d:       0f 84 25 03 00 00       je     0x8acb8
   8a993:       41 89 d5                mov    r13d, edx
   8a996:       48 8b 47 20             mov    rax, QWORD PTR [rdi+0x20]
   8a99a:       48 8b 57 28             mov    rdx, QWORD PTR [rdi+0x28]
   8a99e:       49 89 f4                mov    r12, rsi
   8a9a1:       48 8b 5f 10             mov    rbx, QWORD PTR [rdi+0x10]
   8a9a5:       48 39 5f 18             cmp    QWORD PTR [rdi+0x18], rbx
   8a9a9:       0f 84 99 00 00 00       je     0x8aa48
   8a9af:       45 31 ff                xor    r15d, r15d
   8a9b2:       48 39 c2                cmp    rdx, rax
   8a9b5:       0f 86 a5 00 00 00       jbe    0x8aa60
   8a9bb:       48 89 ef                mov    rdi, rbp
   8a9be:       e8 dd 2d 00 00          call   0x8d7a0
   8a9c3:       85 c0                   test   eax, eax
   8a9c5:       0f 85 b4 03 00 00       jne    0x8ad7f
   8a9cb:       48 83 7d 38 00          cmp    QWORD PTR [rbp+0x38], 0x0
   8a9d0:       0f 84 a2 00 00 00       je     0x8aa78
   8a9d6:       41 83 fd 01             cmp    r13d, 0x1
   8a9da:       0f 84 d4 00 00 00       je     0x8aab4
   8a9e0:       41 83 fd 02             cmp    r13d, 0x2
   8a9e4:       0f 85 f2 00 00 00       jne    0x8aadc
   8a9ea:       48 8b 85 d8 00 00 00    mov    rax, QWORD PTR [rbp+0xd8]
   8a9f1:       4c 8d 35 08 b0 18 00    lea    r14, [rip+0x18b008]        # 0x215a00
   8a9f8:       48 8d 1d 69 bd 18 00    lea    rbx, [rip+0x18bd69]        # 0x216768
   8a9ff:       4c 29 f3                sub    rbx, r14
   8aa02:       48 89 c2                mov    rdx, rax
   8aa05:       4c 29 f2                sub    rdx, r14
   8aa08:       48 39 da                cmp    rdx, rbx
   8aa0b:       0f 83 b7 04 00 00       jae    0x8aec8
   8aa11:       48 8d 74 24 10          lea    rsi, [rsp+0x10]
   8aa16:       48 89 ef                mov    rdi, rbp
   8aa19:       ff 90 90 00 00 00       call   QWORD PTR [rax+0x90]
   8aa1f:       85 c0                   test   eax, eax
   8aa21:       0f 85 11 02 00 00       jne    0x8ac38
   8aa27:       8b 44 24 28             mov    eax, DWORD PTR [rsp+0x28]
   8aa2b:       25 00 f0 00 00          and    eax, 0xf000
   8aa30:       3d 00 80 00 00          cmp    eax, 0x8000
   8aa35:       0f 85 fd 01 00 00       jne    0x8ac38
   8aa3b:       4c 03 64 24 40          add    r12, QWORD PTR [rsp+0x40]
   8aa40:       e9 94 00 00 00          jmp    0x8aad9
   8aa45:       0f 1f 00                nop    DWORD PTR [rax]
   8aa48:       48 39 c2                cmp    rdx, rax
   8aa4b:       0f 85 5e ff ff ff       jne    0x8a9af
   8aa51:       41 bf 01 00 00 00       mov    r15d, 0x1
   8aa57:       66 0f 1f 84 00 00 00 00 00      nop    WORD PTR [rax+rax*1+0x0]
   8aa60:       f7 45 00 00 08 00 00    test   DWORD PTR [rbp+0x0], 0x800
   8aa67:       0f 85 4e ff ff ff       jne    0x8a9bb
   8aa6d:       48 83 7d 38 00          cmp    QWORD PTR [rbp+0x38], 0x0
   8aa72:       0f 85 5e ff ff ff       jne    0x8a9d6
   8aa78:       48 8b 7d 18             mov    rdi, QWORD PTR [rbp+0x18]
   8aa7c:       48 85 ff                test   rdi, rdi
   8aa7f:       74 0c                   je     0x8aa8d
   8aa81:       e8 ea d8 f9 ff          call   0x28370
   8aa86:       81 65 00 ff fe ff ff    and    DWORD PTR [rbp+0x0], 0xfffffeff
   8aa8d:       48 89 ef                mov    rdi, rbp
   8aa90:       e8 7b 32 00 00          call   0x8dd10
   8aa95:       f3 0f 7e 45 38          movq   xmm0, QWORD PTR [rbp+0x38]
   8aa9a:       66 0f 6c c0             punpcklqdq xmm0, xmm0
   8aa9e:       0f 11 45 08             movups XMMWORD PTR [rbp+0x8], xmm0
   8aaa2:       0f 11 45 18             movups XMMWORD PTR [rbp+0x18], xmm0
   8aaa6:       0f 11 45 28             movups XMMWORD PTR [rbp+0x28], xmm0
   8aaaa:       41 83 fd 01             cmp    r13d, 0x1
   8aaae:       0f 85 2c ff ff ff       jne    0x8a9e0
   8aab4:       48 8b 45 10             mov    rax, QWORD PTR [rbp+0x10]
   8aab8:       48 2b 45 08             sub    rax, QWORD PTR [rbp+0x8]
   8aabc:       49 29 c4                sub    r12, rax
   8aabf:       48 8b 85 90 00 00 00    mov    rax, QWORD PTR [rbp+0x90]
   8aac6:       48 83 f8 ff             cmp    rax, 0xffffffffffffffff
   8aaca:       0f 84 50 01 00 00       je     0x8ac20
   8aad0:       49 01 c4                add    r12, rax
   8aad3:       0f 88 98 02 00 00       js     0x8ad71
   8aad9:       45 31 ed                xor    r13d, r13d
   8aadc:       48 89 ef                mov    rdi, rbp
   8aadf:       e8 5c 2d 00 00          call   0x8d840
   8aae4:       48 8b b5 90 00 00 00    mov    rsi, QWORD PTR [rbp+0x90]
   8aaeb:       8b 45 00                mov    eax, DWORD PTR [rbp+0x0]
   8aaee:       48 83 fe ff             cmp    rsi, 0xffffffffffffffff
   8aaf2:       74 3c                   je     0x8ab30
   8aaf4:       48 83 7d 18 00          cmp    QWORD PTR [rbp+0x18], 0x0
   8aaf9:       74 35                   je     0x8ab30
   8aafb:       f6 c4 01                test   ah, 0x1
   8aafe:       75 30                   jne    0x8ab30
   8ab00:       f3 0f 6f 45 30          movdqu xmm0, XMMWORD PTR [rbp+0x30]
   8ab05:       0f 12 d0                movhlps xmm2, xmm0
   8ab08:       66 0f 6f c8             movdqa xmm1, xmm0
   8ab0c:       66 48 0f 7e d1          movq   rcx, xmm2
   8ab11:       48 2b 4d 10             sub    rcx, QWORD PTR [rbp+0x10]
   8ab15:       66 0f 6d c8             punpckhqdq xmm1, xmm0
   8ab19:       66 48 0f 7e d2          movq   rdx, xmm2
   8ab1e:       48 01 f1                add    rcx, rsi
   8ab21:       4c 39 e6                cmp    rsi, r12
   8ab24:       7e 0a                   jle    0x8ab30
   8ab26:       49 39 cc                cmp    r12, rcx
   8ab29:       0f 8d f1 02 00 00       jge    0x8ae20
   8ab2f:       90                      nop
   8ab30:       4c 8d 35 c9 ae 18 00    lea    r14, [rip+0x18aec9]        # 0x215a00
   8ab37:       48 8d 1d 2a bc 18 00    lea    rbx, [rip+0x18bc2a]        # 0x216768
   8ab3e:       4c 29 f3                sub    rbx, r14
   8ab41:       a8 04                   test   al, 0x4
   8ab43:       0f 85 ef 00 00 00       jne    0x8ac38
   8ab49:       48 8b 55 38             mov    rdx, QWORD PTR [rbp+0x38]
   8ab4d:       48 8b 45 40             mov    rax, QWORD PTR [rbp+0x40]
   8ab51:       4d 89 e5                mov    r13, r12
   8ab54:       48 89 d6                mov    rsi, rdx
   8ab57:       48 29 c6                sub    rsi, rax
   8ab5a:       48 29 d0                sub    rax, rdx
   8ab5d:       4c 21 e6                and    rsi, r12
   8ab60:       49 29 f5                sub    r13, rsi
   8ab63:       4c 39 e8                cmp    rax, r13
   8ab66:       0f 8c cc 01 00 00       jl     0x8ad38
   8ab6c:       48 8b 85 d8 00 00 00    mov    rax, QWORD PTR [rbp+0xd8]
   8ab73:       48 89 c2                mov    rdx, rax
   8ab76:       4c 29 f2                sub    rdx, r14
   8ab79:       48 39 da                cmp    rdx, rbx
   8ab7c:       0f 83 0e 03 00 00       jae    0x8ae90
   8ab82:       31 d2                   xor    edx, edx
   8ab84:       48 89 ef                mov    rdi, rbp
   8ab87:       ff 90 80 00 00 00       call   QWORD PTR [rax+0x80]
   8ab8d:       48 89 c1                mov    rcx, rax
   8ab90:       48 85 c0                test   rax, rax
   8ab93:       0f 88 e6 01 00 00       js     0x8ad7f
   8ab99:       4d 85 ed                test   r13, r13
   8ab9c:       0f 84 a6 01 00 00       je     0x8ad48
   8aba2:       48 8b 85 d8 00 00 00    mov    rax, QWORD PTR [rbp+0xd8]
   8aba9:       48 89 c2                mov    rdx, rax
   8abac:       4c 29 f2                sub    rdx, r14
   8abaf:       48 39 da                cmp    rdx, rbx
   8abb2:       0f 83 28 03 00 00       jae    0x8aee0
   8abb8:       48 8b 40 70             mov    rax, QWORD PTR [rax+0x70]
   8abbc:       48 8b 75 38             mov    rsi, QWORD PTR [rbp+0x38]
   8abc0:       4c 89 ea                mov    rdx, r13
   8abc3:       45 85 ff                test   r15d, r15d
   8abc6:       75 07                   jne    0x8abcf
   8abc8:       48 8b 55 40             mov    rdx, QWORD PTR [rbp+0x40]
   8abcc:       48 29 f2                sub    rdx, rsi
   8abcf:       48 89 4c 24 08          mov    QWORD PTR [rsp+0x8], rcx
   8abd4:       48 89 ef                mov    rdi, rbp
   8abd7:       ff d0                   call   rax
   8abd9:       49 39 c5                cmp    r13, rax
   8abdc:       0f 8f 16 02 00 00       jg     0x8adf8
   8abe2:       48 8b 4c 24 08          mov    rcx, QWORD PTR [rsp+0x8]
   8abe7:       48 89 04 24             mov    QWORD PTR [rsp], rax
   8abeb:       48 01 c1                add    rcx, rax
   8abee:       f3 0f 7e 45 38          movq   xmm0, QWORD PTR [rbp+0x38]
   8abf3:       66 49 0f 6e cd          movq   xmm1, r13
   8abf8:       83 65 00 ef             and    DWORD PTR [rbp+0x0], 0xffffffef
   8abfc:       0f 16 0c 24             movhps xmm1, QWORD PTR [rsp]
   8ac00:       48 89 8d 90 00 00 00    mov    QWORD PTR [rbp+0x90], rcx
   8ac07:       66 0f 6c c0             punpcklqdq xmm0, xmm0
   8ac0b:       66 0f d4 c8             paddq  xmm1, xmm0
   8ac0f:       0f 11 45 18             movups XMMWORD PTR [rbp+0x18], xmm0
   8ac13:       0f 11 4d 08             movups XMMWORD PTR [rbp+0x8], xmm1
   8ac17:       0f 11 45 28             movups XMMWORD PTR [rbp+0x28], xmm0
   8ac1b:       4c 89 e0                mov    rax, r12
   8ac1e:       eb 6c                   jmp    0x8ac8c
   8ac20:       4c 8d 35 d9 ad 18 00    lea    r14, [rip+0x18add9]        # 0x215a00
   8ac27:       48 8d 1d 3a bb 18 00    lea    rbx, [rip+0x18bb3a]        # 0x216768
   8ac2e:       4c 29 f3                sub    rbx, r14
   8ac31:       0f 1f 80 00 00 00 00    nop    DWORD PTR [rax+0x0]
   8ac38:       48 89 ef                mov    rdi, rbp
   8ac3b:       e8 70 46 00 00          call   0x8f2b0
   8ac40:       4c 8b bd d8 00 00 00    mov    r15, QWORD PTR [rbp+0xd8]
   8ac47:       4c 89 f8                mov    rax, r15
   8ac4a:       4c 29 f0                sub    rax, r14
   8ac4d:       48 39 d8                cmp    rax, rbx
   8ac50:       0f 83 2a 02 00 00       jae    0x8ae80
   8ac56:       44 89 ea                mov    edx, r13d
   8ac59:       4c 89 e6                mov    rsi, r12
   8ac5c:       48 89 ef                mov    rdi, rbp
   8ac5f:       41 ff 97 80 00 00 00    call   QWORD PTR [r15+0x80]
   8ac66:       48 83 f8 ff             cmp    rax, 0xffffffffffffffff
   8ac6a:       74 20                   je     0x8ac8c
   8ac6c:       f3 0f 7e 45 38          movq   xmm0, QWORD PTR [rbp+0x38]
   8ac71:       83 65 00 ef             and    DWORD PTR [rbp+0x0], 0xffffffef
   8ac75:       48 89 85 90 00 00 00    mov    QWORD PTR [rbp+0x90], rax
   8ac7c:       66 0f 6c c0             punpcklqdq xmm0, xmm0
   8ac80:       0f 11 45 08             movups XMMWORD PTR [rbp+0x8], xmm0
   8ac84:       0f 11 45 18             movups XMMWORD PTR [rbp+0x18], xmm0
   8ac88:       0f 11 45 28             movups XMMWORD PTR [rbp+0x28], xmm0
   8ac8c:       48 8b 94 24 a8 00 00 00         mov    rdx, QWORD PTR [rsp+0xa8]
   8ac94:       64 48 2b 14 25 28 00 00 00      sub    rdx, QWORD PTR fs:0x28
   8ac9d:       0f 85 7e 02 00 00       jne    0x8af21
   8aca3:       48 81 c4 b8 00 00 00    add    rsp, 0xb8
   8acaa:       5b                      pop    rbx
   8acab:       5d                      pop    rbp
   8acac:       41 5c                   pop    r12
   8acae:       41 5d                   pop    r13
   8acb0:       41 5e                   pop    r14
   8acb2:       41 5f                   pop    r15
   8acb4:       c3                      ret    
   8acb5:       0f 1f 00                nop    DWORD PTR [rax]
   8acb8:       48 83 7f 38 00          cmp    QWORD PTR [rdi+0x38], 0x0
   8acbd:       0f 84 95 00 00 00       je     0x8ad58
   8acc3:       8b 17                   mov    edx, DWORD PTR [rdi]
   8acc5:       4c 8b 67 28             mov    r12, QWORD PTR [rdi+0x28]
   8acc9:       48 8b 4f 20             mov    rcx, QWORD PTR [rdi+0x20]
   8accd:       81 e2 00 10 00 00       and    edx, 0x1000
   8acd3:       49 39 cc                cmp    r12, rcx
   8acd6:       0f 86 b4 00 00 00       jbe    0x8ad90
   8acdc:       85 d2                   test   edx, edx
   8acde:       0f 84 ac 00 00 00       je     0x8ad90
   8ace4:       48 8b 9f d8 00 00 00    mov    rbx, QWORD PTR [rdi+0xd8]
   8aceb:       48 8d 15 0e ad 18 00    lea    rdx, [rip+0x18ad0e]        # 0x215a00
   8acf2:       48 8d 05 6f ba 18 00    lea    rax, [rip+0x18ba6f]        # 0x216768
   8acf9:       48 29 d0                sub    rax, rdx
   8acfc:       48 89 d9                mov    rcx, rbx
   8acff:       48 29 d1                sub    rcx, rdx
   8ad02:       48 39 c8                cmp    rax, rcx
   8ad05:       0f 86 f1 01 00 00       jbe    0x8aefc
   8ad0b:       31 f6                   xor    esi, esi
   8ad0d:       ba 02 00 00 00          mov    edx, 0x2
   8ad12:       48 89 ef                mov    rdi, rbp
   8ad15:       ff 93 80 00 00 00       call   QWORD PTR [rbx+0x80]
   8ad1b:       48 83 f8 ff             cmp    rax, 0xffffffffffffffff
   8ad1f:       74 5e                   je     0x8ad7f
   8ad21:       48 89 85 90 00 00 00    mov    QWORD PTR [rbp+0x90], rax
   8ad28:       4c 8b 65 28             mov    r12, QWORD PTR [rbp+0x28]
   8ad2c:       4c 2b 65 20             sub    r12, QWORD PTR [rbp+0x20]
   8ad30:       eb 30                   jmp    0x8ad62
   8ad32:       66 0f 1f 44 00 00       nop    WORD PTR [rax+rax*1+0x0]
   8ad38:       4c 89 e6                mov    rsi, r12
   8ad3b:       45 31 ed                xor    r13d, r13d
   8ad3e:       e9 29 fe ff ff          jmp    0x8ab6c
   8ad43:       0f 1f 44 00 00          nop    DWORD PTR [rax+rax*1+0x0]
   8ad48:       48 c7 04 24 00 00 00 00         mov    QWORD PTR [rsp], 0x0
   8ad50:       e9 99 fe ff ff          jmp    0x8abee
   8ad55:       0f 1f 00                nop    DWORD PTR [rax]
   8ad58:       48 8b 87 90 00 00 00    mov    rax, QWORD PTR [rdi+0x90]
   8ad5f:       45 31 e4                xor    r12d, r12d
   8ad62:       48 83 f8 ff             cmp    rax, 0xffffffffffffffff
   8ad66:       74 48                   je     0x8adb0
   8ad68:       4c 01 e0                add    rax, r12
   8ad6b:       0f 89 1b ff ff ff       jns    0x8ac8c
   8ad71:       48 8b 05 98 e0 18 00    mov    rax, QWORD PTR [rip+0x18e098]        # 0x218e10
   8ad78:       64 c7 00 16 00 00 00    mov    DWORD PTR fs:[rax], 0x16
   8ad7f:       48 c7 c0 ff ff ff ff    mov    rax, 0xffffffffffffffff
   8ad86:       e9 01 ff ff ff          jmp    0x8ac8c
   8ad8b:       0f 1f 44 00 00          nop    DWORD PTR [rax+rax*1+0x0]
   8ad90:       48 8b 85 90 00 00 00    mov    rax, QWORD PTR [rbp+0x90]
   8ad97:       49 39 cc                cmp    r12, rcx
   8ad9a:       0f 87 10 01 00 00       ja     0x8aeb0
   8ada0:       4c 8b 65 08             mov    r12, QWORD PTR [rbp+0x8]
   8ada4:       4c 2b 65 10             sub    r12, QWORD PTR [rbp+0x10]
   8ada8:       eb b8                   jmp    0x8ad62
   8adaa:       66 0f 1f 44 00 00       nop    WORD PTR [rax+rax*1+0x0]
   8adb0:       48 8b 9d d8 00 00 00    mov    rbx, QWORD PTR [rbp+0xd8]
   8adb7:       48 8d 15 42 ac 18 00    lea    rdx, [rip+0x18ac42]        # 0x215a00
   8adbe:       48 8d 05 a3 b9 18 00    lea    rax, [rip+0x18b9a3]        # 0x216768
   8adc5:       48 29 d0                sub    rax, rdx
   8adc8:       48 89 d9                mov    rcx, rbx
   8adcb:       48 29 d1                sub    rcx, rdx
   8adce:       48 39 c8                cmp    rax, rcx
   8add1:       0f 86 2f 01 00 00       jbe    0x8af06
   8add7:       31 f6                   xor    esi, esi
   8add9:       ba 01 00 00 00          mov    edx, 0x1
   8adde:       48 89 ef                mov    rdi, rbp
   8ade1:       ff 93 80 00 00 00       call   QWORD PTR [rbx+0x80]
   8ade7:       48 83 f8 ff             cmp    rax, 0xffffffffffffffff
   8adeb:       0f 85 77 ff ff ff       jne    0x8ad68
   8adf1:       eb 8c                   jmp    0x8ad7f
   8adf3:       0f 1f 44 00 00          nop    DWORD PTR [rax+rax*1+0x0]
   8adf8:       4d 89 ec                mov    r12, r13
   8adfb:       41 bd 01 00 00 00       mov    r13d, 0x1
   8ae01:       48 83 f8 ff             cmp    rax, 0xffffffffffffffff
   8ae05:       0f 84 2d fe ff ff       je     0x8ac38
   8ae0b:       49 29 c4                sub    r12, rax
   8ae0e:       41 bd 01 00 00 00       mov    r13d, 0x1
   8ae14:       e9 1f fe ff ff          jmp    0x8ac38
   8ae19:       0f 1f 80 00 00 00 00    nop    DWORD PTR [rax+0x0]
   8ae20:       4c 89 e7                mov    rdi, r12
   8ae23:       83 e0 ef                and    eax, 0xffffffef
   8ae26:       0f 11 4d 18             movups XMMWORD PTR [rbp+0x18], xmm1
   8ae2a:       48 29 cf                sub    rdi, rcx
   8ae2d:       89 45 00                mov    DWORD PTR [rbp+0x0], eax
   8ae30:       48 01 fa                add    rdx, rdi
   8ae33:       0f 11 4d 28             movups XMMWORD PTR [rbp+0x28], xmm1
   8ae37:       48 89 55 08             mov    QWORD PTR [rbp+0x8], rdx
   8ae3b:       48 85 f6                test   rsi, rsi
   8ae3e:       0f 88 d7 fd ff ff       js     0x8ac1b
   8ae44:       48 8b 9d d8 00 00 00    mov    rbx, QWORD PTR [rbp+0xd8]
   8ae4b:       48 8d 15 ae ab 18 00    lea    rdx, [rip+0x18abae]        # 0x215a00
   8ae52:       48 8d 05 0f b9 18 00    lea    rax, [rip+0x18b90f]        # 0x216768
   8ae59:       48 29 d0                sub    rax, rdx
   8ae5c:       48 89 d9                mov    rcx, rbx
   8ae5f:       48 29 d1                sub    rcx, rdx
   8ae62:       48 39 c8                cmp    rax, rcx
   8ae65:       0f 86 a5 00 00 00       jbe    0x8af10
   8ae6b:       31 d2                   xor    edx, edx
   8ae6d:       48 89 ef                mov    rdi, rbp
   8ae70:       ff 93 80 00 00 00       call   QWORD PTR [rbx+0x80]
   8ae76:       4c 89 e0                mov    rax, r12
   8ae79:       e9 0e fe ff ff          jmp    0x8ac8c
   8ae7e:       66 90                   xchg   ax, ax
   8ae80:       e8 eb f0 ff ff          call   0x89f70
   8ae85:       e9 cc fd ff ff          jmp    0x8ac56
   8ae8a:       66 0f 1f 44 00 00       nop    WORD PTR [rax+rax*1+0x0]
   8ae90:       48 89 74 24 08          mov    QWORD PTR [rsp+0x8], rsi
   8ae95:       48 89 04 24             mov    QWORD PTR [rsp], rax
   8ae99:       e8 d2 f0 ff ff          call   0x89f70
   8ae9e:       48 8b 74 24 08          mov    rsi, QWORD PTR [rsp+0x8]
   8aea3:       48 8b 04 24             mov    rax, QWORD PTR [rsp]
   8aea7:       e9 d6 fc ff ff          jmp    0x8ab82
   8aeac:       0f 1f 40 00             nop    DWORD PTR [rax+0x0]
   8aeb0:       85 d2                   test   edx, edx
   8aeb2:       0f 85 74 fe ff ff       jne    0x8ad2c
   8aeb8:       4c 2b 65 10             sub    r12, QWORD PTR [rbp+0x10]
   8aebc:       e9 a1 fe ff ff          jmp    0x8ad62
   8aec1:       0f 1f 80 00 00 00 00    nop    DWORD PTR [rax+0x0]
   8aec8:       48 89 04 24             mov    QWORD PTR [rsp], rax
   8aecc:       e8 9f f0 ff ff          call   0x89f70
   8aed1:       48 8b 04 24             mov    rax, QWORD PTR [rsp]
   8aed5:       e9 37 fb ff ff          jmp    0x8aa11
   8aeda:       66 0f 1f 44 00 00       nop    WORD PTR [rax+rax*1+0x0]
   8aee0:       48 89 4c 24 08          mov    QWORD PTR [rsp+0x8], rcx
   8aee5:       48 89 04 24             mov    QWORD PTR [rsp], rax
   8aee9:       e8 82 f0 ff ff          call   0x89f70
   8aeee:       48 8b 4c 24 08          mov    rcx, QWORD PTR [rsp+0x8]
   8aef3:       48 8b 04 24             mov    rax, QWORD PTR [rsp]
   8aef7:       e9 bc fc ff ff          jmp    0x8abb8
   8aefc:       e8 6f f0 ff ff          call   0x89f70
   8af01:       e9 05 fe ff ff          jmp    0x8ad0b
   8af06:       e8 65 f0 ff ff          call   0x89f70
   8af0b:       e9 c7 fe ff ff          jmp    0x8add7
   8af10:       e8 5b f0 ff ff          call   0x89f70
   8af15:       48 8b b5 90 00 00 00    mov    rsi, QWORD PTR [rbp+0x90]
   8af1c:       e9 4a ff ff ff          jmp    0x8ae6b
   8af21:       e8 fa b7 0a 00          call   0x136720
================
_IO_proc_close 0x80860
   80860:       f3 0f 1e fa             endbr64 
   80864:       41 55                   push   r13
   80866:       4c 8d 2d a3 b1 19 00    lea    r13, [rip+0x19b1a3]        # 0x21ba10
   8086d:       41 54                   push   r12
   8086f:       55                      push   rbp
   80870:       48 89 fd                mov    rbp, rdi
   80873:       53                      push   rbx
   80874:       48 83 ec 48             sub    rsp, 0x48
   80878:       64 48 8b 04 25 28 00 00 00      mov    rax, QWORD PTR fs:0x28
   80881:       48 89 44 24 38          mov    QWORD PTR [rsp+0x38], rax
   80886:       31 c0                   xor    eax, eax
   80888:       4c 8d 64 24 10          lea    r12, [rsp+0x10]
   8088d:       48 8d 05 9c 01 00 00    lea    rax, [rip+0x19c]        # 0x80a30
   80894:       48 c7 44 24 18 00 00 00 00      mov    QWORD PTR [rsp+0x18], 0x0
   8089d:       4c 89 e7                mov    rdi, r12
   808a0:       48 89 44 24 10          mov    QWORD PTR [rsp+0x10], rax
   808a5:       e8 96 09 01 00          call   0x91240
   808aa:       64 48 8b 1c 25 10 00 00 00      mov    rbx, QWORD PTR fs:0x10
   808b3:       48 39 1d 5e b1 19 00    cmp    QWORD PTR [rip+0x19b15e], rbx        # 0x21ba18
   808ba:       74 1c                   je     0x808d8
   808bc:       31 c0                   xor    eax, eax
   808be:       ba 01 00 00 00          mov    edx, 0x1
   808c3:       f0 0f b1 15 45 b1 19 00         lock cmpxchg DWORD PTR [rip+0x19b145], edx        # 0x21ba10
   808cb:       0f 85 2b 01 00 00       jne    0x809fc
   808d1:       48 89 1d 40 b1 19 00    mov    QWORD PTR [rip+0x19b140], rbx        # 0x21ba18
   808d8:       48 8b 05 41 b1 19 00    mov    rax, QWORD PTR [rip+0x19b141]        # 0x21ba20
   808df:       8b 1d 2f b1 19 00       mov    ebx, DWORD PTR [rip+0x19b12f]        # 0x21ba14
   808e5:       48 85 c0                test   rax, rax
   808e8:       74 26                   je     0x80910
   808ea:       48 39 e8                cmp    rax, rbp
   808ed:       75 12                   jne    0x80901
   808ef:       e9 22 01 00 00          jmp    0x80a16
   808f4:       0f 1f 40 00             nop    DWORD PTR [rax+0x0]
   808f8:       48 39 c5                cmp    rbp, rax
   808fb:       0f 84 cf 00 00 00       je     0x809d0
   80901:       48 89 c2                mov    rdx, rax
   80904:       48 8b 80 e8 00 00 00    mov    rax, QWORD PTR [rax+0xe8]
   8090b:       48 85 c0                test   rax, rax
   8090e:       75 e8                   jne    0x808f8
   80910:       85 db                   test   ebx, ebx
   80912:       0f 85 a3 00 00 00       jne    0x809bb
   80918:       bb ff ff ff ff          mov    ebx, 0xffffffff
   8091d:       48 c7 05 f0 b0 19 00 00 00 00 00        mov    QWORD PTR [rip+0x19b0f0], 0x0        # 0x21ba18
   80928:       31 c0                   xor    eax, eax
   8092a:       87 05 e0 b0 19 00       xchg   DWORD PTR [rip+0x19b0e0], eax        # 0x21ba10
   80930:       83 f8 01                cmp    eax, 0x1
   80933:       0f 8f d0 00 00 00       jg     0x80a09
   80939:       4c 89 e7                mov    rdi, r12
   8093c:       e8 3f 09 01 00          call   0x91280
   80941:       83 fb ff                cmp    ebx, 0xffffffff
   80944:       0f 84 7e 00 00 00       je     0x809c8
   8094a:       8b 7d 70                mov    edi, DWORD PTR [rbp+0x70]
   8094d:       e8 be 90 09 00          call   0x119a10
   80952:       85 c0                   test   eax, eax
   80954:       78 72                   js     0x809c8
   80956:       4c 8d 6c 24 0c          lea    r13, [rsp+0xc]
   8095b:       eb 10                   jmp    0x8096d
   8095d:       0f 1f 00                nop    DWORD PTR [rax]
   80960:       48 8b 05 a9 84 19 00    mov    rax, QWORD PTR [rip+0x1984a9]        # 0x218e10
   80967:       64 83 38 04             cmp    DWORD PTR fs:[rax], 0x4
   8096b:       75 5b                   jne    0x809c8
   8096d:       4c 89 e6                mov    rsi, r12
   80970:       bf 01 00 00 00          mov    edi, 0x1
   80975:       e8 e6 ad 01 00          call   0x9b760
   8097a:       8b bd e0 00 00 00       mov    edi, DWORD PTR [rbp+0xe0]
   80980:       31 d2                   xor    edx, edx
   80982:       4c 89 ee                mov    rsi, r13
   80985:       e8 86 9a 06 00          call   0xea410
   8098a:       8b 7c 24 10             mov    edi, DWORD PTR [rsp+0x10]
   8098e:       31 f6                   xor    esi, esi
   80990:       89 c3                   mov    ebx, eax
   80992:       e8 c9 ad 01 00          call   0x9b760
   80997:       83 fb ff                cmp    ebx, 0xffffffff
   8099a:       74 c4                   je     0x80960
   8099c:       8b 44 24 0c             mov    eax, DWORD PTR [rsp+0xc]
   809a0:       48 8b 54 24 38          mov    rdx, QWORD PTR [rsp+0x38]
   809a5:       64 48 2b 14 25 28 00 00 00      sub    rdx, QWORD PTR fs:0x28
   809ae:       75 6f                   jne    0x80a1f
   809b0:       48 83 c4 48             add    rsp, 0x48
   809b4:       5b                      pop    rbx
   809b5:       5d                      pop    rbp
   809b6:       41 5c                   pop    r12
   809b8:       41 5d                   pop    r13
   809ba:       c3                      ret    
   809bb:       4c 89 e7                mov    rdi, r12
   809be:       e8 bd 08 01 00          call   0x91280
   809c3:       0f 1f 44 00 00          nop    DWORD PTR [rax+rax*1+0x0]
   809c8:       b8 ff ff ff ff          mov    eax, 0xffffffff
   809cd:       eb d1                   jmp    0x809a0
   809cf:       90                      nop
   809d0:       48 81 c2 e8 00 00 00    add    rdx, 0xe8
   809d7:       48 8b 80 e8 00 00 00    mov    rax, QWORD PTR [rax+0xe8]
   809de:       48 89 02                mov    QWORD PTR [rdx], rax
   809e1:       89 1d 2d b0 19 00       mov    DWORD PTR [rip+0x19b02d], ebx        # 0x21ba14
   809e7:       85 db                   test   ebx, ebx
   809e9:       0f 84 2e ff ff ff       je     0x8091d
   809ef:       4c 89 e7                mov    rdi, r12
   809f2:       e8 89 08 01 00          call   0x91280
   809f7:       e9 4e ff ff ff          jmp    0x8094a
   809fc:       4c 89 ef                mov    rdi, r13
   809ff:       e8 ac 08 01 00          call   0x912b0
   80a04:       e9 c8 fe ff ff          jmp    0x808d1
   80a09:       4c 89 ef                mov    rdi, r13
   80a0c:       e8 6f 09 01 00          call   0x91380
   80a11:       e9 23 ff ff ff          jmp    0x80939
   80a16:       48 8d 15 03 b0 19 00    lea    rdx, [rip+0x19b003]        # 0x21ba20
   80a1d:       eb b8                   jmp    0x809d7
   80a1f:       e8 fc 5c 0b 00          call   0x136720
================
_IO_proc_close 0x80860
   80860:       f3 0f 1e fa             endbr64 
   80864:       41 55                   push   r13
   80866:       4c 8d 2d a3 b1 19 00    lea    r13, [rip+0x19b1a3]        # 0x21ba10
   8086d:       41 54                   push   r12
   8086f:       55                      push   rbp
   80870:       48 89 fd                mov    rbp, rdi
   80873:       53                      push   rbx
   80874:       48 83 ec 48             sub    rsp, 0x48
   80878:       64 48 8b 04 25 28 00 00 00      mov    rax, QWORD PTR fs:0x28
   80881:       48 89 44 24 38          mov    QWORD PTR [rsp+0x38], rax
   80886:       31 c0                   xor    eax, eax
   80888:       4c 8d 64 24 10          lea    r12, [rsp+0x10]
   8088d:       48 8d 05 9c 01 00 00    lea    rax, [rip+0x19c]        # 0x80a30
   80894:       48 c7 44 24 18 00 00 00 00      mov    QWORD PTR [rsp+0x18], 0x0
   8089d:       4c 89 e7                mov    rdi, r12
   808a0:       48 89 44 24 10          mov    QWORD PTR [rsp+0x10], rax
   808a5:       e8 96 09 01 00          call   0x91240
   808aa:       64 48 8b 1c 25 10 00 00 00      mov    rbx, QWORD PTR fs:0x10
   808b3:       48 39 1d 5e b1 19 00    cmp    QWORD PTR [rip+0x19b15e], rbx        # 0x21ba18
   808ba:       74 1c                   je     0x808d8
   808bc:       31 c0                   xor    eax, eax
   808be:       ba 01 00 00 00          mov    edx, 0x1
   808c3:       f0 0f b1 15 45 b1 19 00         lock cmpxchg DWORD PTR [rip+0x19b145], edx        # 0x21ba10
   808cb:       0f 85 2b 01 00 00       jne    0x809fc
   808d1:       48 89 1d 40 b1 19 00    mov    QWORD PTR [rip+0x19b140], rbx        # 0x21ba18
   808d8:       48 8b 05 41 b1 19 00    mov    rax, QWORD PTR [rip+0x19b141]        # 0x21ba20
   808df:       8b 1d 2f b1 19 00       mov    ebx, DWORD PTR [rip+0x19b12f]        # 0x21ba14
   808e5:       48 85 c0                test   rax, rax
   808e8:       74 26                   je     0x80910
   808ea:       48 39 e8                cmp    rax, rbp
   808ed:       75 12                   jne    0x80901
   808ef:       e9 22 01 00 00          jmp    0x80a16
   808f4:       0f 1f 40 00             nop    DWORD PTR [rax+0x0]
   808f8:       48 39 c5                cmp    rbp, rax
   808fb:       0f 84 cf 00 00 00       je     0x809d0
   80901:       48 89 c2                mov    rdx, rax
   80904:       48 8b 80 e8 00 00 00    mov    rax, QWORD PTR [rax+0xe8]
   8090b:       48 85 c0                test   rax, rax
   8090e:       75 e8                   jne    0x808f8
   80910:       85 db                   test   ebx, ebx
   80912:       0f 85 a3 00 00 00       jne    0x809bb
   80918:       bb ff ff ff ff          mov    ebx, 0xffffffff
   8091d:       48 c7 05 f0 b0 19 00 00 00 00 00        mov    QWORD PTR [rip+0x19b0f0], 0x0        # 0x21ba18
   80928:       31 c0                   xor    eax, eax
   8092a:       87 05 e0 b0 19 00       xchg   DWORD PTR [rip+0x19b0e0], eax        # 0x21ba10
   80930:       83 f8 01                cmp    eax, 0x1
   80933:       0f 8f d0 00 00 00       jg     0x80a09
   80939:       4c 89 e7                mov    rdi, r12
   8093c:       e8 3f 09 01 00          call   0x91280
   80941:       83 fb ff                cmp    ebx, 0xffffffff
   80944:       0f 84 7e 00 00 00       je     0x809c8
   8094a:       8b 7d 70                mov    edi, DWORD PTR [rbp+0x70]
   8094d:       e8 be 90 09 00          call   0x119a10
   80952:       85 c0                   test   eax, eax
   80954:       78 72                   js     0x809c8
   80956:       4c 8d 6c 24 0c          lea    r13, [rsp+0xc]
   8095b:       eb 10                   jmp    0x8096d
   8095d:       0f 1f 00                nop    DWORD PTR [rax]
   80960:       48 8b 05 a9 84 19 00    mov    rax, QWORD PTR [rip+0x1984a9]        # 0x218e10
   80967:       64 83 38 04             cmp    DWORD PTR fs:[rax], 0x4
   8096b:       75 5b                   jne    0x809c8
   8096d:       4c 89 e6                mov    rsi, r12
   80970:       bf 01 00 00 00          mov    edi, 0x1
   80975:       e8 e6 ad 01 00          call   0x9b760
   8097a:       8b bd e0 00 00 00       mov    edi, DWORD PTR [rbp+0xe0]
   80980:       31 d2                   xor    edx, edx
   80982:       4c 89 ee                mov    rsi, r13
   80985:       e8 86 9a 06 00          call   0xea410
   8098a:       8b 7c 24 10             mov    edi, DWORD PTR [rsp+0x10]
   8098e:       31 f6                   xor    esi, esi
   80990:       89 c3                   mov    ebx, eax
   80992:       e8 c9 ad 01 00          call   0x9b760
   80997:       83 fb ff                cmp    ebx, 0xffffffff
   8099a:       74 c4                   je     0x80960
   8099c:       8b 44 24 0c             mov    eax, DWORD PTR [rsp+0xc]
   809a0:       48 8b 54 24 38          mov    rdx, QWORD PTR [rsp+0x38]
   809a5:       64 48 2b 14 25 28 00 00 00      sub    rdx, QWORD PTR fs:0x28
   809ae:       75 6f                   jne    0x80a1f
   809b0:       48 83 c4 48             add    rsp, 0x48
   809b4:       5b                      pop    rbx
   809b5:       5d                      pop    rbp
   809b6:       41 5c                   pop    r12
   809b8:       41 5d                   pop    r13
   809ba:       c3                      ret    
   809bb:       4c 89 e7                mov    rdi, r12
   809be:       e8 bd 08 01 00          call   0x91280
   809c3:       0f 1f 44 00 00          nop    DWORD PTR [rax+rax*1+0x0]
   809c8:       b8 ff ff ff ff          mov    eax, 0xffffffff
   809cd:       eb d1                   jmp    0x809a0
   809cf:       90                      nop
   809d0:       48 81 c2 e8 00 00 00    add    rdx, 0xe8
   809d7:       48 8b 80 e8 00 00 00    mov    rax, QWORD PTR [rax+0xe8]
   809de:       48 89 02                mov    QWORD PTR [rdx], rax
   809e1:       89 1d 2d b0 19 00       mov    DWORD PTR [rip+0x19b02d], ebx        # 0x21ba14
   809e7:       85 db                   test   ebx, ebx
   809e9:       0f 84 2e ff ff ff       je     0x8091d
   809ef:       4c 89 e7                mov    rdi, r12
   809f2:       e8 89 08 01 00          call   0x91280
   809f7:       e9 4e ff ff ff          jmp    0x8094a
   809fc:       4c 89 ef                mov    rdi, r13
   809ff:       e8 ac 08 01 00          call   0x912b0
   80a04:       e9 c8 fe ff ff          jmp    0x808d1
   80a09:       4c 89 ef                mov    rdi, r13
   80a0c:       e8 6f 09 01 00          call   0x91380
   80a11:       e9 23 ff ff ff          jmp    0x80939
   80a16:       48 8d 15 03 b0 19 00    lea    rdx, [rip+0x19b003]        # 0x21ba20
   80a1d:       eb b8                   jmp    0x809d7
   80a1f:       e8 fc 5c 0b 00          call   0x136720
================
_IO_cookie_close 0x7f890
   7f890:       f3 0f 1e fa             endbr64 
   7f894:       48 8b 87 00 01 00 00    mov    rax, QWORD PTR [rdi+0x100]
   7f89b:       48 c1 c8 11             ror    rax, 0x11
   7f89f:       64 48 33 04 25 30 00 00 00      xor    rax, QWORD PTR fs:0x30
   7f8a8:       48 85 c0                test   rax, rax
   7f8ab:       74 13                   je     0x7f8c0
   7f8ad:       48 8b bf e0 00 00 00    mov    rdi, QWORD PTR [rdi+0xe0]
   7f8b4:       ff e0                   jmp    rax
   7f8b6:       66 2e 0f 1f 84 00 00 00 00 00   cs nop WORD PTR [rax+rax*1+0x0]
   7f8c0:       31 c0                   xor    eax, eax
   7f8c2:       c3                      ret
================
_IO_wdefault_finish 0x83840
   83840:       f3 0f 1e fa             endbr64 
   83844:       55                      push   rbp
   83845:       48 8b 97 a0 00 00 00    mov    rdx, QWORD PTR [rdi+0xa0]
   8384c:       48 89 fd                mov    rbp, rdi
   8384f:       48 8b 7a 30             mov    rdi, QWORD PTR [rdx+0x30]
   83853:       48 85 ff                test   rdi, rdi
   83856:       74 06                   je     0x8385e
   83858:       f6 45 74 08             test   BYTE PTR [rbp+0x74], 0x8
   8385c:       74 4a                   je     0x838a8
   8385e:       48 8b 45 60             mov    rax, QWORD PTR [rbp+0x60]
   83862:       48 85 c0                test   rax, rax
   83865:       74 19                   je     0x83880
   83867:       66 0f 1f 84 00 00 00 00 00      nop    WORD PTR [rax+rax*1+0x0]
   83870:       48 c7 40 08 00 00 00 00         mov    QWORD PTR [rax+0x8], 0x0
   83878:       48 8b 00                mov    rax, QWORD PTR [rax]
   8387b:       48 85 c0                test   rax, rax
   8387e:       75 f0                   jne    0x83870
   83880:       48 83 7d 48 00          cmp    QWORD PTR [rbp+0x48], 0x0
   83885:       74 11                   je     0x83898
   83887:       48 8b 7a 40             mov    rdi, QWORD PTR [rdx+0x40]
   8388b:       e8 e0 4a fa ff          call   0x28370
   83890:       48 c7 45 48 00 00 00 00         mov    QWORD PTR [rbp+0x48], 0x0
   83898:       48 89 ef                mov    rdi, rbp
   8389b:       5d                      pop    rbp
   8389c:       e9 8f 9a 00 00          jmp    0x8d330
   838a1:       0f 1f 80 00 00 00 00    nop    DWORD PTR [rax+0x0]
   838a8:       e8 c3 4a fa ff          call   0x28370
   838ad:       48 8b 95 a0 00 00 00    mov    rdx, QWORD PTR [rbp+0xa0]
   838b4:       66 0f ef c0             pxor   xmm0, xmm0
   838b8:       0f 11 42 30             movups XMMWORD PTR [rdx+0x30], xmm0
   838bc:       eb a0                   jmp    0x8385e
================
_IO_wdefault_finish 0x83840
   83840:       f3 0f 1e fa             endbr64 
   83844:       55                      push   rbp
   83845:       48 8b 97 a0 00 00 00    mov    rdx, QWORD PTR [rdi+0xa0]
   8384c:       48 89 fd                mov    rbp, rdi
   8384f:       48 8b 7a 30             mov    rdi, QWORD PTR [rdx+0x30]
   83853:       48 85 ff                test   rdi, rdi
   83856:       74 06                   je     0x8385e
   83858:       f6 45 74 08             test   BYTE PTR [rbp+0x74], 0x8
   8385c:       74 4a                   je     0x838a8
   8385e:       48 8b 45 60             mov    rax, QWORD PTR [rbp+0x60]
   83862:       48 85 c0                test   rax, rax
   83865:       74 19                   je     0x83880
   83867:       66 0f 1f 84 00 00 00 00 00      nop    WORD PTR [rax+rax*1+0x0]
   83870:       48 c7 40 08 00 00 00 00         mov    QWORD PTR [rax+0x8], 0x0
   83878:       48 8b 00                mov    rax, QWORD PTR [rax]
   8387b:       48 85 c0                test   rax, rax
   8387e:       75 f0                   jne    0x83870
   83880:       48 83 7d 48 00          cmp    QWORD PTR [rbp+0x48], 0x0
   83885:       74 11                   je     0x83898
   83887:       48 8b 7a 40             mov    rdi, QWORD PTR [rdx+0x40]
   8388b:       e8 e0 4a fa ff          call   0x28370
   83890:       48 c7 45 48 00 00 00 00         mov    QWORD PTR [rbp+0x48], 0x0
   83898:       48 89 ef                mov    rdi, rbp
   8389b:       5d                      pop    rbp
   8389c:       e9 8f 9a 00 00          jmp    0x8d330
   838a1:       0f 1f 80 00 00 00 00    nop    DWORD PTR [rax+0x0]
   838a8:       e8 c3 4a fa ff          call   0x28370
   838ad:       48 8b 95 a0 00 00 00    mov    rdx, QWORD PTR [rbp+0xa0]
   838b4:       66 0f ef c0             pxor   xmm0, xmm0
   838b8:       0f 11 42 30             movups XMMWORD PTR [rdx+0x30], xmm0
   838bc:       eb a0                   jmp    0x8385e
================
_IO_file_xsgetn_mmap 0x8afe0
   8afe0:       f3 0f 1e fa             endbr64 
   8afe4:       41 57                   push   r15
   8afe6:       49 89 d7                mov    r15, rdx
   8afe9:       41 56                   push   r14
   8afeb:       49 89 f6                mov    r14, rsi
   8afee:       41 55                   push   r13
   8aff0:       41 54                   push   r12
   8aff2:       49 89 f4                mov    r12, rsi
   8aff5:       55                      push   rbp
   8aff6:       48 89 fd                mov    rbp, rdi
   8aff9:       53                      push   rbx
   8affa:       48 81 ec b8 00 00 00    sub    rsp, 0xb8
   8b001:       4c 8b 6f 08             mov    r13, QWORD PTR [rdi+0x8]
   8b005:       48 8b 5f 10             mov    rbx, QWORD PTR [rdi+0x10]
   8b009:       64 48 8b 04 25 28 00 00 00      mov    rax, QWORD PTR fs:0x28
   8b012:       48 89 84 24 a8 00 00 00         mov    QWORD PTR [rsp+0xa8], rax
   8b01a:       31 c0                   xor    eax, eax
   8b01c:       4c 29 eb                sub    rbx, r13
   8b01f:       48 39 d3                cmp    rbx, rdx
   8b022:       0f 83 59 01 00 00       jae    0x8b181
   8b028:       f7 07 00 01 00 00       test   DWORD PTR [rdi], 0x100
   8b02e:       0f 85 a4 01 00 00       jne    0x8b1d8
   8b034:       48 8b 85 d8 00 00 00    mov    rax, QWORD PTR [rbp+0xd8]
   8b03b:       4c 8d 2d be a9 18 00    lea    r13, [rip+0x18a9be]        # 0x215a00
   8b042:       48 8d 1d 1f b7 18 00    lea    rbx, [rip+0x18b71f]        # 0x216768
   8b049:       4c 29 eb                sub    rbx, r13
   8b04c:       48 89 c2                mov    rdx, rax
   8b04f:       4c 29 ea                sub    rdx, r13
   8b052:       48 39 d3                cmp    rbx, rdx
   8b055:       0f 86 65 02 00 00       jbe    0x8b2c0
   8b05b:       48 8d 74 24 10          lea    rsi, [rsp+0x10]
   8b060:       48 89 ef                mov    rdi, rbp
   8b063:       ff 90 90 00 00 00       call   QWORD PTR [rax+0x90]
   8b069:       85 c0                   test   eax, eax
   8b06b:       0f 85 9f 01 00 00       jne    0x8b210
   8b071:       8b 44 24 28             mov    eax, DWORD PTR [rsp+0x28]
   8b075:       25 00 f0 00 00          and    eax, 0xf000
   8b07a:       3d 00 80 00 00          cmp    eax, 0x8000
   8b07f:       0f 85 8b 01 00 00       jne    0x8b210
   8b085:       4c 8b 44 24 40          mov    r8, QWORD PTR [rsp+0x40]
   8b08a:       4d 85 c0                test   r8, r8
   8b08d:       4c 89 04 24             mov    QWORD PTR [rsp], r8
   8b091:       0f 84 79 01 00 00       je     0x8b210
   8b097:       48 8b 7d 38             mov    rdi, QWORD PTR [rbp+0x38]
   8b09b:       48 89 7c 24 08          mov    QWORD PTR [rsp+0x8], rdi
   8b0a0:       e8 cb 02 09 00          call   0x11b370
   8b0a5:       48 8b 7c 24 08          mov    rdi, QWORD PTR [rsp+0x8]
   8b0aa:       4c 8b 04 24             mov    r8, QWORD PTR [rsp]
   8b0ae:       48 98                   cdqe   
   8b0b0:       48 89 fe                mov    rsi, rdi
   8b0b3:       48 89 c1                mov    rcx, rax
   8b0b6:       49 8d 54 00 ff          lea    rdx, [r8+rax*1-0x1]
   8b0bb:       48 f7 d6                not    rsi
   8b0be:       48 03 75 40             add    rsi, QWORD PTR [rbp+0x40]
   8b0c2:       48 f7 d9                neg    rcx
   8b0c5:       48 01 c6                add    rsi, rax
   8b0c8:       48 21 ca                and    rdx, rcx
   8b0cb:       48 21 ce                and    rsi, rcx
   8b0ce:       48 39 f2                cmp    rdx, rsi
   8b0d1:       0f 82 fb 01 00 00       jb     0x8b2d2
   8b0d7:       0f 86 d3 01 00 00       jbe    0x8b2b0
   8b0dd:       b9 01 00 00 00          mov    ecx, 0x1
   8b0e2:       31 c0                   xor    eax, eax
   8b0e4:       e8 07 ba 09 00          call   0x126af0
   8b0e9:       48 89 c7                mov    rdi, rax
   8b0ec:       48 83 f8 ff             cmp    rax, 0xffffffffffffffff
   8b0f0:       0f 84 1a 01 00 00       je     0x8b210
   8b0f6:       4c 8b 44 24 40          mov    r8, QWORD PTR [rsp+0x40]
   8b0fb:       48 89 45 38             mov    QWORD PTR [rbp+0x38], rax
   8b0ff:       4a 8d 04 00             lea    rax, [rax+r8*1]
   8b103:       66 48 0f 6e c8          movq   xmm1, rax
   8b108:       48 8b 85 90 00 00 00    mov    rax, QWORD PTR [rbp+0x90]
   8b10f:       48 8b 55 10             mov    rdx, QWORD PTR [rbp+0x10]
   8b113:       66 0f 6f c1             movdqa xmm0, xmm1
   8b117:       48 89 7d 18             mov    QWORD PTR [rbp+0x18], rdi
   8b11b:       48 2b 55 08             sub    rdx, QWORD PTR [rbp+0x8]
   8b11f:       66 0f 6c c0             punpcklqdq xmm0, xmm0
   8b123:       66 0f d6 4d 40          movq   QWORD PTR [rbp+0x40], xmm1
   8b128:       48 29 d0                sub    rax, rdx
   8b12b:       48 89 85 90 00 00 00    mov    QWORD PTR [rbp+0x90], rax
   8b132:       49 39 c0                cmp    r8, rax
   8b135:       0f 8e 55 01 00 00       jle    0x8b290
   8b13b:       48 01 f8                add    rax, rdi
   8b13e:       8b 7d 70                mov    edi, DWORD PTR [rbp+0x70]
   8b141:       31 d2                   xor    edx, edx
   8b143:       4c 89 c6                mov    rsi, r8
   8b146:       66 48 0f 6e c0          movq   xmm0, rax
   8b14b:       66 0f 6c c1             punpcklqdq xmm0, xmm1
   8b14f:       0f 11 45 08             movups XMMWORD PTR [rbp+0x8], xmm0
   8b153:       e8 68 99 08 00          call   0x114ac0
   8b158:       48 8b 55 40             mov    rdx, QWORD PTR [rbp+0x40]
   8b15c:       48 2b 55 38             sub    rdx, QWORD PTR [rbp+0x38]
   8b160:       48 39 d0                cmp    rax, rdx
   8b163:       0f 84 8b 01 00 00       je     0x8b2f4
   8b169:       83 4d 00 20             or     DWORD PTR [rbp+0x0], 0x20
   8b16d:       4c 8b 6d 08             mov    r13, QWORD PTR [rbp+0x8]
   8b171:       48 8b 5d 10             mov    rbx, QWORD PTR [rbp+0x10]
   8b175:       4c 29 eb                sub    rbx, r13
   8b178:       4c 39 fb                cmp    rbx, r15
   8b17b:       73 04                   jae    0x8b181
   8b17d:       83 4d 00 10             or     DWORD PTR [rbp+0x0], 0x10
   8b181:       48 85 db                test   rbx, rbx
   8b184:       74 1f                   je     0x8b1a5
   8b186:       49 39 df                cmp    r15, rbx
   8b189:       4c 89 ee                mov    rsi, r13
   8b18c:       4c 89 e7                mov    rdi, r12
   8b18f:       49 0f 46 df             cmovbe rbx, r15
   8b193:       48 89 da                mov    rdx, rbx
   8b196:       49 01 dd                add    r13, rbx
   8b199:       e8 42 d2 f9 ff          call   0x283e0
   8b19e:       4c 89 6d 08             mov    QWORD PTR [rbp+0x8], r13
   8b1a2:       49 89 c4                mov    r12, rax
   8b1a5:       4c 89 e0                mov    rax, r12
   8b1a8:       4c 29 f0                sub    rax, r14
   8b1ab:       48 8b 94 24 a8 00 00 00         mov    rdx, QWORD PTR [rsp+0xa8]
   8b1b3:       64 48 2b 14 25 28 00 00 00      sub    rdx, QWORD PTR fs:0x28
   8b1bc:       0f 85 60 01 00 00       jne    0x8b322
   8b1c2:       48 81 c4 b8 00 00 00    add    rsp, 0xb8
   8b1c9:       5b                      pop    rbx
   8b1ca:       5d                      pop    rbp
   8b1cb:       41 5c                   pop    r12
   8b1cd:       41 5d                   pop    r13
   8b1cf:       41 5e                   pop    r14
   8b1d1:       41 5f                   pop    r15
   8b1d3:       c3                      ret    
   8b1d4:       0f 1f 40 00             nop    DWORD PTR [rax+0x0]
   8b1d8:       48 89 da                mov    rdx, rbx
   8b1db:       4c 89 ee                mov    rsi, r13
   8b1de:       4c 89 f7                mov    rdi, r14
   8b1e1:       49 29 df                sub    r15, rbx
   8b1e4:       e8 f7 d1 f9 ff          call   0x283e0
   8b1e9:       48 89 ef                mov    rdi, rbp
   8b1ec:       49 89 c4                mov    r12, rax
   8b1ef:       e8 3c 25 00 00          call   0x8d730
   8b1f4:       4c 8b 6d 08             mov    r13, QWORD PTR [rbp+0x8]
   8b1f8:       48 8b 5d 10             mov    rbx, QWORD PTR [rbp+0x10]
   8b1fc:       4c 29 eb                sub    rbx, r13
   8b1ff:       49 39 df                cmp    r15, rbx
   8b202:       0f 86 79 ff ff ff       jbe    0x8b181
   8b208:       e9 27 fe ff ff          jmp    0x8b034
   8b20d:       0f 1f 00                nop    DWORD PTR [rax]
   8b210:       48 8b 7d 38             mov    rdi, QWORD PTR [rbp+0x38]
   8b214:       48 8b 75 40             mov    rsi, QWORD PTR [rbp+0x40]
   8b218:       48 29 fe                sub    rsi, rdi
   8b21b:       e8 00 3a 09 00          call   0x11ec20
   8b220:       8b 8d c0 00 00 00       mov    ecx, DWORD PTR [rbp+0xc0]
   8b226:       48 8d 15 93 ae 18 00    lea    rdx, [rip+0x18ae93]        # 0x2160c0
   8b22d:       48 8d 05 cc b3 18 00    lea    rax, [rip+0x18b3cc]        # 0x216600
   8b234:       66 0f ef c0             pxor   xmm0, xmm0
   8b238:       48 c7 45 18 00 00 00 00         mov    QWORD PTR [rbp+0x18], 0x0
   8b240:       85 c9                   test   ecx, ecx
   8b242:       0f 11 45 38             movups XMMWORD PTR [rbp+0x38], xmm0
   8b246:       48 0f 4f c2             cmovg  rax, rdx
   8b24a:       0f 11 45 08             movups XMMWORD PTR [rbp+0x8], xmm0
   8b24e:       48 89 85 d8 00 00 00    mov    QWORD PTR [rbp+0xd8], rax
   8b255:       48 8b 85 a0 00 00 00    mov    rax, QWORD PTR [rbp+0xa0]
   8b25c:       48 89 90 e0 00 00 00    mov    QWORD PTR [rax+0xe0], rdx
   8b263:       48 8b 85 d8 00 00 00    mov    rax, QWORD PTR [rbp+0xd8]
   8b26a:       48 89 c2                mov    rdx, rax
   8b26d:       4c 29 ea                sub    rdx, r13
   8b270:       48 39 da                cmp    rdx, rbx
   8b273:       0f 83 97 00 00 00       jae    0x8b310
   8b279:       4c 89 fa                mov    rdx, r15
   8b27c:       4c 89 f6                mov    rsi, r14
   8b27f:       48 89 ef                mov    rdi, rbp
   8b282:       4d 29 f4                sub    r12, r14
   8b285:       ff 50 40                call   QWORD PTR [rax+0x40]
   8b288:       4c 01 e0                add    rax, r12
   8b28b:       e9 1b ff ff ff          jmp    0x8b1ab
   8b290:       0f 11 45 08             movups XMMWORD PTR [rbp+0x8], xmm0
   8b294:       4d 85 ff                test   r15, r15
   8b297:       0f 84 08 ff ff ff       je     0x8b1a5
   8b29d:       83 4d 00 10             or     DWORD PTR [rbp+0x0], 0x10
   8b2a1:       e9 ff fe ff ff          jmp    0x8b1a5
   8b2a6:       66 2e 0f 1f 84 00 00 00 00 00   cs nop WORD PTR [rax+rax*1+0x0]
   8b2b0:       4a 8d 04 07             lea    rax, [rdi+r8*1]
   8b2b4:       66 48 0f 6e c8          movq   xmm1, rax
   8b2b9:       e9 4a fe ff ff          jmp    0x8b108
   8b2be:       66 90                   xchg   ax, ax
   8b2c0:       48 89 04 24             mov    QWORD PTR [rsp], rax
   8b2c4:       e8 a7 ec ff ff          call   0x89f70
   8b2c9:       48 8b 04 24             mov    rax, QWORD PTR [rsp]
   8b2cd:       e9 89 fd ff ff          jmp    0x8b05b
   8b2d2:       48 01 d7                add    rdi, rdx
   8b2d5:       48 29 d6                sub    rsi, rdx
   8b2d8:       e8 43 39 09 00          call   0x11ec20
   8b2dd:       48 8b 7d 38             mov    rdi, QWORD PTR [rbp+0x38]
   8b2e1:       4c 8b 44 24 40          mov    r8, QWORD PTR [rsp+0x40]
   8b2e6:       4a 8d 04 07             lea    rax, [rdi+r8*1]
   8b2ea:       66 48 0f 6e c8          movq   xmm1, rax
   8b2ef:       e9 14 fe ff ff          jmp    0x8b108
   8b2f4:       4c 8b 6d 08             mov    r13, QWORD PTR [rbp+0x8]
   8b2f8:       48 8b 5d 10             mov    rbx, QWORD PTR [rbp+0x10]
   8b2fc:       48 89 85 90 00 00 00    mov    QWORD PTR [rbp+0x90], rax
   8b303:       4c 29 eb                sub    rbx, r13
   8b306:       e9 6d fe ff ff          jmp    0x8b178
   8b30b:       0f 1f 44 00 00          nop    DWORD PTR [rax+rax*1+0x0]
   8b310:       48 89 04 24             mov    QWORD PTR [rsp], rax
   8b314:       e8 57 ec ff ff          call   0x89f70
   8b319:       48 8b 04 24             mov    rax, QWORD PTR [rsp]
   8b31d:       e9 57 ff ff ff          jmp    0x8b279
   8b322:       e8 f9 b3 0a 00          call   0x136720
================
_IO_cookie_write 0x7f7e0
   7f7e0:       f3 0f 1e fa             endbr64 
   7f7e4:       55                      push   rbp
   7f7e5:       53                      push   rbx
   7f7e6:       48 89 fb                mov    rbx, rdi
   7f7e9:       48 83 ec 08             sub    rsp, 0x8
   7f7ed:       48 8b 87 f0 00 00 00    mov    rax, QWORD PTR [rdi+0xf0]
   7f7f4:       48 c1 c8 11             ror    rax, 0x11
   7f7f8:       64 48 33 04 25 30 00 00 00      xor    rax, QWORD PTR fs:0x30
   7f801:       48 85 c0                test   rax, rax
   7f804:       74 11                   je     0x7f817
   7f806:       48 89 d5                mov    rbp, rdx
   7f809:       48 8b bf e0 00 00 00    mov    rdi, QWORD PTR [rdi+0xe0]
   7f810:       ff d0                   call   rax
   7f812:       48 39 c5                cmp    rbp, rax
   7f815:       7e 03                   jle    0x7f81a
   7f817:       83 0b 20                or     DWORD PTR [rbx], 0x20
   7f81a:       48 83 c4 08             add    rsp, 0x8
   7f81e:       5b                      pop    rbx
   7f81f:       5d                      pop    rbp
   7f820:       c3                      ret
================
_IO_file_underflow 0x8cb30
   8cb30:       f3 0f 1e fa             endbr64 
   8cb34:       8b 07                   mov    eax, DWORD PTR [rdi]
   8cb36:       a8 10                   test   al, 0x10
   8cb38:       0f 85 ca 02 00 00       jne    0x8ce08
   8cb3e:       41 57                   push   r15
   8cb40:       41 56                   push   r14
   8cb42:       41 55                   push   r13
   8cb44:       41 54                   push   r12
   8cb46:       55                      push   rbp
   8cb47:       53                      push   rbx
   8cb48:       48 89 fb                mov    rbx, rdi
   8cb4b:       48 83 ec 18             sub    rsp, 0x18
   8cb4f:       a8 04                   test   al, 0x4
   8cb51:       0f 85 b9 02 00 00       jne    0x8ce10
   8cb57:       48 8b 57 08             mov    rdx, QWORD PTR [rdi+0x8]
   8cb5b:       48 3b 57 10             cmp    rdx, QWORD PTR [rdi+0x10]
   8cb5f:       0f 82 8b 01 00 00       jb     0x8ccf0
   8cb65:       48 83 7f 38 00          cmp    QWORD PTR [rdi+0x38], 0x0
   8cb6a:       0f 84 d0 01 00 00       je     0x8cd40
   8cb70:       a9 02 02 00 00          test   eax, 0x202
   8cb75:       0f 84 d7 00 00 00       je     0x8cc52
   8cb7b:       48 8b 05 b6 c2 18 00    mov    rax, QWORD PTR [rip+0x18c2b6]        # 0x218e38
   8cb82:       4c 8b 20                mov    r12, QWORD PTR [rax]
   8cb85:       41 8b 14 24             mov    edx, DWORD PTR [r12]
   8cb89:       89 d0                   mov    eax, edx
   8cb8b:       25 00 80 00 00          and    eax, 0x8000
   8cb90:       0f 85 aa 00 00 00       jne    0x8cc40
   8cb96:       49 8b bc 24 88 00 00 00         mov    rdi, QWORD PTR [r12+0x88]
   8cb9e:       64 48 8b 2c 25 10 00 00 00      mov    rbp, QWORD PTR fs:0x10
   8cba7:       48 39 6f 08             cmp    QWORD PTR [rdi+0x8], rbp
   8cbab:       0f 84 bf 01 00 00       je     0x8cd70
   8cbb1:       ba 01 00 00 00          mov    edx, 0x1
   8cbb6:       f0 0f b1 17             lock cmpxchg DWORD PTR [rdi], edx
   8cbba:       0f 85 38 02 00 00       jne    0x8cdf8
   8cbc0:       48 8b 05 71 c2 18 00    mov    rax, QWORD PTR [rip+0x18c271]        # 0x218e38
   8cbc7:       49 8b bc 24 88 00 00 00         mov    rdi, QWORD PTR [r12+0x88]
   8cbcf:       4c 8b 00                mov    r8, QWORD PTR [rax]
   8cbd2:       48 89 6f 08             mov    QWORD PTR [rdi+0x8], rbp
   8cbd6:       41 8b 10                mov    edx, DWORD PTR [r8]
   8cbd9:       81 e2 88 02 00 00       and    edx, 0x288
   8cbdf:       83 47 04 01             add    DWORD PTR [rdi+0x4], 0x1
   8cbe3:       81 fa 80 02 00 00       cmp    edx, 0x280
   8cbe9:       0f 84 94 01 00 00       je     0x8cd83
   8cbef:       4c 8d 3d 72 9b 18 00    lea    r15, [rip+0x189b72]        # 0x216768
   8cbf6:       48 8d 2d 03 8e 18 00    lea    rbp, [rip+0x188e03]        # 0x215a00
   8cbfd:       4d 89 fd                mov    r13, r15
   8cc00:       49 89 ee                mov    r14, rbp
   8cc03:       49 29 ed                sub    r13, rbp
   8cc06:       41 f7 04 24 00 80 00 00         test   DWORD PTR [r12], 0x8000
   8cc0e:       75 50                   jne    0x8cc60
   8cc10:       49 8b bc 24 88 00 00 00         mov    rdi, QWORD PTR [r12+0x88]
   8cc18:       8b 47 04                mov    eax, DWORD PTR [rdi+0x4]
   8cc1b:       83 e8 01                sub    eax, 0x1
   8cc1e:       89 47 04                mov    DWORD PTR [rdi+0x4], eax
   8cc21:       75 3d                   jne    0x8cc60
   8cc23:       48 c7 47 08 00 00 00 00         mov    QWORD PTR [rdi+0x8], 0x0
   8cc2b:       87 07                   xchg   DWORD PTR [rdi], eax
   8cc2d:       83 f8 01                cmp    eax, 0x1
   8cc30:       7e 2e                   jle    0x8cc60
   8cc32:       e8 49 47 00 00          call   0x91380
   8cc37:       eb 34                   jmp    0x8cc6d
   8cc39:       0f 1f 80 00 00 00 00    nop    DWORD PTR [rax+0x0]
   8cc40:       81 e2 88 02 00 00       and    edx, 0x288
   8cc46:       81 fa 80 02 00 00       cmp    edx, 0x280
   8cc4c:       0f 84 2e 01 00 00       je     0x8cd80
   8cc52:       4c 8d 3d 0f 9b 18 00    lea    r15, [rip+0x189b0f]        # 0x216768
   8cc59:       48 8d 2d a0 8d 18 00    lea    rbp, [rip+0x188da0]        # 0x215a00
   8cc60:       49 29 ef                sub    r15, rbp
   8cc63:       4c 8d 35 96 8d 18 00    lea    r14, [rip+0x188d96]        # 0x215a00
   8cc6a:       4d 89 fd                mov    r13, r15
   8cc6d:       48 89 df                mov    rdi, rbx
   8cc70:       e8 2b 0b 00 00          call   0x8d7a0
   8cc75:       f3 0f 6f 43 38          movdqu xmm0, XMMWORD PTR [rbx+0x38]
   8cc7a:       48 8b ab d8 00 00 00    mov    rbp, QWORD PTR [rbx+0xd8]
   8cc81:       66 0f 6f c8             movdqa xmm1, xmm0
   8cc85:       48 89 e8                mov    rax, rbp
   8cc88:       66 48 0f 7e c6          movq   rsi, xmm0
   8cc8d:       66 0f 6c c8             punpcklqdq xmm1, xmm0
   8cc91:       4c 29 f0                sub    rax, r14
   8cc94:       0f 11 4b 08             movups XMMWORD PTR [rbx+0x8], xmm1
   8cc98:       0f 11 4b 18             movups XMMWORD PTR [rbx+0x18], xmm1
   8cc9c:       0f 11 4b 28             movups XMMWORD PTR [rbx+0x28], xmm1
   8cca0:       4c 39 e8                cmp    rax, r13
   8cca3:       0f 83 1f 01 00 00       jae    0x8cdc8
   8cca9:       48 8b 53 40             mov    rdx, QWORD PTR [rbx+0x40]
   8ccad:       48 89 df                mov    rdi, rbx
   8ccb0:       48 29 f2                sub    rdx, rsi
   8ccb3:       ff 55 70                call   QWORD PTR [rbp+0x70]
   8ccb6:       48 85 c0                test   rax, rax
   8ccb9:       7e 4d                   jle    0x8cd08
   8ccbb:       48 8b 93 90 00 00 00    mov    rdx, QWORD PTR [rbx+0x90]
   8ccc2:       48 01 43 10             add    QWORD PTR [rbx+0x10], rax
   8ccc6:       48 83 fa ff             cmp    rdx, 0xffffffffffffffff
   8ccca:       74 0a                   je     0x8ccd6
   8cccc:       48 01 c2                add    rdx, rax
   8cccf:       48 89 93 90 00 00 00    mov    QWORD PTR [rbx+0x90], rdx
   8ccd6:       48 8b 43 08             mov    rax, QWORD PTR [rbx+0x8]
   8ccda:       0f b6 00                movzx  eax, BYTE PTR [rax]
   8ccdd:       48 83 c4 18             add    rsp, 0x18
   8cce1:       5b                      pop    rbx
   8cce2:       5d                      pop    rbp
   8cce3:       41 5c                   pop    r12
   8cce5:       41 5d                   pop    r13
   8cce7:       41 5e                   pop    r14
   8cce9:       41 5f                   pop    r15
   8cceb:       c3                      ret    
   8ccec:       0f 1f 40 00             nop    DWORD PTR [rax+0x0]
   8ccf0:       0f b6 02                movzx  eax, BYTE PTR [rdx]
   8ccf3:       48 83 c4 18             add    rsp, 0x18
   8ccf7:       5b                      pop    rbx
   8ccf8:       5d                      pop    rbp
   8ccf9:       41 5c                   pop    r12
   8ccfb:       41 5d                   pop    r13
   8ccfd:       41 5e                   pop    r14
   8ccff:       41 5f                   pop    r15
   8cd01:       c3                      ret    
   8cd02:       66 0f 1f 44 00 00       nop    WORD PTR [rax+rax*1+0x0]
   8cd08:       48 c7 83 90 00 00 00 ff ff ff ff        mov    QWORD PTR [rbx+0x90], 0xffffffffffffffff
   8cd13:       8b 13                   mov    edx, DWORD PTR [rbx]
   8cd15:       89 d1                   mov    ecx, edx
   8cd17:       83 ca 20                or     edx, 0x20
   8cd1a:       83 c9 10                or     ecx, 0x10
   8cd1d:       48 85 c0                test   rax, rax
   8cd20:       b8 ff ff ff ff          mov    eax, 0xffffffff
   8cd25:       0f 44 d1                cmove  edx, ecx
   8cd28:       89 13                   mov    DWORD PTR [rbx], edx
   8cd2a:       48 83 c4 18             add    rsp, 0x18
   8cd2e:       5b                      pop    rbx
   8cd2f:       5d                      pop    rbp
   8cd30:       41 5c                   pop    r12
   8cd32:       41 5d                   pop    r13
   8cd34:       41 5e                   pop    r14
   8cd36:       41 5f                   pop    r15
   8cd38:       c3                      ret    
   8cd39:       0f 1f 80 00 00 00 00    nop    DWORD PTR [rax+0x0]
   8cd40:       48 8b 7f 48             mov    rdi, QWORD PTR [rdi+0x48]
   8cd44:       48 85 ff                test   rdi, rdi
   8cd47:       74 0b                   je     0x8cd54
   8cd49:       e8 22 b6 f9 ff          call   0x28370
   8cd4e:       81 23 ff fe ff ff       and    DWORD PTR [rbx], 0xfffffeff
   8cd54:       48 89 df                mov    rdi, rbx
   8cd57:       e8 b4 0f 00 00          call   0x8dd10
   8cd5c:       8b 03                   mov    eax, DWORD PTR [rbx]
   8cd5e:       a9 02 02 00 00          test   eax, 0x202
   8cd63:       0f 85 12 fe ff ff       jne    0x8cb7b
   8cd69:       e9 e4 fe ff ff          jmp    0x8cc52
   8cd6e:       66 90                   xchg   ax, ax
   8cd70:       4d 89 e0                mov    r8, r12
   8cd73:       e9 61 fe ff ff          jmp    0x8cbd9
   8cd78:       0f 1f 84 00 00 00 00 00         nop    DWORD PTR [rax+rax*1+0x0]
   8cd80:       4d 89 e0                mov    r8, r12
   8cd83:       49 8b 80 d8 00 00 00    mov    rax, QWORD PTR [r8+0xd8]
   8cd8a:       4c 8d 3d d7 99 18 00    lea    r15, [rip+0x1899d7]        # 0x216768
   8cd91:       48 8d 2d 68 8c 18 00    lea    rbp, [rip+0x188c68]        # 0x215a00
   8cd98:       4d 89 fd                mov    r13, r15
   8cd9b:       49 89 ee                mov    r14, rbp
   8cd9e:       48 89 44 24 08          mov    QWORD PTR [rsp+0x8], rax
   8cda3:       49 29 ed                sub    r13, rbp
   8cda6:       48 29 e8                sub    rax, rbp
   8cda9:       49 39 c5                cmp    r13, rax
   8cdac:       76 32                   jbe    0x8cde0
   8cdae:       48 8b 44 24 08          mov    rax, QWORD PTR [rsp+0x8]
   8cdb3:       be ff ff ff ff          mov    esi, 0xffffffff
   8cdb8:       4c 89 c7                mov    rdi, r8
   8cdbb:       ff 50 18                call   QWORD PTR [rax+0x18]
   8cdbe:       e9 43 fe ff ff          jmp    0x8cc06
   8cdc3:       0f 1f 44 00 00          nop    DWORD PTR [rax+rax*1+0x0]
   8cdc8:       e8 a3 d1 ff ff          call   0x89f70
   8cdcd:       48 8b 73 38             mov    rsi, QWORD PTR [rbx+0x38]
   8cdd1:       e9 d3 fe ff ff          jmp    0x8cca9
   8cdd6:       66 2e 0f 1f 84 00 00 00 00 00   cs nop WORD PTR [rax+rax*1+0x0]
   8cde0:       e8 8b d1 ff ff          call   0x89f70
   8cde5:       48 8b 05 4c c0 18 00    mov    rax, QWORD PTR [rip+0x18c04c]        # 0x218e38
   8cdec:       4c 8b 00                mov    r8, QWORD PTR [rax]
   8cdef:       eb bd                   jmp    0x8cdae
   8cdf1:       0f 1f 80 00 00 00 00    nop    DWORD PTR [rax+0x0]
   8cdf8:       e8 b3 44 00 00          call   0x912b0
   8cdfd:       e9 be fd ff ff          jmp    0x8cbc0
   8ce02:       66 0f 1f 44 00 00       nop    WORD PTR [rax+rax*1+0x0]
   8ce08:       b8 ff ff ff ff          mov    eax, 0xffffffff
   8ce0d:       c3                      ret    
   8ce0e:       66 90                   xchg   ax, ax
   8ce10:       83 c8 20                or     eax, 0x20
   8ce13:       89 07                   mov    DWORD PTR [rdi], eax
   8ce15:       48 8b 05 f4 bf 18 00    mov    rax, QWORD PTR [rip+0x18bff4]        # 0x218e10
   8ce1c:       64 c7 00 09 00 00 00    mov    DWORD PTR fs:[rax], 0x9
   8ce23:       b8 ff ff ff ff          mov    eax, 0xffffffff
   8ce28:       e9 b0 fe ff ff          jmp    0x8ccdd
   8ce2d:       f3 0f 1e fa             endbr64 
   8ce31:       48 89 c5                mov    rbp, rax
   8ce34:       e9 15 ca f9 ff          jmp    0x2984e
================
_IO_file_underflow 0x8cb30
   8cb30:       f3 0f 1e fa             endbr64 
   8cb34:       8b 07                   mov    eax, DWORD PTR [rdi]
   8cb36:       a8 10                   test   al, 0x10
   8cb38:       0f 85 ca 02 00 00       jne    0x8ce08
   8cb3e:       41 57                   push   r15
   8cb40:       41 56                   push   r14
   8cb42:       41 55                   push   r13
   8cb44:       41 54                   push   r12
   8cb46:       55                      push   rbp
   8cb47:       53                      push   rbx
   8cb48:       48 89 fb                mov    rbx, rdi
   8cb4b:       48 83 ec 18             sub    rsp, 0x18
   8cb4f:       a8 04                   test   al, 0x4
   8cb51:       0f 85 b9 02 00 00       jne    0x8ce10
   8cb57:       48 8b 57 08             mov    rdx, QWORD PTR [rdi+0x8]
   8cb5b:       48 3b 57 10             cmp    rdx, QWORD PTR [rdi+0x10]
   8cb5f:       0f 82 8b 01 00 00       jb     0x8ccf0
   8cb65:       48 83 7f 38 00          cmp    QWORD PTR [rdi+0x38], 0x0
   8cb6a:       0f 84 d0 01 00 00       je     0x8cd40
   8cb70:       a9 02 02 00 00          test   eax, 0x202
   8cb75:       0f 84 d7 00 00 00       je     0x8cc52
   8cb7b:       48 8b 05 b6 c2 18 00    mov    rax, QWORD PTR [rip+0x18c2b6]        # 0x218e38
   8cb82:       4c 8b 20                mov    r12, QWORD PTR [rax]
   8cb85:       41 8b 14 24             mov    edx, DWORD PTR [r12]
   8cb89:       89 d0                   mov    eax, edx
   8cb8b:       25 00 80 00 00          and    eax, 0x8000
   8cb90:       0f 85 aa 00 00 00       jne    0x8cc40
   8cb96:       49 8b bc 24 88 00 00 00         mov    rdi, QWORD PTR [r12+0x88]
   8cb9e:       64 48 8b 2c 25 10 00 00 00      mov    rbp, QWORD PTR fs:0x10
   8cba7:       48 39 6f 08             cmp    QWORD PTR [rdi+0x8], rbp
   8cbab:       0f 84 bf 01 00 00       je     0x8cd70
   8cbb1:       ba 01 00 00 00          mov    edx, 0x1
   8cbb6:       f0 0f b1 17             lock cmpxchg DWORD PTR [rdi], edx
   8cbba:       0f 85 38 02 00 00       jne    0x8cdf8
   8cbc0:       48 8b 05 71 c2 18 00    mov    rax, QWORD PTR [rip+0x18c271]        # 0x218e38
   8cbc7:       49 8b bc 24 88 00 00 00         mov    rdi, QWORD PTR [r12+0x88]
   8cbcf:       4c 8b 00                mov    r8, QWORD PTR [rax]
   8cbd2:       48 89 6f 08             mov    QWORD PTR [rdi+0x8], rbp
   8cbd6:       41 8b 10                mov    edx, DWORD PTR [r8]
   8cbd9:       81 e2 88 02 00 00       and    edx, 0x288
   8cbdf:       83 47 04 01             add    DWORD PTR [rdi+0x4], 0x1
   8cbe3:       81 fa 80 02 00 00       cmp    edx, 0x280
   8cbe9:       0f 84 94 01 00 00       je     0x8cd83
   8cbef:       4c 8d 3d 72 9b 18 00    lea    r15, [rip+0x189b72]        # 0x216768
   8cbf6:       48 8d 2d 03 8e 18 00    lea    rbp, [rip+0x188e03]        # 0x215a00
   8cbfd:       4d 89 fd                mov    r13, r15
   8cc00:       49 89 ee                mov    r14, rbp
   8cc03:       49 29 ed                sub    r13, rbp
   8cc06:       41 f7 04 24 00 80 00 00         test   DWORD PTR [r12], 0x8000
   8cc0e:       75 50                   jne    0x8cc60
   8cc10:       49 8b bc 24 88 00 00 00         mov    rdi, QWORD PTR [r12+0x88]
   8cc18:       8b 47 04                mov    eax, DWORD PTR [rdi+0x4]
   8cc1b:       83 e8 01                sub    eax, 0x1
   8cc1e:       89 47 04                mov    DWORD PTR [rdi+0x4], eax
   8cc21:       75 3d                   jne    0x8cc60
   8cc23:       48 c7 47 08 00 00 00 00         mov    QWORD PTR [rdi+0x8], 0x0
   8cc2b:       87 07                   xchg   DWORD PTR [rdi], eax
   8cc2d:       83 f8 01                cmp    eax, 0x1
   8cc30:       7e 2e                   jle    0x8cc60
   8cc32:       e8 49 47 00 00          call   0x91380
   8cc37:       eb 34                   jmp    0x8cc6d
   8cc39:       0f 1f 80 00 00 00 00    nop    DWORD PTR [rax+0x0]
   8cc40:       81 e2 88 02 00 00       and    edx, 0x288
   8cc46:       81 fa 80 02 00 00       cmp    edx, 0x280
   8cc4c:       0f 84 2e 01 00 00       je     0x8cd80
   8cc52:       4c 8d 3d 0f 9b 18 00    lea    r15, [rip+0x189b0f]        # 0x216768
   8cc59:       48 8d 2d a0 8d 18 00    lea    rbp, [rip+0x188da0]        # 0x215a00
   8cc60:       49 29 ef                sub    r15, rbp
   8cc63:       4c 8d 35 96 8d 18 00    lea    r14, [rip+0x188d96]        # 0x215a00
   8cc6a:       4d 89 fd                mov    r13, r15
   8cc6d:       48 89 df                mov    rdi, rbx
   8cc70:       e8 2b 0b 00 00          call   0x8d7a0
   8cc75:       f3 0f 6f 43 38          movdqu xmm0, XMMWORD PTR [rbx+0x38]
   8cc7a:       48 8b ab d8 00 00 00    mov    rbp, QWORD PTR [rbx+0xd8]
   8cc81:       66 0f 6f c8             movdqa xmm1, xmm0
   8cc85:       48 89 e8                mov    rax, rbp
   8cc88:       66 48 0f 7e c6          movq   rsi, xmm0
   8cc8d:       66 0f 6c c8             punpcklqdq xmm1, xmm0
   8cc91:       4c 29 f0                sub    rax, r14
   8cc94:       0f 11 4b 08             movups XMMWORD PTR [rbx+0x8], xmm1
   8cc98:       0f 11 4b 18             movups XMMWORD PTR [rbx+0x18], xmm1
   8cc9c:       0f 11 4b 28             movups XMMWORD PTR [rbx+0x28], xmm1
   8cca0:       4c 39 e8                cmp    rax, r13
   8cca3:       0f 83 1f 01 00 00       jae    0x8cdc8
   8cca9:       48 8b 53 40             mov    rdx, QWORD PTR [rbx+0x40]
   8ccad:       48 89 df                mov    rdi, rbx
   8ccb0:       48 29 f2                sub    rdx, rsi
   8ccb3:       ff 55 70                call   QWORD PTR [rbp+0x70]
   8ccb6:       48 85 c0                test   rax, rax
   8ccb9:       7e 4d                   jle    0x8cd08
   8ccbb:       48 8b 93 90 00 00 00    mov    rdx, QWORD PTR [rbx+0x90]
   8ccc2:       48 01 43 10             add    QWORD PTR [rbx+0x10], rax
   8ccc6:       48 83 fa ff             cmp    rdx, 0xffffffffffffffff
   8ccca:       74 0a                   je     0x8ccd6
   8cccc:       48 01 c2                add    rdx, rax
   8cccf:       48 89 93 90 00 00 00    mov    QWORD PTR [rbx+0x90], rdx
   8ccd6:       48 8b 43 08             mov    rax, QWORD PTR [rbx+0x8]
   8ccda:       0f b6 00                movzx  eax, BYTE PTR [rax]
   8ccdd:       48 83 c4 18             add    rsp, 0x18
   8cce1:       5b                      pop    rbx
   8cce2:       5d                      pop    rbp
   8cce3:       41 5c                   pop    r12
   8cce5:       41 5d                   pop    r13
   8cce7:       41 5e                   pop    r14
   8cce9:       41 5f                   pop    r15
   8cceb:       c3                      ret    
   8ccec:       0f 1f 40 00             nop    DWORD PTR [rax+0x0]
   8ccf0:       0f b6 02                movzx  eax, BYTE PTR [rdx]
   8ccf3:       48 83 c4 18             add    rsp, 0x18
   8ccf7:       5b                      pop    rbx
   8ccf8:       5d                      pop    rbp
   8ccf9:       41 5c                   pop    r12
   8ccfb:       41 5d                   pop    r13
   8ccfd:       41 5e                   pop    r14
   8ccff:       41 5f                   pop    r15
   8cd01:       c3                      ret    
   8cd02:       66 0f 1f 44 00 00       nop    WORD PTR [rax+rax*1+0x0]
   8cd08:       48 c7 83 90 00 00 00 ff ff ff ff        mov    QWORD PTR [rbx+0x90], 0xffffffffffffffff
   8cd13:       8b 13                   mov    edx, DWORD PTR [rbx]
   8cd15:       89 d1                   mov    ecx, edx
   8cd17:       83 ca 20                or     edx, 0x20
   8cd1a:       83 c9 10                or     ecx, 0x10
   8cd1d:       48 85 c0                test   rax, rax
   8cd20:       b8 ff ff ff ff          mov    eax, 0xffffffff
   8cd25:       0f 44 d1                cmove  edx, ecx
   8cd28:       89 13                   mov    DWORD PTR [rbx], edx
   8cd2a:       48 83 c4 18             add    rsp, 0x18
   8cd2e:       5b                      pop    rbx
   8cd2f:       5d                      pop    rbp
   8cd30:       41 5c                   pop    r12
   8cd32:       41 5d                   pop    r13
   8cd34:       41 5e                   pop    r14
   8cd36:       41 5f                   pop    r15
   8cd38:       c3                      ret    
   8cd39:       0f 1f 80 00 00 00 00    nop    DWORD PTR [rax+0x0]
   8cd40:       48 8b 7f 48             mov    rdi, QWORD PTR [rdi+0x48]
   8cd44:       48 85 ff                test   rdi, rdi
   8cd47:       74 0b                   je     0x8cd54
   8cd49:       e8 22 b6 f9 ff          call   0x28370
   8cd4e:       81 23 ff fe ff ff       and    DWORD PTR [rbx], 0xfffffeff
   8cd54:       48 89 df                mov    rdi, rbx
   8cd57:       e8 b4 0f 00 00          call   0x8dd10
   8cd5c:       8b 03                   mov    eax, DWORD PTR [rbx]
   8cd5e:       a9 02 02 00 00          test   eax, 0x202
   8cd63:       0f 85 12 fe ff ff       jne    0x8cb7b
   8cd69:       e9 e4 fe ff ff          jmp    0x8cc52
   8cd6e:       66 90                   xchg   ax, ax
   8cd70:       4d 89 e0                mov    r8, r12
   8cd73:       e9 61 fe ff ff          jmp    0x8cbd9
   8cd78:       0f 1f 84 00 00 00 00 00         nop    DWORD PTR [rax+rax*1+0x0]
   8cd80:       4d 89 e0                mov    r8, r12
   8cd83:       49 8b 80 d8 00 00 00    mov    rax, QWORD PTR [r8+0xd8]
   8cd8a:       4c 8d 3d d7 99 18 00    lea    r15, [rip+0x1899d7]        # 0x216768
   8cd91:       48 8d 2d 68 8c 18 00    lea    rbp, [rip+0x188c68]        # 0x215a00
   8cd98:       4d 89 fd                mov    r13, r15
   8cd9b:       49 89 ee                mov    r14, rbp
   8cd9e:       48 89 44 24 08          mov    QWORD PTR [rsp+0x8], rax
   8cda3:       49 29 ed                sub    r13, rbp
   8cda6:       48 29 e8                sub    rax, rbp
   8cda9:       49 39 c5                cmp    r13, rax
   8cdac:       76 32                   jbe    0x8cde0
   8cdae:       48 8b 44 24 08          mov    rax, QWORD PTR [rsp+0x8]
   8cdb3:       be ff ff ff ff          mov    esi, 0xffffffff
   8cdb8:       4c 89 c7                mov    rdi, r8
   8cdbb:       ff 50 18                call   QWORD PTR [rax+0x18]
   8cdbe:       e9 43 fe ff ff          jmp    0x8cc06
   8cdc3:       0f 1f 44 00 00          nop    DWORD PTR [rax+rax*1+0x0]
   8cdc8:       e8 a3 d1 ff ff          call   0x89f70
   8cdcd:       48 8b 73 38             mov    rsi, QWORD PTR [rbx+0x38]
   8cdd1:       e9 d3 fe ff ff          jmp    0x8cca9
   8cdd6:       66 2e 0f 1f 84 00 00 00 00 00   cs nop WORD PTR [rax+rax*1+0x0]
   8cde0:       e8 8b d1 ff ff          call   0x89f70
   8cde5:       48 8b 05 4c c0 18 00    mov    rax, QWORD PTR [rip+0x18c04c]        # 0x218e38
   8cdec:       4c 8b 00                mov    r8, QWORD PTR [rax]
   8cdef:       eb bd                   jmp    0x8cdae
   8cdf1:       0f 1f 80 00 00 00 00    nop    DWORD PTR [rax+0x0]
   8cdf8:       e8 b3 44 00 00          call   0x912b0
   8cdfd:       e9 be fd ff ff          jmp    0x8cbc0
   8ce02:       66 0f 1f 44 00 00       nop    WORD PTR [rax+rax*1+0x0]
   8ce08:       b8 ff ff ff ff          mov    eax, 0xffffffff
   8ce0d:       c3                      ret    
   8ce0e:       66 90                   xchg   ax, ax
   8ce10:       83 c8 20                or     eax, 0x20
   8ce13:       89 07                   mov    DWORD PTR [rdi], eax
   8ce15:       48 8b 05 f4 bf 18 00    mov    rax, QWORD PTR [rip+0x18bff4]        # 0x218e10
   8ce1c:       64 c7 00 09 00 00 00    mov    DWORD PTR fs:[rax], 0x9
   8ce23:       b8 ff ff ff ff          mov    eax, 0xffffffff
   8ce28:       e9 b0 fe ff ff          jmp    0x8ccdd
   8ce2d:       f3 0f 1e fa             endbr64 
   8ce31:       48 89 c5                mov    rbp, rax
   8ce34:       e9 15 ca f9 ff          jmp    0x2984e
================
_IO_wfile_doallocate 0x7ff10
   7ff10:       f3 0f 1e fa             endbr64 
   7ff14:       55                      push   rbp
   7ff15:       48 89 fd                mov    rbp, rdi
   7ff18:       53                      push   rbx
   7ff19:       48 83 ec 08             sub    rsp, 0x8
   7ff1d:       48 8b 47 38             mov    rax, QWORD PTR [rdi+0x38]
   7ff21:       48 85 c0                test   rax, rax
   7ff24:       74 52                   je     0x7ff78
   7ff26:       48 8b 55 40             mov    rdx, QWORD PTR [rbp+0x40]
   7ff2a:       48 29 c2                sub    rdx, rax
   7ff2d:       48 8d 42 03             lea    rax, [rdx+0x3]
   7ff31:       48 c1 e8 02             shr    rax, 0x2
   7ff35:       f6 45 00 01             test   BYTE PTR [rbp+0x0], 0x1
   7ff39:       48 0f 45 d0             cmovne rdx, rax
   7ff3d:       48 8d 1c 95 00 00 00 00         lea    rbx, [rdx*4+0x0]
   7ff45:       48 89 df                mov    rdi, rbx
   7ff48:       e8 33 84 fa ff          call   0x28380
   7ff4d:       48 89 c6                mov    rsi, rax
   7ff50:       48 85 c0                test   rax, rax
   7ff53:       74 33                   je     0x7ff88
   7ff55:       48 8d 14 18             lea    rdx, [rax+rbx*1]
   7ff59:       48 89 ef                mov    rdi, rbp
   7ff5c:       b9 01 00 00 00          mov    ecx, 0x1
   7ff61:       e8 aa 36 00 00          call   0x83610
   7ff66:       48 83 c4 08             add    rsp, 0x8
   7ff6a:       b8 01 00 00 00          mov    eax, 0x1
   7ff6f:       5b                      pop    rbx
   7ff70:       5d                      pop    rbp
   7ff71:       c3                      ret    
   7ff72:       66 0f 1f 44 00 00       nop    WORD PTR [rax+rax*1+0x0]
   7ff78:       e8 13 ec ff ff          call   0x7eb90
   7ff7d:       48 8b 45 38             mov    rax, QWORD PTR [rbp+0x38]
   7ff81:       eb a3                   jmp    0x7ff26
   7ff83:       0f 1f 44 00 00          nop    DWORD PTR [rax+rax*1+0x0]
   7ff88:       48 83 c4 08             add    rsp, 0x8
   7ff8c:       b8 ff ff ff ff          mov    eax, 0xffffffff
   7ff91:       5b                      pop    rbx
   7ff92:       5d                      pop    rbp
   7ff93:       c3                      ret
================
_IO_wfile_sync 0x86720
   86720:       f3 0f 1e fa             endbr64 
   86724:       41 55                   push   r13
   86726:       41 54                   push   r12
   86728:       55                      push   rbp
   86729:       53                      push   rbx
   8672a:       48 89 fb                mov    rbx, rdi
   8672d:       48 83 ec 18             sub    rsp, 0x18
   86731:       48 8b 87 a0 00 00 00    mov    rax, QWORD PTR [rdi+0xa0]
   86738:       48 8b 50 20             mov    rdx, QWORD PTR [rax+0x20]
   8673c:       48 8b 70 18             mov    rsi, QWORD PTR [rax+0x18]
   86740:       48 39 f2                cmp    rdx, rsi
   86743:       76 29                   jbe    0x8676e
   86745:       8b 87 c0 00 00 00       mov    eax, DWORD PTR [rdi+0xc0]
   8674b:       85 c0                   test   eax, eax
   8674d:       0f 8e bd 00 00 00       jle    0x86810
   86753:       48 29 f2                sub    rdx, rsi
   86756:       48 c1 fa 02             sar    rdx, 0x2
   8675a:       e8 c1 fa ff ff          call   0x86220
   8675f:       85 c0                   test   eax, eax
   86761:       0f 85 c1 00 00 00       jne    0x86828
   86767:       48 8b 83 a0 00 00 00    mov    rax, QWORD PTR [rbx+0xa0]
   8676e:       48 8b 28                mov    rbp, QWORD PTR [rax]
   86771:       4c 8b 60 08             mov    r12, QWORD PTR [rax+0x8]
   86775:       4c 39 e5                cmp    rbp, r12
   86778:       74 76                   je     0x867f0
   8677a:       4c 8b ab 98 00 00 00    mov    r13, QWORD PTR [rbx+0x98]
   86781:       4c 89 ef                mov    rdi, r13
   86784:       e8 f7 06 00 00          call   0x86e80
   86789:       85 c0                   test   eax, eax
   8678b:       0f 8e bf 00 00 00       jle    0x86850
   86791:       4c 29 e5                sub    rbp, r12
   86794:       48 63 f0                movsxd rsi, eax
   86797:       48 c1 fd 02             sar    rbp, 0x2
   8679b:       48 0f af f5             imul   rsi, rbp
   8679f:       48 8b ab d8 00 00 00    mov    rbp, QWORD PTR [rbx+0xd8]
   867a6:       48 8d 15 53 f2 18 00    lea    rdx, [rip+0x18f253]        # 0x215a00
   867ad:       48 8d 05 b4 ff 18 00    lea    rax, [rip+0x18ffb4]        # 0x216768
   867b4:       48 29 d0                sub    rax, rdx
   867b7:       48 89 e9                mov    rcx, rbp
   867ba:       48 29 d1                sub    rcx, rdx
   867bd:       48 39 c8                cmp    rax, rcx
   867c0:       0f 86 da 00 00 00       jbe    0x868a0
   867c6:       ba 01 00 00 00          mov    edx, 0x1
   867cb:       48 89 df                mov    rdi, rbx
   867ce:       ff 95 80 00 00 00       call   QWORD PTR [rbp+0x80]
   867d4:       48 83 f8 ff             cmp    rax, 0xffffffffffffffff
   867d8:       74 66                   je     0x86840
   867da:       48 8b 83 a0 00 00 00    mov    rax, QWORD PTR [rbx+0xa0]
   867e1:       48 8b 10                mov    rdx, QWORD PTR [rax]
   867e4:       48 89 50 08             mov    QWORD PTR [rax+0x8], rdx
   867e8:       48 8b 43 08             mov    rax, QWORD PTR [rbx+0x8]
   867ec:       48 89 43 10             mov    QWORD PTR [rbx+0x10], rax
   867f0:       48 c7 83 90 00 00 00 ff ff ff ff        mov    QWORD PTR [rbx+0x90], 0xffffffffffffffff
   867fb:       48 83 c4 18             add    rsp, 0x18
   867ff:       31 c0                   xor    eax, eax
   86801:       5b                      pop    rbx
   86802:       5d                      pop    rbp
   86803:       41 5c                   pop    r12
   86805:       41 5d                   pop    r13
   86807:       c3                      ret    
   86808:       0f 1f 84 00 00 00 00 00         nop    DWORD PTR [rax+rax*1+0x0]
   86810:       48 8b 77 20             mov    rsi, QWORD PTR [rdi+0x20]
   86814:       48 8b 57 28             mov    rdx, QWORD PTR [rdi+0x28]
   86818:       48 29 f2                sub    rdx, rsi
   8681b:       e8 90 61 00 00          call   0x8c9b0
   86820:       85 c0                   test   eax, eax
   86822:       0f 84 3f ff ff ff       je     0x86767
   86828:       48 83 c4 18             add    rsp, 0x18
   8682c:       b8 ff ff ff ff          mov    eax, 0xffffffff
   86831:       5b                      pop    rbx
   86832:       5d                      pop    rbp
   86833:       41 5c                   pop    r12
   86835:       41 5d                   pop    r13
   86837:       c3                      ret    
   86838:       0f 1f 84 00 00 00 00 00         nop    DWORD PTR [rax+rax*1+0x0]
   86840:       48 8b 05 c9 25 19 00    mov    rax, QWORD PTR [rip+0x1925c9]        # 0x218e10
   86847:       64 83 38 1d             cmp    DWORD PTR fs:[rax], 0x1d
   8684b:       75 db                   jne    0x86828
   8684d:       eb a1                   jmp    0x867f0
   8684f:       90                      nop
   86850:       48 8b b3 a0 00 00 00    mov    rsi, QWORD PTR [rbx+0xa0]
   86857:       48 8b 4b 10             mov    rcx, QWORD PTR [rbx+0x10]
   8685b:       4c 89 ef                mov    rdi, r13
   8685e:       48 8b 53 18             mov    rdx, QWORD PTR [rbx+0x18]
   86862:       48 8b 46 60             mov    rax, QWORD PTR [rsi+0x60]
   86866:       4c 8b 06                mov    r8, QWORD PTR [rsi]
   86869:       48 83 c6 58             add    rsi, 0x58
   8686d:       4c 2b 46 b8             sub    r8, QWORD PTR [rsi-0x48]
   86871:       48 89 06                mov    QWORD PTR [rsi], rax
   86874:       49 c1 f8 02             sar    r8, 0x2
   86878:       e8 33 06 00 00          call   0x86eb0
   8687d:       48 8b 53 18             mov    rdx, QWORD PTR [rbx+0x18]
   86881:       48 98                   cdqe   
   86883:       48 8d 0c 02             lea    rcx, [rdx+rax*1]
   86887:       48 2b 53 10             sub    rdx, QWORD PTR [rbx+0x10]
   8688b:       48 89 4b 08             mov    QWORD PTR [rbx+0x8], rcx
   8688f:       48 8d 34 02             lea    rsi, [rdx+rax*1]
   86893:       e9 07 ff ff ff          jmp    0x8679f
   86898:       0f 1f 84 00 00 00 00 00         nop    DWORD PTR [rax+rax*1+0x0]
   868a0:       48 89 74 24 08          mov    QWORD PTR [rsp+0x8], rsi
   868a5:       e8 c6 36 00 00          call   0x89f70
   868aa:       48 8b 74 24 08          mov    rsi, QWORD PTR [rsp+0x8]
   868af:       e9 12 ff ff ff          jmp    0x867c6
================
_IO_wfile_sync 0x86720
   86720:       f3 0f 1e fa             endbr64 
   86724:       41 55                   push   r13
   86726:       41 54                   push   r12
   86728:       55                      push   rbp
   86729:       53                      push   rbx
   8672a:       48 89 fb                mov    rbx, rdi
   8672d:       48 83 ec 18             sub    rsp, 0x18
   86731:       48 8b 87 a0 00 00 00    mov    rax, QWORD PTR [rdi+0xa0]
   86738:       48 8b 50 20             mov    rdx, QWORD PTR [rax+0x20]
   8673c:       48 8b 70 18             mov    rsi, QWORD PTR [rax+0x18]
   86740:       48 39 f2                cmp    rdx, rsi
   86743:       76 29                   jbe    0x8676e
   86745:       8b 87 c0 00 00 00       mov    eax, DWORD PTR [rdi+0xc0]
   8674b:       85 c0                   test   eax, eax
   8674d:       0f 8e bd 00 00 00       jle    0x86810
   86753:       48 29 f2                sub    rdx, rsi
   86756:       48 c1 fa 02             sar    rdx, 0x2
   8675a:       e8 c1 fa ff ff          call   0x86220
   8675f:       85 c0                   test   eax, eax
   86761:       0f 85 c1 00 00 00       jne    0x86828
   86767:       48 8b 83 a0 00 00 00    mov    rax, QWORD PTR [rbx+0xa0]
   8676e:       48 8b 28                mov    rbp, QWORD PTR [rax]
   86771:       4c 8b 60 08             mov    r12, QWORD PTR [rax+0x8]
   86775:       4c 39 e5                cmp    rbp, r12
   86778:       74 76                   je     0x867f0
   8677a:       4c 8b ab 98 00 00 00    mov    r13, QWORD PTR [rbx+0x98]
   86781:       4c 89 ef                mov    rdi, r13
   86784:       e8 f7 06 00 00          call   0x86e80
   86789:       85 c0                   test   eax, eax
   8678b:       0f 8e bf 00 00 00       jle    0x86850
   86791:       4c 29 e5                sub    rbp, r12
   86794:       48 63 f0                movsxd rsi, eax
   86797:       48 c1 fd 02             sar    rbp, 0x2
   8679b:       48 0f af f5             imul   rsi, rbp
   8679f:       48 8b ab d8 00 00 00    mov    rbp, QWORD PTR [rbx+0xd8]
   867a6:       48 8d 15 53 f2 18 00    lea    rdx, [rip+0x18f253]        # 0x215a00
   867ad:       48 8d 05 b4 ff 18 00    lea    rax, [rip+0x18ffb4]        # 0x216768
   867b4:       48 29 d0                sub    rax, rdx
   867b7:       48 89 e9                mov    rcx, rbp
   867ba:       48 29 d1                sub    rcx, rdx
   867bd:       48 39 c8                cmp    rax, rcx
   867c0:       0f 86 da 00 00 00       jbe    0x868a0
   867c6:       ba 01 00 00 00          mov    edx, 0x1
   867cb:       48 89 df                mov    rdi, rbx
   867ce:       ff 95 80 00 00 00       call   QWORD PTR [rbp+0x80]
   867d4:       48 83 f8 ff             cmp    rax, 0xffffffffffffffff
   867d8:       74 66                   je     0x86840
   867da:       48 8b 83 a0 00 00 00    mov    rax, QWORD PTR [rbx+0xa0]
   867e1:       48 8b 10                mov    rdx, QWORD PTR [rax]
   867e4:       48 89 50 08             mov    QWORD PTR [rax+0x8], rdx
   867e8:       48 8b 43 08             mov    rax, QWORD PTR [rbx+0x8]
   867ec:       48 89 43 10             mov    QWORD PTR [rbx+0x10], rax
   867f0:       48 c7 83 90 00 00 00 ff ff ff ff        mov    QWORD PTR [rbx+0x90], 0xffffffffffffffff
   867fb:       48 83 c4 18             add    rsp, 0x18
   867ff:       31 c0                   xor    eax, eax
   86801:       5b                      pop    rbx
   86802:       5d                      pop    rbp
   86803:       41 5c                   pop    r12
   86805:       41 5d                   pop    r13
   86807:       c3                      ret    
   86808:       0f 1f 84 00 00 00 00 00         nop    DWORD PTR [rax+rax*1+0x0]
   86810:       48 8b 77 20             mov    rsi, QWORD PTR [rdi+0x20]
   86814:       48 8b 57 28             mov    rdx, QWORD PTR [rdi+0x28]
   86818:       48 29 f2                sub    rdx, rsi
   8681b:       e8 90 61 00 00          call   0x8c9b0
   86820:       85 c0                   test   eax, eax
   86822:       0f 84 3f ff ff ff       je     0x86767
   86828:       48 83 c4 18             add    rsp, 0x18
   8682c:       b8 ff ff ff ff          mov    eax, 0xffffffff
   86831:       5b                      pop    rbx
   86832:       5d                      pop    rbp
   86833:       41 5c                   pop    r12
   86835:       41 5d                   pop    r13
   86837:       c3                      ret    
   86838:       0f 1f 84 00 00 00 00 00         nop    DWORD PTR [rax+rax*1+0x0]
   86840:       48 8b 05 c9 25 19 00    mov    rax, QWORD PTR [rip+0x1925c9]        # 0x218e10
   86847:       64 83 38 1d             cmp    DWORD PTR fs:[rax], 0x1d
   8684b:       75 db                   jne    0x86828
   8684d:       eb a1                   jmp    0x867f0
   8684f:       90                      nop
   86850:       48 8b b3 a0 00 00 00    mov    rsi, QWORD PTR [rbx+0xa0]
   86857:       48 8b 4b 10             mov    rcx, QWORD PTR [rbx+0x10]
   8685b:       4c 89 ef                mov    rdi, r13
   8685e:       48 8b 53 18             mov    rdx, QWORD PTR [rbx+0x18]
   86862:       48 8b 46 60             mov    rax, QWORD PTR [rsi+0x60]
   86866:       4c 8b 06                mov    r8, QWORD PTR [rsi]
   86869:       48 83 c6 58             add    rsi, 0x58
   8686d:       4c 2b 46 b8             sub    r8, QWORD PTR [rsi-0x48]
   86871:       48 89 06                mov    QWORD PTR [rsi], rax
   86874:       49 c1 f8 02             sar    r8, 0x2
   86878:       e8 33 06 00 00          call   0x86eb0
   8687d:       48 8b 53 18             mov    rdx, QWORD PTR [rbx+0x18]
   86881:       48 98                   cdqe   
   86883:       48 8d 0c 02             lea    rcx, [rdx+rax*1]
   86887:       48 2b 53 10             sub    rdx, QWORD PTR [rbx+0x10]
   8688b:       48 89 4b 08             mov    QWORD PTR [rbx+0x8], rcx
   8688f:       48 8d 34 02             lea    rsi, [rdx+rax*1]
   86893:       e9 07 ff ff ff          jmp    0x8679f
   86898:       0f 1f 84 00 00 00 00 00         nop    DWORD PTR [rax+rax*1+0x0]
   868a0:       48 89 74 24 08          mov    QWORD PTR [rsp+0x8], rsi
   868a5:       e8 c6 36 00 00          call   0x89f70
   868aa:       48 8b 74 24 08          mov    rsi, QWORD PTR [rsp+0x8]
   868af:       e9 12 ff ff ff          jmp    0x867c6
================
_IO_file_seekoff_mmap 0x8b550
   8b550:       f3 0f 1e fa             endbr64 
   8b554:       41 54                   push   r12
   8b556:       55                      push   rbp
   8b557:       53                      push   rbx
   8b558:       48 89 fb                mov    rbx, rdi
   8b55b:       85 c9                   test   ecx, ecx
   8b55d:       0f 84 cd 00 00 00       je     0x8b630
   8b563:       48 89 f5                mov    rbp, rsi
   8b566:       83 fa 01                cmp    edx, 0x1
   8b569:       0f 84 b1 00 00 00       je     0x8b620
   8b56f:       83 fa 02                cmp    edx, 0x2
   8b572:       0f 84 88 00 00 00       je     0x8b600
   8b578:       48 85 ed                test   rbp, rbp
   8b57b:       0f 88 d9 00 00 00       js     0x8b65a
   8b581:       4c 8b a3 d8 00 00 00    mov    r12, QWORD PTR [rbx+0xd8]
   8b588:       48 8d 15 71 a4 18 00    lea    rdx, [rip+0x18a471]        # 0x215a00
   8b58f:       48 8d 05 d2 b1 18 00    lea    rax, [rip+0x18b1d2]        # 0x216768
   8b596:       48 29 d0                sub    rax, rdx
   8b599:       4c 89 e1                mov    rcx, r12
   8b59c:       48 29 d1                sub    rcx, rdx
   8b59f:       48 39 c8                cmp    rax, rcx
   8b5a2:       0f 86 a8 00 00 00       jbe    0x8b650
   8b5a8:       31 d2                   xor    edx, edx
   8b5aa:       48 89 ee                mov    rsi, rbp
   8b5ad:       48 89 df                mov    rdi, rbx
   8b5b0:       41 ff 94 24 80 00 00 00         call   QWORD PTR [r12+0x80]
   8b5b8:       48 85 c0                test   rax, rax
   8b5bb:       0f 88 b3 00 00 00       js     0x8b674
   8b5c1:       f3 0f 6f 43 38          movdqu xmm0, XMMWORD PTR [rbx+0x38]
   8b5c6:       48 8b 4b 38             mov    rcx, QWORD PTR [rbx+0x38]
   8b5ca:       0f 12 d0                movhlps xmm2, xmm0
   8b5cd:       66 0f 6f c8             movdqa xmm1, xmm0
   8b5d1:       66 48 0f 7e d2          movq   rdx, xmm2
   8b5d6:       66 0f 6d c8             punpckhqdq xmm1, xmm0
   8b5da:       48 29 ca                sub    rdx, rcx
   8b5dd:       48 39 d5                cmp    rbp, rdx
   8b5e0:       7e 2e                   jle    0x8b610
   8b5e2:       83 23 ef                and    DWORD PTR [rbx], 0xffffffef
   8b5e5:       48 89 4b 18             mov    QWORD PTR [rbx+0x18], rcx
   8b5e9:       48 89 83 90 00 00 00    mov    QWORD PTR [rbx+0x90], rax
   8b5f0:       48 89 e8                mov    rax, rbp
   8b5f3:       0f 11 4b 08             movups XMMWORD PTR [rbx+0x8], xmm1
   8b5f7:       5b                      pop    rbx
   8b5f8:       5d                      pop    rbp
   8b5f9:       41 5c                   pop    r12
   8b5fb:       c3                      ret    
   8b5fc:       0f 1f 40 00             nop    DWORD PTR [rax+0x0]
   8b600:       48 8b 47 40             mov    rax, QWORD PTR [rdi+0x40]
   8b604:       48 2b 47 38             sub    rax, QWORD PTR [rdi+0x38]
   8b608:       48 01 c5                add    rbp, rax
   8b60b:       e9 68 ff ff ff          jmp    0x8b578
   8b610:       48 8d 34 29             lea    rsi, [rcx+rbp*1]
   8b614:       66 48 0f 6e ce          movq   xmm1, rsi
   8b619:       66 0f 6c c9             punpcklqdq xmm1, xmm1
   8b61d:       eb c3                   jmp    0x8b5e2
   8b61f:       90                      nop
   8b620:       48 8b 47 08             mov    rax, QWORD PTR [rdi+0x8]
   8b624:       48 2b 47 18             sub    rax, QWORD PTR [rdi+0x18]
   8b628:       48 01 c5                add    rbp, rax
   8b62b:       e9 48 ff ff ff          jmp    0x8b578
   8b630:       48 8b 87 90 00 00 00    mov    rax, QWORD PTR [rdi+0x90]
   8b637:       48 8b 57 10             mov    rdx, QWORD PTR [rdi+0x10]
   8b63b:       48 2b 57 08             sub    rdx, QWORD PTR [rdi+0x8]
   8b63f:       5b                      pop    rbx
   8b640:       48 29 d0                sub    rax, rdx
   8b643:       5d                      pop    rbp
   8b644:       41 5c                   pop    r12
   8b646:       c3                      ret    
   8b647:       66 0f 1f 84 00 00 00 00 00      nop    WORD PTR [rax+rax*1+0x0]
   8b650:       e8 1b e9 ff ff          call   0x89f70
   8b655:       e9 4e ff ff ff          jmp    0x8b5a8
   8b65a:       48 8b 05 af d7 18 00    mov    rax, QWORD PTR [rip+0x18d7af]        # 0x218e10
   8b661:       64 c7 00 16 00 00 00    mov    DWORD PTR fs:[rax], 0x16
   8b668:       48 c7 c0 ff ff ff ff    mov    rax, 0xffffffffffffffff
   8b66f:       e9 83 ff ff ff          jmp    0x8b5f7
   8b674:       48 c7 c0 ff ff ff ff    mov    rax, 0xffffffffffffffff
   8b67b:       e9 77 ff ff ff          jmp    0x8b5f7
================
_IO_cookie_seekoff 0x7f8d0
   7f8d0:       f3 0f 1e fa             endbr64 
   7f8d4:       48 c7 87 90 00 00 00 ff ff ff ff        mov    QWORD PTR [rdi+0x90], 0xffffffffffffffff
   7f8df:       e9 7c b0 00 00          jmp    0x8a960
================
_IO_default_seek 0x8f460
   8f460:       f3 0f 1e fa             endbr64 
   8f464:       48 c7 c0 ff ff ff ff    mov    rax, 0xffffffffffffffff
   8f46b:       c3                      ret
================
_IO_wdefault_xsgetn 0x840b0
   840b0:       f3 0f 1e fa             endbr64 
   840b4:       41 57                   push   r15
   840b6:       49 89 ff                mov    r15, rdi
   840b9:       41 56                   push   r14
   840bb:       4c 8d 35 3e 19 19 00    lea    r14, [rip+0x19193e]        # 0x215a00
   840c2:       41 55                   push   r13
   840c4:       4c 8d 2d 9d 26 19 00    lea    r13, [rip+0x19269d]        # 0x216768
   840cb:       41 54                   push   r12
   840cd:       4d 29 f5                sub    r13, r14
   840d0:       49 89 d4                mov    r12, rdx
   840d3:       55                      push   rbp
   840d4:       48 89 f5                mov    rbp, rsi
   840d7:       53                      push   rbx
   840d8:       48 89 d3                mov    rbx, rdx
   840db:       48 83 ec 18             sub    rsp, 0x18
   840df:       90                      nop
   840e0:       49 8b bf a0 00 00 00    mov    rdi, QWORD PTR [r15+0xa0]
   840e7:       48 8b 37                mov    rsi, QWORD PTR [rdi]
   840ea:       48 8b 47 08             mov    rax, QWORD PTR [rdi+0x8]
   840ee:       48 29 f0                sub    rax, rsi
   840f1:       48 85 c0                test   rax, rax
   840f4:       7e 25                   jle    0x8411b
   840f6:       48 c1 f8 02             sar    rax, 0x2
   840fa:       48 89 c1                mov    rcx, rax
   840fd:       48 39 d8                cmp    rax, rbx
   84100:       76 06                   jbe    0x84108
   84102:       48 89 d8                mov    rax, rbx
   84105:       48 89 d9                mov    rcx, rbx
   84108:       48 83 f8 14             cmp    rax, 0x14
   8410c:       0f 8f 3e 01 00 00       jg     0x84250
   84112:       48 85 c0                test   rax, rax
   84115:       0f 85 a5 01 00 00       jne    0x842c0
   8411b:       48 85 db                test   rbx, rbx
   8411e:       0f 84 bf 00 00 00       je     0x841e3
   84124:       41 8b 97 c0 00 00 00    mov    edx, DWORD PTR [r15+0xc0]
   8412b:       85 d2                   test   edx, edx
   8412d:       0f 88 ad 00 00 00       js     0x841e0
   84133:       0f 84 c7 00 00 00       je     0x84200
   84139:       41 f7 07 00 08 00 00    test   DWORD PTR [r15], 0x800
   84140:       0f 85 f5 00 00 00       jne    0x8423b
   84146:       49 8b 87 a0 00 00 00    mov    rax, QWORD PTR [r15+0xa0]
   8414d:       48 8b 10                mov    rdx, QWORD PTR [rax]
   84150:       48 8b 70 08             mov    rsi, QWORD PTR [rax+0x8]
   84154:       48 39 f2                cmp    rdx, rsi
   84157:       0f 82 9b 00 00 00       jb     0x841f8
   8415d:       41 8b 17                mov    edx, DWORD PTR [r15]
   84160:       f6 c6 01                test   dh, 0x1
   84163:       74 37                   je     0x8419c
   84165:       80 e6 fe                and    dh, 0xfe
   84168:       48 8b 48 50             mov    rcx, QWORD PTR [rax+0x50]
   8416c:       41 89 17                mov    DWORD PTR [r15], edx
   8416f:       48 8b 50 40             mov    rdx, QWORD PTR [rax+0x40]
   84173:       48 89 70 50             mov    QWORD PTR [rax+0x50], rsi
   84177:       66 48 0f 6e c9          movq   xmm1, rcx
   8417c:       48 8b 70 10             mov    rsi, QWORD PTR [rax+0x10]
   84180:       66 48 0f 6e c2          movq   xmm0, rdx
   84185:       48 89 50 10             mov    QWORD PTR [rax+0x10], rdx
   84189:       66 0f 6c c1             punpcklqdq xmm0, xmm1
   8418d:       48 89 70 40             mov    QWORD PTR [rax+0x40], rsi
   84191:       48 89 ce                mov    rsi, rcx
   84194:       0f 11 00                movups XMMWORD PTR [rax], xmm0
   84197:       48 39 d1                cmp    rcx, rdx
   8419a:       77 5c                   ja     0x841f8
   8419c:       49 83 7f 60 00          cmp    QWORD PTR [r15+0x60], 0x0
   841a1:       0f 84 e1 00 00 00       je     0x84288
   841a7:       4c 89 ff                mov    rdi, r15
   841aa:       e8 51 f1 ff ff          call   0x83300
   841af:       85 c0                   test   eax, eax
   841b1:       75 2d                   jne    0x841e0
   841b3:       49 8b 87 d8 00 00 00    mov    rax, QWORD PTR [r15+0xd8]
   841ba:       48 89 c2                mov    rdx, rax
   841bd:       4c 29 f2                sub    rdx, r14
   841c0:       49 39 d5                cmp    r13, rdx
   841c3:       0f 86 bf 01 00 00       jbe    0x84388
   841c9:       4c 89 ff                mov    rdi, r15
   841cc:       ff 50 20                call   QWORD PTR [rax+0x20]
   841cf:       83 f8 ff                cmp    eax, 0xffffffff
   841d2:       0f 85 08 ff ff ff       jne    0x840e0
   841d8:       0f 1f 84 00 00 00 00 00         nop    DWORD PTR [rax+rax*1+0x0]
   841e0:       49 29 dc                sub    r12, rbx
   841e3:       48 83 c4 18             add    rsp, 0x18
   841e7:       4c 89 e0                mov    rax, r12
   841ea:       5b                      pop    rbx
   841eb:       5d                      pop    rbp
   841ec:       41 5c                   pop    r12
   841ee:       41 5d                   pop    r13
   841f0:       41 5e                   pop    r14
   841f2:       41 5f                   pop    r15
   841f4:       c3                      ret    
   841f5:       0f 1f 00                nop    DWORD PTR [rax]
   841f8:       8b 02                   mov    eax, DWORD PTR [rdx]
   841fa:       eb d3                   jmp    0x841cf
   841fc:       0f 1f 40 00             nop    DWORD PTR [rax+0x0]
   84200:       be 01 00 00 00          mov    esi, 0x1
   84205:       4c 89 ff                mov    rdi, r15
   84208:       e8 f3 28 00 00          call   0x86b00
   8420d:       83 f8 01                cmp    eax, 0x1
   84210:       75 ce                   jne    0x841e0
   84212:       41 8b 87 c0 00 00 00    mov    eax, DWORD PTR [r15+0xc0]
   84219:       85 c0                   test   eax, eax
   8421b:       0f 85 18 ff ff ff       jne    0x84139
   84221:       be 01 00 00 00          mov    esi, 0x1
   84226:       4c 89 ff                mov    rdi, r15
   84229:       e8 d2 28 00 00          call   0x86b00
   8422e:       41 f7 07 00 08 00 00    test   DWORD PTR [r15], 0x800
   84235:       0f 84 0b ff ff ff       je     0x84146
   8423b:       4c 89 ff                mov    rdi, r15
   8423e:       e8 ed fa ff ff          call   0x83d30
   84243:       83 f8 ff                cmp    eax, 0xffffffff
   84246:       0f 85 fa fe ff ff       jne    0x84146
   8424c:       eb 92                   jmp    0x841e0
   8424e:       66 90                   xchg   ax, ax
   84250:       48 89 ca                mov    rdx, rcx
   84253:       48 89 ef                mov    rdi, rbp
   84256:       48 89 4c 24 08          mov    QWORD PTR [rsp+0x8], rcx
   8425b:       e8 40 1a 04 00          call   0xc5ca0
   84260:       48 8b 4c 24 08          mov    rcx, QWORD PTR [rsp+0x8]
   84265:       48 89 c5                mov    rbp, rax
   84268:       49 8b 87 a0 00 00 00    mov    rax, QWORD PTR [r15+0xa0]
   8426f:       48 8d 14 8d 00 00 00 00         lea    rdx, [rcx*4+0x0]
   84277:       48 29 cb                sub    rbx, rcx
   8427a:       48 01 10                add    QWORD PTR [rax], rdx
   8427d:       e9 99 fe ff ff          jmp    0x8411b
   84282:       66 0f 1f 44 00 00       nop    WORD PTR [rax+rax*1+0x0]
   84288:       49 83 7f 48 00          cmp    QWORD PTR [r15+0x48], 0x0
   8428d:       0f 84 20 ff ff ff       je     0x841b3
   84293:       48 8b 78 40             mov    rdi, QWORD PTR [rax+0x40]
   84297:       e8 d4 40 fa ff          call   0x28370
   8429c:       49 8b 87 a0 00 00 00    mov    rax, QWORD PTR [r15+0xa0]
   842a3:       66 0f ef db             pxor   xmm3, xmm3
   842a7:       48 c7 40 50 00 00 00 00         mov    QWORD PTR [rax+0x50], 0x0
   842af:       0f 11 58 40             movups XMMWORD PTR [rax+0x40], xmm3
   842b3:       e9 fb fe ff ff          jmp    0x841b3
   842b8:       0f 1f 84 00 00 00 00 00         nop    DWORD PTR [rax+rax*1+0x0]
   842c0:       4c 8d 56 04             lea    r10, [rsi+0x4]
   842c4:       49 89 e9                mov    r9, rbp
   842c7:       89 c2                   mov    edx, eax
   842c9:       41 89 c3                mov    r11d, eax
   842cc:       4d 29 d1                sub    r9, r10
   842cf:       44 8d 40 ff             lea    r8d, [rax-0x1]
   842d3:       49 83 f9 08             cmp    r9, 0x8
   842d7:       0f 86 c3 00 00 00       jbe    0x843a0
   842dd:       41 83 f8 02             cmp    r8d, 0x2
   842e1:       0f 86 b9 00 00 00       jbe    0x843a0
   842e7:       f3 0f 6f 16             movdqu xmm2, XMMWORD PTR [rsi]
   842eb:       c1 ea 02                shr    edx, 0x2
   842ee:       0f 11 55 00             movups XMMWORD PTR [rbp+0x0], xmm2
   842f2:       83 fa 01                cmp    edx, 0x1
   842f5:       74 39                   je     0x84330
   842f7:       f3 0f 6f 66 10          movdqu xmm4, XMMWORD PTR [rsi+0x10]
   842fc:       0f 11 65 10             movups XMMWORD PTR [rbp+0x10], xmm4
   84300:       83 fa 02                cmp    edx, 0x2
   84303:       74 2b                   je     0x84330
   84305:       f3 0f 6f 6e 20          movdqu xmm5, XMMWORD PTR [rsi+0x20]
   8430a:       0f 11 6d 20             movups XMMWORD PTR [rbp+0x20], xmm5
   8430e:       83 fa 03                cmp    edx, 0x3
   84311:       74 1d                   je     0x84330
   84313:       f3 0f 6f 76 30          movdqu xmm6, XMMWORD PTR [rsi+0x30]
   84318:       0f 11 75 30             movups XMMWORD PTR [rbp+0x30], xmm6
   8431c:       83 fa 05                cmp    edx, 0x5
   8431f:       75 0f                   jne    0x84330
   84321:       f3 0f 6f 7e 40          movdqu xmm7, XMMWORD PTR [rsi+0x40]
   84326:       89 c0                   mov    eax, eax
   84328:       0f 11 7d 40             movups XMMWORD PTR [rbp+0x40], xmm7
   8432c:       eb 42                   jmp    0x84370
   8432e:       66 90                   xchg   ax, ax
   84330:       45 89 d9                mov    r9d, r11d
   84333:       41 83 e1 fc             and    r9d, 0xfffffffc
   84337:       44 89 ca                mov    edx, r9d
   8433a:       45 29 c8                sub    r8d, r9d
   8433d:       48 c1 e2 02             shl    rdx, 0x2
   84341:       4c 8d 54 15 00          lea    r10, [rbp+rdx*1+0x0]
   84346:       48 01 f2                add    rdx, rsi
   84349:       45 39 d9                cmp    r9d, r11d
   8434c:       74 6e                   je     0x843bc
   8434e:       44 8b 0a                mov    r9d, DWORD PTR [rdx]
   84351:       89 c0                   mov    eax, eax
   84353:       45 89 0a                mov    DWORD PTR [r10], r9d
   84356:       45 85 c0                test   r8d, r8d
   84359:       74 15                   je     0x84370
   8435b:       44 8b 4a 04             mov    r9d, DWORD PTR [rdx+0x4]
   8435f:       45 89 4a 04             mov    DWORD PTR [r10+0x4], r9d
   84363:       41 83 f8 01             cmp    r8d, 0x1
   84367:       74 07                   je     0x84370
   84369:       8b 52 08                mov    edx, DWORD PTR [rdx+0x8]
   8436c:       41 89 52 08             mov    DWORD PTR [r10+0x8], edx
   84370:       48 c1 e0 02             shl    rax, 0x2
   84374:       48 29 cb                sub    rbx, rcx
   84377:       48 01 c5                add    rbp, rax
   8437a:       48 01 f0                add    rax, rsi
   8437d:       48 89 07                mov    QWORD PTR [rdi], rax
   84380:       e9 96 fd ff ff          jmp    0x8411b
   84385:       0f 1f 00                nop    DWORD PTR [rax]
   84388:       48 89 44 24 08          mov    QWORD PTR [rsp+0x8], rax
   8438d:       e8 de 5b 00 00          call   0x89f70
   84392:       48 8b 44 24 08          mov    rax, QWORD PTR [rsp+0x8]
   84397:       e9 2d fe ff ff          jmp    0x841c9
   8439c:       0f 1f 40 00             nop    DWORD PTR [rax+0x0]
   843a0:       89 c0                   mov    eax, eax
   843a2:       31 d2                   xor    edx, edx
   843a4:       0f 1f 40 00             nop    DWORD PTR [rax+0x0]
   843a8:       44 8b 04 96             mov    r8d, DWORD PTR [rsi+rdx*4]
   843ac:       44 89 44 95 00          mov    DWORD PTR [rbp+rdx*4+0x0], r8d
   843b1:       48 83 c2 01             add    rdx, 0x1
   843b5:       48 39 d0                cmp    rax, rdx
   843b8:       75 ee                   jne    0x843a8
   843ba:       eb b4                   jmp    0x84370
   843bc:       89 c0                   mov    eax, eax
   843be:       eb b0                   jmp    0x84370
================
_IO_wdefault_xsgetn 0x840b0
   840b0:       f3 0f 1e fa             endbr64 
   840b4:       41 57                   push   r15
   840b6:       49 89 ff                mov    r15, rdi
   840b9:       41 56                   push   r14
   840bb:       4c 8d 35 3e 19 19 00    lea    r14, [rip+0x19193e]        # 0x215a00
   840c2:       41 55                   push   r13
   840c4:       4c 8d 2d 9d 26 19 00    lea    r13, [rip+0x19269d]        # 0x216768
   840cb:       41 54                   push   r12
   840cd:       4d 29 f5                sub    r13, r14
   840d0:       49 89 d4                mov    r12, rdx
   840d3:       55                      push   rbp
   840d4:       48 89 f5                mov    rbp, rsi
   840d7:       53                      push   rbx
   840d8:       48 89 d3                mov    rbx, rdx
   840db:       48 83 ec 18             sub    rsp, 0x18
   840df:       90                      nop
   840e0:       49 8b bf a0 00 00 00    mov    rdi, QWORD PTR [r15+0xa0]
   840e7:       48 8b 37                mov    rsi, QWORD PTR [rdi]
   840ea:       48 8b 47 08             mov    rax, QWORD PTR [rdi+0x8]
   840ee:       48 29 f0                sub    rax, rsi
   840f1:       48 85 c0                test   rax, rax
   840f4:       7e 25                   jle    0x8411b
   840f6:       48 c1 f8 02             sar    rax, 0x2
   840fa:       48 89 c1                mov    rcx, rax
   840fd:       48 39 d8                cmp    rax, rbx
   84100:       76 06                   jbe    0x84108
   84102:       48 89 d8                mov    rax, rbx
   84105:       48 89 d9                mov    rcx, rbx
   84108:       48 83 f8 14             cmp    rax, 0x14
   8410c:       0f 8f 3e 01 00 00       jg     0x84250
   84112:       48 85 c0                test   rax, rax
   84115:       0f 85 a5 01 00 00       jne    0x842c0
   8411b:       48 85 db                test   rbx, rbx
   8411e:       0f 84 bf 00 00 00       je     0x841e3
   84124:       41 8b 97 c0 00 00 00    mov    edx, DWORD PTR [r15+0xc0]
   8412b:       85 d2                   test   edx, edx
   8412d:       0f 88 ad 00 00 00       js     0x841e0
   84133:       0f 84 c7 00 00 00       je     0x84200
   84139:       41 f7 07 00 08 00 00    test   DWORD PTR [r15], 0x800
   84140:       0f 85 f5 00 00 00       jne    0x8423b
   84146:       49 8b 87 a0 00 00 00    mov    rax, QWORD PTR [r15+0xa0]
   8414d:       48 8b 10                mov    rdx, QWORD PTR [rax]
   84150:       48 8b 70 08             mov    rsi, QWORD PTR [rax+0x8]
   84154:       48 39 f2                cmp    rdx, rsi
   84157:       0f 82 9b 00 00 00       jb     0x841f8
   8415d:       41 8b 17                mov    edx, DWORD PTR [r15]
   84160:       f6 c6 01                test   dh, 0x1
   84163:       74 37                   je     0x8419c
   84165:       80 e6 fe                and    dh, 0xfe
   84168:       48 8b 48 50             mov    rcx, QWORD PTR [rax+0x50]
   8416c:       41 89 17                mov    DWORD PTR [r15], edx
   8416f:       48 8b 50 40             mov    rdx, QWORD PTR [rax+0x40]
   84173:       48 89 70 50             mov    QWORD PTR [rax+0x50], rsi
   84177:       66 48 0f 6e c9          movq   xmm1, rcx
   8417c:       48 8b 70 10             mov    rsi, QWORD PTR [rax+0x10]
   84180:       66 48 0f 6e c2          movq   xmm0, rdx
   84185:       48 89 50 10             mov    QWORD PTR [rax+0x10], rdx
   84189:       66 0f 6c c1             punpcklqdq xmm0, xmm1
   8418d:       48 89 70 40             mov    QWORD PTR [rax+0x40], rsi
   84191:       48 89 ce                mov    rsi, rcx
   84194:       0f 11 00                movups XMMWORD PTR [rax], xmm0
   84197:       48 39 d1                cmp    rcx, rdx
   8419a:       77 5c                   ja     0x841f8
   8419c:       49 83 7f 60 00          cmp    QWORD PTR [r15+0x60], 0x0
   841a1:       0f 84 e1 00 00 00       je     0x84288
   841a7:       4c 89 ff                mov    rdi, r15
   841aa:       e8 51 f1 ff ff          call   0x83300
   841af:       85 c0                   test   eax, eax
   841b1:       75 2d                   jne    0x841e0
   841b3:       49 8b 87 d8 00 00 00    mov    rax, QWORD PTR [r15+0xd8]
   841ba:       48 89 c2                mov    rdx, rax
   841bd:       4c 29 f2                sub    rdx, r14
   841c0:       49 39 d5                cmp    r13, rdx
   841c3:       0f 86 bf 01 00 00       jbe    0x84388
   841c9:       4c 89 ff                mov    rdi, r15
   841cc:       ff 50 20                call   QWORD PTR [rax+0x20]
   841cf:       83 f8 ff                cmp    eax, 0xffffffff
   841d2:       0f 85 08 ff ff ff       jne    0x840e0
   841d8:       0f 1f 84 00 00 00 00 00         nop    DWORD PTR [rax+rax*1+0x0]
   841e0:       49 29 dc                sub    r12, rbx
   841e3:       48 83 c4 18             add    rsp, 0x18
   841e7:       4c 89 e0                mov    rax, r12
   841ea:       5b                      pop    rbx
   841eb:       5d                      pop    rbp
   841ec:       41 5c                   pop    r12
   841ee:       41 5d                   pop    r13
   841f0:       41 5e                   pop    r14
   841f2:       41 5f                   pop    r15
   841f4:       c3                      ret    
   841f5:       0f 1f 00                nop    DWORD PTR [rax]
   841f8:       8b 02                   mov    eax, DWORD PTR [rdx]
   841fa:       eb d3                   jmp    0x841cf
   841fc:       0f 1f 40 00             nop    DWORD PTR [rax+0x0]
   84200:       be 01 00 00 00          mov    esi, 0x1
   84205:       4c 89 ff                mov    rdi, r15
   84208:       e8 f3 28 00 00          call   0x86b00
   8420d:       83 f8 01                cmp    eax, 0x1
   84210:       75 ce                   jne    0x841e0
   84212:       41 8b 87 c0 00 00 00    mov    eax, DWORD PTR [r15+0xc0]
   84219:       85 c0                   test   eax, eax
   8421b:       0f 85 18 ff ff ff       jne    0x84139
   84221:       be 01 00 00 00          mov    esi, 0x1
   84226:       4c 89 ff                mov    rdi, r15
   84229:       e8 d2 28 00 00          call   0x86b00
   8422e:       41 f7 07 00 08 00 00    test   DWORD PTR [r15], 0x800
   84235:       0f 84 0b ff ff ff       je     0x84146
   8423b:       4c 89 ff                mov    rdi, r15
   8423e:       e8 ed fa ff ff          call   0x83d30
   84243:       83 f8 ff                cmp    eax, 0xffffffff
   84246:       0f 85 fa fe ff ff       jne    0x84146
   8424c:       eb 92                   jmp    0x841e0
   8424e:       66 90                   xchg   ax, ax
   84250:       48 89 ca                mov    rdx, rcx
   84253:       48 89 ef                mov    rdi, rbp
   84256:       48 89 4c 24 08          mov    QWORD PTR [rsp+0x8], rcx
   8425b:       e8 40 1a 04 00          call   0xc5ca0
   84260:       48 8b 4c 24 08          mov    rcx, QWORD PTR [rsp+0x8]
   84265:       48 89 c5                mov    rbp, rax
   84268:       49 8b 87 a0 00 00 00    mov    rax, QWORD PTR [r15+0xa0]
   8426f:       48 8d 14 8d 00 00 00 00         lea    rdx, [rcx*4+0x0]
   84277:       48 29 cb                sub    rbx, rcx
   8427a:       48 01 10                add    QWORD PTR [rax], rdx
   8427d:       e9 99 fe ff ff          jmp    0x8411b
   84282:       66 0f 1f 44 00 00       nop    WORD PTR [rax+rax*1+0x0]
   84288:       49 83 7f 48 00          cmp    QWORD PTR [r15+0x48], 0x0
   8428d:       0f 84 20 ff ff ff       je     0x841b3
   84293:       48 8b 78 40             mov    rdi, QWORD PTR [rax+0x40]
   84297:       e8 d4 40 fa ff          call   0x28370
   8429c:       49 8b 87 a0 00 00 00    mov    rax, QWORD PTR [r15+0xa0]
   842a3:       66 0f ef db             pxor   xmm3, xmm3
   842a7:       48 c7 40 50 00 00 00 00         mov    QWORD PTR [rax+0x50], 0x0
   842af:       0f 11 58 40             movups XMMWORD PTR [rax+0x40], xmm3
   842b3:       e9 fb fe ff ff          jmp    0x841b3
   842b8:       0f 1f 84 00 00 00 00 00         nop    DWORD PTR [rax+rax*1+0x0]
   842c0:       4c 8d 56 04             lea    r10, [rsi+0x4]
   842c4:       49 89 e9                mov    r9, rbp
   842c7:       89 c2                   mov    edx, eax
   842c9:       41 89 c3                mov    r11d, eax
   842cc:       4d 29 d1                sub    r9, r10
   842cf:       44 8d 40 ff             lea    r8d, [rax-0x1]
   842d3:       49 83 f9 08             cmp    r9, 0x8
   842d7:       0f 86 c3 00 00 00       jbe    0x843a0
   842dd:       41 83 f8 02             cmp    r8d, 0x2
   842e1:       0f 86 b9 00 00 00       jbe    0x843a0
   842e7:       f3 0f 6f 16             movdqu xmm2, XMMWORD PTR [rsi]
   842eb:       c1 ea 02                shr    edx, 0x2
   842ee:       0f 11 55 00             movups XMMWORD PTR [rbp+0x0], xmm2
   842f2:       83 fa 01                cmp    edx, 0x1
   842f5:       74 39                   je     0x84330
   842f7:       f3 0f 6f 66 10          movdqu xmm4, XMMWORD PTR [rsi+0x10]
   842fc:       0f 11 65 10             movups XMMWORD PTR [rbp+0x10], xmm4
   84300:       83 fa 02                cmp    edx, 0x2
   84303:       74 2b                   je     0x84330
   84305:       f3 0f 6f 6e 20          movdqu xmm5, XMMWORD PTR [rsi+0x20]
   8430a:       0f 11 6d 20             movups XMMWORD PTR [rbp+0x20], xmm5
   8430e:       83 fa 03                cmp    edx, 0x3
   84311:       74 1d                   je     0x84330
   84313:       f3 0f 6f 76 30          movdqu xmm6, XMMWORD PTR [rsi+0x30]
   84318:       0f 11 75 30             movups XMMWORD PTR [rbp+0x30], xmm6
   8431c:       83 fa 05                cmp    edx, 0x5
   8431f:       75 0f                   jne    0x84330
   84321:       f3 0f 6f 7e 40          movdqu xmm7, XMMWORD PTR [rsi+0x40]
   84326:       89 c0                   mov    eax, eax
   84328:       0f 11 7d 40             movups XMMWORD PTR [rbp+0x40], xmm7
   8432c:       eb 42                   jmp    0x84370
   8432e:       66 90                   xchg   ax, ax
   84330:       45 89 d9                mov    r9d, r11d
   84333:       41 83 e1 fc             and    r9d, 0xfffffffc
   84337:       44 89 ca                mov    edx, r9d
   8433a:       45 29 c8                sub    r8d, r9d
   8433d:       48 c1 e2 02             shl    rdx, 0x2
   84341:       4c 8d 54 15 00          lea    r10, [rbp+rdx*1+0x0]
   84346:       48 01 f2                add    rdx, rsi
   84349:       45 39 d9                cmp    r9d, r11d
   8434c:       74 6e                   je     0x843bc
   8434e:       44 8b 0a                mov    r9d, DWORD PTR [rdx]
   84351:       89 c0                   mov    eax, eax
   84353:       45 89 0a                mov    DWORD PTR [r10], r9d
   84356:       45 85 c0                test   r8d, r8d
   84359:       74 15                   je     0x84370
   8435b:       44 8b 4a 04             mov    r9d, DWORD PTR [rdx+0x4]
   8435f:       45 89 4a 04             mov    DWORD PTR [r10+0x4], r9d
   84363:       41 83 f8 01             cmp    r8d, 0x1
   84367:       74 07                   je     0x84370
   84369:       8b 52 08                mov    edx, DWORD PTR [rdx+0x8]
   8436c:       41 89 52 08             mov    DWORD PTR [r10+0x8], edx
   84370:       48 c1 e0 02             shl    rax, 0x2
   84374:       48 29 cb                sub    rbx, rcx
   84377:       48 01 c5                add    rbp, rax
   8437a:       48 01 f0                add    rax, rsi
   8437d:       48 89 07                mov    QWORD PTR [rdi], rax
   84380:       e9 96 fd ff ff          jmp    0x8411b
   84385:       0f 1f 00                nop    DWORD PTR [rax]
   84388:       48 89 44 24 08          mov    QWORD PTR [rsp+0x8], rax
   8438d:       e8 de 5b 00 00          call   0x89f70
   84392:       48 8b 44 24 08          mov    rax, QWORD PTR [rsp+0x8]
   84397:       e9 2d fe ff ff          jmp    0x841c9
   8439c:       0f 1f 40 00             nop    DWORD PTR [rax+0x0]
   843a0:       89 c0                   mov    eax, eax
   843a2:       31 d2                   xor    edx, edx
   843a4:       0f 1f 40 00             nop    DWORD PTR [rax+0x0]
   843a8:       44 8b 04 96             mov    r8d, DWORD PTR [rsi+rdx*4]
   843ac:       44 89 44 95 00          mov    DWORD PTR [rbp+rdx*4+0x0], r8d
   843b1:       48 83 c2 01             add    rdx, 0x1
   843b5:       48 39 d0                cmp    rax, rdx
   843b8:       75 ee                   jne    0x843a8
   843ba:       eb b4                   jmp    0x84370
   843bc:       89 c0                   mov    eax, eax
   843be:       eb b0                   jmp    0x84370
================
_IO_wdefault_pbackfail 0x83680
   83680:       f3 0f 1e fa             endbr64 
   83684:       41 57                   push   r15
   83686:       49 89 ff                mov    r15, rdi
   83689:       41 56                   push   r14
   8368b:       41 55                   push   r13
   8368d:       41 54                   push   r12
   8368f:       55                      push   rbp
   83690:       89 f5                   mov    ebp, esi
   83692:       53                      push   rbx
   83693:       48 83 ec 18             sub    rsp, 0x18
   83697:       48 8b 9f a0 00 00 00    mov    rbx, QWORD PTR [rdi+0xa0]
   8369e:       44 8b 2f                mov    r13d, DWORD PTR [rdi]
   836a1:       4c 8b 23                mov    r12, QWORD PTR [rbx]
   836a4:       4c 8b 73 10             mov    r14, QWORD PTR [rbx+0x10]
   836a8:       44 89 e8                mov    eax, r13d
   836ab:       25 00 01 00 00          and    eax, 0x100
   836b0:       4d 39 f4                cmp    r12, r14
   836b3:       76 2b                   jbe    0x836e0
   836b5:       85 c0                   test   eax, eax
   836b7:       0f 84 a3 00 00 00       je     0x83760
   836bd:       49 8d 44 24 fc          lea    rax, [r12-0x4]
   836c2:       48 89 03                mov    QWORD PTR [rbx], rax
   836c5:       89 e8                   mov    eax, ebp
   836c7:       41 89 6c 24 fc          mov    DWORD PTR [r12-0x4], ebp
   836cc:       48 83 c4 18             add    rsp, 0x18
   836d0:       5b                      pop    rbx
   836d1:       5d                      pop    rbp
   836d2:       41 5c                   pop    r12
   836d4:       41 5d                   pop    r13
   836d6:       41 5e                   pop    r14
   836d8:       41 5f                   pop    r15
   836da:       c3                      ret    
   836db:       0f 1f 44 00 00          nop    DWORD PTR [rax+rax*1+0x0]
   836e0:       85 c0                   test   eax, eax
   836e2:       0f 84 c0 00 00 00       je     0x837a8
   836e8:       4c 8b 63 08             mov    r12, QWORD PTR [rbx+0x8]
   836ec:       4d 29 f4                sub    r12, r14
   836ef:       4c 89 e3                mov    rbx, r12
   836f2:       48 c1 fb 02             sar    rbx, 0x2
   836f6:       4c 8d 2c dd 00 00 00 00         lea    r13, [rbx*8+0x0]
   836fe:       4c 89 ef                mov    rdi, r13
   83701:       e8 7a 4c fa ff          call   0x28380
   83706:       48 85 c0                test   rax, rax
   83709:       0f 84 21 01 00 00       je     0x83830
   8370f:       49 01 c4                add    r12, rax
   83712:       48 89 da                mov    rdx, rbx
   83715:       4c 89 f6                mov    rsi, r14
   83718:       48 89 44 24 08          mov    QWORD PTR [rsp+0x8], rax
   8371d:       4c 89 e7                mov    rdi, r12
   83720:       e8 3b 24 04 00          call   0xc5b60
   83725:       49 8b 87 a0 00 00 00    mov    rax, QWORD PTR [r15+0xa0]
   8372c:       48 8b 78 10             mov    rdi, QWORD PTR [rax+0x10]
   83730:       e8 3b 4c fa ff          call   0x28370
   83735:       49 8b 9f a0 00 00 00    mov    rbx, QWORD PTR [r15+0xa0]
   8373c:       48 8b 4c 24 08          mov    rcx, QWORD PTR [rsp+0x8]
   83741:       48 89 4b 10             mov    QWORD PTR [rbx+0x10], rcx
   83745:       4c 01 e9                add    rcx, r13
   83748:       4c 89 23                mov    QWORD PTR [rbx], r12
   8374b:       48 89 4b 08             mov    QWORD PTR [rbx+0x8], rcx
   8374f:       4c 89 63 48             mov    QWORD PTR [rbx+0x48], r12
   83753:       e9 65 ff ff ff          jmp    0x836bd
   83758:       0f 1f 84 00 00 00 00 00         nop    DWORD PTR [rax+rax*1+0x0]
   83760:       48 8b 47 08             mov    rax, QWORD PTR [rdi+0x8]
   83764:       0f be 50 ff             movsx  edx, BYTE PTR [rax-0x1]
   83768:       39 f2                   cmp    edx, esi
   8376a:       0f 84 b0 00 00 00       je     0x83820
   83770:       48 83 7b 40 00          cmp    QWORD PTR [rbx+0x40], 0x0
   83775:       74 71                   je     0x837e8
   83777:       4c 89 e6                mov    rsi, r12
   8377a:       4c 89 ff                mov    rdi, r15
   8377d:       e8 7e fb ff ff          call   0x83300
   83782:       85 c0                   test   eax, eax
   83784:       0f 85 a6 00 00 00       jne    0x83830
   8378a:       49 8b 9f a0 00 00 00    mov    rbx, QWORD PTR [r15+0xa0]
   83791:       45 8b 2f                mov    r13d, DWORD PTR [r15]
   83794:       48 8b 0b                mov    rcx, QWORD PTR [rbx]
   83797:       4c 8b 63 50             mov    r12, QWORD PTR [rbx+0x50]
   8379b:       48 8b 43 40             mov    rax, QWORD PTR [rbx+0x40]
   8379f:       eb 17                   jmp    0x837b8
   837a1:       0f 1f 80 00 00 00 00    nop    DWORD PTR [rax+0x0]
   837a8:       48 8b 43 40             mov    rax, QWORD PTR [rbx+0x40]
   837ac:       48 85 c0                test   rax, rax
   837af:       74 37                   je     0x837e8
   837b1:       4c 89 e1                mov    rcx, r12
   837b4:       4c 8b 63 50             mov    r12, QWORD PTR [rbx+0x50]
   837b8:       48 8b 53 08             mov    rdx, QWORD PTR [rbx+0x8]
   837bc:       66 49 0f 6e c4          movq   xmm0, r12
   837c1:       41 81 cd 00 01 00 00    or     r13d, 0x100
   837c8:       66 0f 6c c0             punpcklqdq xmm0, xmm0
   837cc:       45 89 2f                mov    DWORD PTR [r15], r13d
   837cf:       48 89 53 50             mov    QWORD PTR [rbx+0x50], rdx
   837d3:       48 89 43 10             mov    QWORD PTR [rbx+0x10], rax
   837d7:       48 89 4b 40             mov    QWORD PTR [rbx+0x40], rcx
   837db:       0f 11 03                movups XMMWORD PTR [rbx], xmm0
   837de:       e9 da fe ff ff          jmp    0x836bd
   837e3:       0f 1f 44 00 00          nop    DWORD PTR [rax+rax*1+0x0]
   837e8:       bf 00 02 00 00          mov    edi, 0x200
   837ed:       e8 8e 4b fa ff          call   0x28380
   837f2:       48 85 c0                test   rax, rax
   837f5:       74 39                   je     0x83830
   837f7:       48 8d 90 00 02 00 00    lea    rdx, [rax+0x200]
   837fe:       66 48 0f 6e c0          movq   xmm0, rax
   83803:       4c 89 e1                mov    rcx, r12
   83806:       66 48 0f 6e ca          movq   xmm1, rdx
   8380b:       48 89 53 50             mov    QWORD PTR [rbx+0x50], rdx
   8380f:       49 89 d4                mov    r12, rdx
   83812:       66 0f 6c c1             punpcklqdq xmm0, xmm1
   83816:       0f 11 43 40             movups XMMWORD PTR [rbx+0x40], xmm0
   8381a:       eb 9c                   jmp    0x837b8
   8381c:       0f 1f 40 00             nop    DWORD PTR [rax+0x0]
   83820:       48 83 e8 01             sub    rax, 0x1
   83824:       48 89 47 08             mov    QWORD PTR [rdi+0x8], rax
   83828:       89 d0                   mov    eax, edx
   8382a:       e9 9d fe ff ff          jmp    0x836cc
   8382f:       90                      nop
   83830:       b8 ff ff ff ff          mov    eax, 0xffffffff
   83835:       e9 92 fe ff ff          jmp    0x836cc
================
_IO_wdefault_pbackfail 0x83680
   83680:       f3 0f 1e fa             endbr64 
   83684:       41 57                   push   r15
   83686:       49 89 ff                mov    r15, rdi
   83689:       41 56                   push   r14
   8368b:       41 55                   push   r13
   8368d:       41 54                   push   r12
   8368f:       55                      push   rbp
   83690:       89 f5                   mov    ebp, esi
   83692:       53                      push   rbx
   83693:       48 83 ec 18             sub    rsp, 0x18
   83697:       48 8b 9f a0 00 00 00    mov    rbx, QWORD PTR [rdi+0xa0]
   8369e:       44 8b 2f                mov    r13d, DWORD PTR [rdi]
   836a1:       4c 8b 23                mov    r12, QWORD PTR [rbx]
   836a4:       4c 8b 73 10             mov    r14, QWORD PTR [rbx+0x10]
   836a8:       44 89 e8                mov    eax, r13d
   836ab:       25 00 01 00 00          and    eax, 0x100
   836b0:       4d 39 f4                cmp    r12, r14
   836b3:       76 2b                   jbe    0x836e0
   836b5:       85 c0                   test   eax, eax
   836b7:       0f 84 a3 00 00 00       je     0x83760
   836bd:       49 8d 44 24 fc          lea    rax, [r12-0x4]
   836c2:       48 89 03                mov    QWORD PTR [rbx], rax
   836c5:       89 e8                   mov    eax, ebp
   836c7:       41 89 6c 24 fc          mov    DWORD PTR [r12-0x4], ebp
   836cc:       48 83 c4 18             add    rsp, 0x18
   836d0:       5b                      pop    rbx
   836d1:       5d                      pop    rbp
   836d2:       41 5c                   pop    r12
   836d4:       41 5d                   pop    r13
   836d6:       41 5e                   pop    r14
   836d8:       41 5f                   pop    r15
   836da:       c3                      ret    
   836db:       0f 1f 44 00 00          nop    DWORD PTR [rax+rax*1+0x0]
   836e0:       85 c0                   test   eax, eax
   836e2:       0f 84 c0 00 00 00       je     0x837a8
   836e8:       4c 8b 63 08             mov    r12, QWORD PTR [rbx+0x8]
   836ec:       4d 29 f4                sub    r12, r14
   836ef:       4c 89 e3                mov    rbx, r12
   836f2:       48 c1 fb 02             sar    rbx, 0x2
   836f6:       4c 8d 2c dd 00 00 00 00         lea    r13, [rbx*8+0x0]
   836fe:       4c 89 ef                mov    rdi, r13
   83701:       e8 7a 4c fa ff          call   0x28380
   83706:       48 85 c0                test   rax, rax
   83709:       0f 84 21 01 00 00       je     0x83830
   8370f:       49 01 c4                add    r12, rax
   83712:       48 89 da                mov    rdx, rbx
   83715:       4c 89 f6                mov    rsi, r14
   83718:       48 89 44 24 08          mov    QWORD PTR [rsp+0x8], rax
   8371d:       4c 89 e7                mov    rdi, r12
   83720:       e8 3b 24 04 00          call   0xc5b60
   83725:       49 8b 87 a0 00 00 00    mov    rax, QWORD PTR [r15+0xa0]
   8372c:       48 8b 78 10             mov    rdi, QWORD PTR [rax+0x10]
   83730:       e8 3b 4c fa ff          call   0x28370
   83735:       49 8b 9f a0 00 00 00    mov    rbx, QWORD PTR [r15+0xa0]
   8373c:       48 8b 4c 24 08          mov    rcx, QWORD PTR [rsp+0x8]
   83741:       48 89 4b 10             mov    QWORD PTR [rbx+0x10], rcx
   83745:       4c 01 e9                add    rcx, r13
   83748:       4c 89 23                mov    QWORD PTR [rbx], r12
   8374b:       48 89 4b 08             mov    QWORD PTR [rbx+0x8], rcx
   8374f:       4c 89 63 48             mov    QWORD PTR [rbx+0x48], r12
   83753:       e9 65 ff ff ff          jmp    0x836bd
   83758:       0f 1f 84 00 00 00 00 00         nop    DWORD PTR [rax+rax*1+0x0]
   83760:       48 8b 47 08             mov    rax, QWORD PTR [rdi+0x8]
   83764:       0f be 50 ff             movsx  edx, BYTE PTR [rax-0x1]
   83768:       39 f2                   cmp    edx, esi
   8376a:       0f 84 b0 00 00 00       je     0x83820
   83770:       48 83 7b 40 00          cmp    QWORD PTR [rbx+0x40], 0x0
   83775:       74 71                   je     0x837e8
   83777:       4c 89 e6                mov    rsi, r12
   8377a:       4c 89 ff                mov    rdi, r15
   8377d:       e8 7e fb ff ff          call   0x83300
   83782:       85 c0                   test   eax, eax
   83784:       0f 85 a6 00 00 00       jne    0x83830
   8378a:       49 8b 9f a0 00 00 00    mov    rbx, QWORD PTR [r15+0xa0]
   83791:       45 8b 2f                mov    r13d, DWORD PTR [r15]
   83794:       48 8b 0b                mov    rcx, QWORD PTR [rbx]
   83797:       4c 8b 63 50             mov    r12, QWORD PTR [rbx+0x50]
   8379b:       48 8b 43 40             mov    rax, QWORD PTR [rbx+0x40]
   8379f:       eb 17                   jmp    0x837b8
   837a1:       0f 1f 80 00 00 00 00    nop    DWORD PTR [rax+0x0]
   837a8:       48 8b 43 40             mov    rax, QWORD PTR [rbx+0x40]
   837ac:       48 85 c0                test   rax, rax
   837af:       74 37                   je     0x837e8
   837b1:       4c 89 e1                mov    rcx, r12
   837b4:       4c 8b 63 50             mov    r12, QWORD PTR [rbx+0x50]
   837b8:       48 8b 53 08             mov    rdx, QWORD PTR [rbx+0x8]
   837bc:       66 49 0f 6e c4          movq   xmm0, r12
   837c1:       41 81 cd 00 01 00 00    or     r13d, 0x100
   837c8:       66 0f 6c c0             punpcklqdq xmm0, xmm0
   837cc:       45 89 2f                mov    DWORD PTR [r15], r13d
   837cf:       48 89 53 50             mov    QWORD PTR [rbx+0x50], rdx
   837d3:       48 89 43 10             mov    QWORD PTR [rbx+0x10], rax
   837d7:       48 89 4b 40             mov    QWORD PTR [rbx+0x40], rcx
   837db:       0f 11 03                movups XMMWORD PTR [rbx], xmm0
   837de:       e9 da fe ff ff          jmp    0x836bd
   837e3:       0f 1f 44 00 00          nop    DWORD PTR [rax+rax*1+0x0]
   837e8:       bf 00 02 00 00          mov    edi, 0x200
   837ed:       e8 8e 4b fa ff          call   0x28380
   837f2:       48 85 c0                test   rax, rax
   837f5:       74 39                   je     0x83830
   837f7:       48 8d 90 00 02 00 00    lea    rdx, [rax+0x200]
   837fe:       66 48 0f 6e c0          movq   xmm0, rax
   83803:       4c 89 e1                mov    rcx, r12
   83806:       66 48 0f 6e ca          movq   xmm1, rdx
   8380b:       48 89 53 50             mov    QWORD PTR [rbx+0x50], rdx
   8380f:       49 89 d4                mov    r12, rdx
   83812:       66 0f 6c c1             punpcklqdq xmm0, xmm1
   83816:       0f 11 43 40             movups XMMWORD PTR [rbx+0x40], xmm0
   8381a:       eb 9c                   jmp    0x837b8
   8381c:       0f 1f 40 00             nop    DWORD PTR [rax+0x0]
   83820:       48 83 e8 01             sub    rax, 0x1
   83824:       48 89 47 08             mov    QWORD PTR [rdi+0x8], rax
   83828:       89 d0                   mov    eax, edx
   8382a:       e9 9d fe ff ff          jmp    0x836cc
   8382f:       90                      nop
   83830:       b8 ff ff ff ff          mov    eax, 0xffffffff
   83835:       e9 92 fe ff ff          jmp    0x836cc
================
_IO_file_xsgetn_maybe_mmap 0x8a760
   8a760:       f3 0f 1e fa             endbr64 
   8a764:       41 57                   push   r15
   8a766:       41 56                   push   r14
   8a768:       49 89 d6                mov    r14, rdx
   8a76b:       41 55                   push   r13
   8a76d:       49 89 f5                mov    r13, rsi
   8a770:       41 54                   push   r12
   8a772:       4c 8d 25 87 b2 18 00    lea    r12, [rip+0x18b287]        # 0x215a00
   8a779:       55                      push   rbp
   8a77a:       48 89 fd                mov    rbp, rdi
   8a77d:       53                      push   rbx
   8a77e:       48 8d 1d e3 bf 18 00    lea    rbx, [rip+0x18bfe3]        # 0x216768
   8a785:       4c 29 e3                sub    rbx, r12
   8a788:       48 81 ec a8 00 00 00    sub    rsp, 0xa8
   8a78f:       4c 8b bf d8 00 00 00    mov    r15, QWORD PTR [rdi+0xd8]
   8a796:       64 48 8b 04 25 28 00 00 00      mov    rax, QWORD PTR fs:0x28
   8a79f:       48 89 84 24 98 00 00 00         mov    QWORD PTR [rsp+0x98], rax
   8a7a7:       31 c0                   xor    eax, eax
   8a7a9:       4c 89 f8                mov    rax, r15
   8a7ac:       4c 29 e0                sub    rax, r12
   8a7af:       48 39 c3                cmp    rbx, rax
   8a7b2:       0f 86 30 01 00 00       jbe    0x8a8e8
   8a7b8:       48 89 e6                mov    rsi, rsp
   8a7bb:       48 89 ef                mov    rdi, rbp
   8a7be:       41 ff 97 90 00 00 00    call   QWORD PTR [r15+0x90]
   8a7c5:       85 c0                   test   eax, eax
   8a7c7:       75 10                   jne    0x8a7d9
   8a7c9:       8b 44 24 18             mov    eax, DWORD PTR [rsp+0x18]
   8a7cd:       25 00 f0 00 00          and    eax, 0xf000
   8a7d2:       3d 00 80 00 00          cmp    eax, 0x8000
   8a7d7:       74 7f                   je     0x8a858
   8a7d9:       48 8d 05 20 be 18 00    lea    rax, [rip+0x18be20]        # 0x216600
   8a7e0:       48 8d 15 d9 b8 18 00    lea    rdx, [rip+0x18b8d9]        # 0x2160c0
   8a7e7:       8b 8d c0 00 00 00       mov    ecx, DWORD PTR [rbp+0xc0]
   8a7ed:       85 c9                   test   ecx, ecx
   8a7ef:       48 0f 4f c2             cmovg  rax, rdx
   8a7f3:       48 89 85 d8 00 00 00    mov    QWORD PTR [rbp+0xd8], rax
   8a7fa:       48 8b 85 a0 00 00 00    mov    rax, QWORD PTR [rbp+0xa0]
   8a801:       48 89 90 e0 00 00 00    mov    QWORD PTR [rax+0xe0], rdx
   8a808:       4c 8b bd d8 00 00 00    mov    r15, QWORD PTR [rbp+0xd8]
   8a80f:       4c 89 f8                mov    rax, r15
   8a812:       4c 29 e0                sub    rax, r12
   8a815:       48 39 d8                cmp    rax, rbx
   8a818:       0f 83 ba 00 00 00       jae    0x8a8d8
   8a81e:       48 8b 84 24 98 00 00 00         mov    rax, QWORD PTR [rsp+0x98]
   8a826:       64 48 2b 04 25 28 00 00 00      sub    rax, QWORD PTR fs:0x28
   8a82f:       0f 85 19 01 00 00       jne    0x8a94e
   8a835:       49 8b 47 40             mov    rax, QWORD PTR [r15+0x40]
   8a839:       4c 89 f2                mov    rdx, r14
   8a83c:       4c 89 ee                mov    rsi, r13
   8a83f:       48 89 ef                mov    rdi, rbp
   8a842:       48 81 c4 a8 00 00 00    add    rsp, 0xa8
   8a849:       5b                      pop    rbx
   8a84a:       5d                      pop    rbp
   8a84b:       41 5c                   pop    r12
   8a84d:       41 5d                   pop    r13
   8a84f:       41 5e                   pop    r14
   8a851:       41 5f                   pop    r15
   8a853:       ff e0                   jmp    rax
   8a855:       0f 1f 00                nop    DWORD PTR [rax]
   8a858:       48 8b 74 24 30          mov    rsi, QWORD PTR [rsp+0x30]
   8a85d:       48 85 f6                test   rsi, rsi
   8a860:       0f 84 73 ff ff ff       je     0x8a7d9
   8a866:       48 8b 85 90 00 00 00    mov    rax, QWORD PTR [rbp+0x90]
   8a86d:       48 39 c6                cmp    rsi, rax
   8a870:       7d 0a                   jge    0x8a87c
   8a872:       48 83 f8 ff             cmp    rax, 0xffffffffffffffff
   8a876:       0f 85 5d ff ff ff       jne    0x8a7d9
   8a87c:       44 8b 45 70             mov    r8d, DWORD PTR [rbp+0x70]
   8a880:       45 31 c9                xor    r9d, r9d
   8a883:       b9 01 00 00 00          mov    ecx, 0x1
   8a888:       31 ff                   xor    edi, edi
   8a88a:       ba 01 00 00 00          mov    edx, 0x1
   8a88f:       e8 2c 43 09 00          call   0x11ebc0
   8a894:       49 89 c7                mov    r15, rax
   8a897:       48 83 f8 ff             cmp    rax, 0xffffffffffffffff
   8a89b:       0f 84 38 ff ff ff       je     0x8a7d9
   8a8a1:       48 8b 74 24 30          mov    rsi, QWORD PTR [rsp+0x30]
   8a8a6:       8b 7d 70                mov    edi, DWORD PTR [rbp+0x70]
   8a8a9:       31 d2                   xor    edx, edx
   8a8ab:       e8 10 a2 08 00          call   0x114ac0
   8a8b0:       48 8b 74 24 30          mov    rsi, QWORD PTR [rsp+0x30]
   8a8b5:       48 39 f0                cmp    rax, rsi
   8a8b8:       74 38                   je     0x8a8f2
   8a8ba:       4c 89 ff                mov    rdi, r15
   8a8bd:       e8 5e 43 09 00          call   0x11ec20
   8a8c2:       48 c7 85 90 00 00 00 ff ff ff ff        mov    QWORD PTR [rbp+0x90], 0xffffffffffffffff
   8a8cd:       e9 07 ff ff ff          jmp    0x8a7d9
   8a8d2:       66 0f 1f 44 00 00       nop    WORD PTR [rax+rax*1+0x0]
   8a8d8:       e8 93 f6 ff ff          call   0x89f70
   8a8dd:       e9 3c ff ff ff          jmp    0x8a81e
   8a8e2:       66 0f 1f 44 00 00       nop    WORD PTR [rax+rax*1+0x0]
   8a8e8:       e8 83 f6 ff ff          call   0x89f70
   8a8ed:       e9 c6 fe ff ff          jmp    0x8a7b8
   8a8f2:       49 8d 14 07             lea    rdx, [r15+rax*1]
   8a8f6:       31 c9                   xor    ecx, ecx
   8a8f8:       4c 89 fe                mov    rsi, r15
   8a8fb:       48 89 ef                mov    rdi, rbp
   8a8fe:       e8 9d 33 00 00          call   0x8dca0
   8a903:       48 8b 95 90 00 00 00    mov    rdx, QWORD PTR [rbp+0x90]
   8a90a:       4c 89 7d 18             mov    QWORD PTR [rbp+0x18], r15
   8a90e:       49 8d 04 17             lea    rax, [r15+rdx*1]
   8a912:       48 83 fa ff             cmp    rdx, 0xffffffffffffffff
   8a916:       48 8d 15 e3 b6 18 00    lea    rdx, [rip+0x18b6e3]        # 0x216000
   8a91d:       49 0f 44 c7             cmove  rax, r15
   8a921:       66 48 0f 6e c0          movq   xmm0, rax
   8a926:       48 8b 44 24 30          mov    rax, QWORD PTR [rsp+0x30]
   8a92b:       49 01 c7                add    r15, rax
   8a92e:       48 89 85 90 00 00 00    mov    QWORD PTR [rbp+0x90], rax
   8a935:       48 8d 05 04 bc 18 00    lea    rax, [rip+0x18bc04]        # 0x216540
   8a93c:       66 49 0f 6e cf          movq   xmm1, r15
   8a941:       66 0f 6c c1             punpcklqdq xmm0, xmm1
   8a945:       0f 11 45 08             movups XMMWORD PTR [rbp+0x8], xmm0
   8a949:       e9 99 fe ff ff          jmp    0x8a7e7
   8a94e:       e8 cd bd 0a 00          call   0x136720
================
_IO_strn_overflow 0x883f0
   883f0:       f3 0f 1e fa             endbr64 
   883f4:       41 54                   push   r12
   883f6:       41 89 f4                mov    r12d, esi
   883f9:       48 8d b7 f0 00 00 00    lea    rsi, [rdi+0xf0]
   88400:       53                      push   rbx
   88401:       66 48 0f 6e c6          movq   xmm0, rsi
   88406:       48 89 fb                mov    rbx, rdi
   88409:       66 0f 6c c0             punpcklqdq xmm0, xmm0
   8840d:       48 83 ec 28             sub    rsp, 0x28
   88411:       48 39 77 38             cmp    QWORD PTR [rdi+0x38], rsi
   88415:       74 3f                   je     0x88456
   88417:       48 8b 47 28             mov    rax, QWORD PTR [rdi+0x28]
   8841b:       66 48 0f 6e ce          movq   xmm1, rsi
   88420:       31 c9                   xor    ecx, ecx
   88422:       0f 29 44 24 10          movaps XMMWORD PTR [rsp+0x10], xmm0
   88427:       48 8d 97 30 01 00 00    lea    rdx, [rdi+0x130]
   8842e:       c6 00 00                mov    BYTE PTR [rax], 0x0
   88431:       66 48 0f 6e d2          movq   xmm2, rdx
   88436:       66 0f 6c ca             punpcklqdq xmm1, xmm2
   8843a:       0f 29 0c 24             movaps XMMWORD PTR [rsp], xmm1
   8843e:       e8 5d 58 00 00          call   0x8dca0
   88443:       66 0f 6f 0c 24          movdqa xmm1, XMMWORD PTR [rsp]
   88448:       66 0f 6f 44 24 10       movdqa xmm0, XMMWORD PTR [rsp+0x10]
   8844e:       0f 11 4b 08             movups XMMWORD PTR [rbx+0x8], xmm1
   88452:       0f 11 43 18             movups XMMWORD PTR [rbx+0x18], xmm0
   88456:       0f 11 43 28             movups XMMWORD PTR [rbx+0x28], xmm0
   8845a:       48 83 c4 28             add    rsp, 0x28
   8845e:       44 89 e0                mov    eax, r12d
   88461:       5b                      pop    rbx
   88462:       41 5c                   pop    r12
   88464:       c3                      ret
================
_IO_obstack_xsputn 0x88590
   88590:       f3 0f 1e fa             endbr64 
   88594:       41 56                   push   r14
   88596:       49 89 f6                mov    r14, rsi
   88599:       41 55                   push   r13
   8859b:       41 54                   push   r12
   8859d:       49 89 d4                mov    r12, rdx
   885a0:       55                      push   rbp
   885a1:       53                      push   rbx
   885a2:       48 89 fb                mov    rbx, rdi
   885a5:       4c 8b af e0 00 00 00    mov    r13, QWORD PTR [rdi+0xe0]
   885ac:       48 8b 7f 28             mov    rdi, QWORD PTR [rdi+0x28]
   885b0:       48 8b 43 30             mov    rax, QWORD PTR [rbx+0x30]
   885b4:       48 01 fa                add    rdx, rdi
   885b7:       48 39 d0                cmp    rax, rdx
   885ba:       73 74                   jae    0x88630
   885bc:       48 29 c7                sub    rdi, rax
   885bf:       49 63 ec                movsxd rbp, r12d
   885c2:       49 03 7d 18             add    rdi, QWORD PTR [r13+0x18]
   885c6:       44 89 e6                mov    esi, r12d
   885c9:       49 89 7d 18             mov    QWORD PTR [r13+0x18], rdi
   885cd:       48 8d 04 2f             lea    rax, [rdi+rbp*1]
   885d1:       49 39 45 20             cmp    QWORD PTR [r13+0x20], rax
   885d5:       72 49                   jb     0x88620
   885d7:       48 89 ea                mov    rdx, rbp
   885da:       4c 89 f6                mov    rsi, r14
   885dd:       e8 3e 00 fa ff          call   0x28620
   885e2:       49 03 6d 18             add    rbp, QWORD PTR [r13+0x18]
   885e6:       f3 41 0f 7e 45 10       movq   xmm0, QWORD PTR [r13+0x10]
   885ec:       66 48 0f 6e cd          movq   xmm1, rbp
   885f1:       66 0f 6c c1             punpcklqdq xmm0, xmm1
   885f5:       0f 11 43 20             movups XMMWORD PTR [rbx+0x20], xmm0
   885f9:       49 8b 45 20             mov    rax, QWORD PTR [r13+0x20]
   885fd:       48 29 e8                sub    rax, rbp
   88600:       48 98                   cdqe   
   88602:       48 01 c5                add    rbp, rax
   88605:       4c 89 e0                mov    rax, r12
   88608:       48 89 6b 30             mov    QWORD PTR [rbx+0x30], rbp
   8860c:       49 89 6d 18             mov    QWORD PTR [r13+0x18], rbp
   88610:       5b                      pop    rbx
   88611:       5d                      pop    rbp
   88612:       41 5c                   pop    r12
   88614:       41 5d                   pop    r13
   88616:       41 5e                   pop    r14
   88618:       c3                      ret    
   88619:       0f 1f 80 00 00 00 00    nop    DWORD PTR [rax+0x0]
   88620:       4c 89 ef                mov    rdi, r13
   88623:       e8 d8 f0 01 00          call   0xa7700
   88628:       49 8b 7d 18             mov    rdi, QWORD PTR [r13+0x18]
   8862c:       eb a9                   jmp    0x885d7
   8862e:       66 90                   xchg   ax, ax
   88630:       4c 89 e2                mov    rdx, r12
   88633:       e8 a8 fd f9 ff          call   0x283e0
   88638:       48 89 43 28             mov    QWORD PTR [rbx+0x28], rax
   8863c:       5b                      pop    rbx
   8863d:       4c 89 e0                mov    rax, r12
   88640:       5d                      pop    rbp
   88641:       41 5c                   pop    r12
   88643:       41 5d                   pop    r13
   88645:       41 5e                   pop    r14
   88647:       c3                      ret
================
_IO_default_pbackfail 0x8f300
   8f300:       f3 0f 1e fa             endbr64 
   8f304:       41 57                   push   r15
   8f306:       41 56                   push   r14
   8f308:       41 55                   push   r13
   8f30a:       41 54                   push   r12
   8f30c:       55                      push   rbp
   8f30d:       89 f5                   mov    ebp, esi
   8f30f:       53                      push   rbx
   8f310:       48 89 fb                mov    rbx, rdi
   8f313:       48 83 ec 18             sub    rsp, 0x18
   8f317:       8b 07                   mov    eax, DWORD PTR [rdi]
   8f319:       4c 8b 67 08             mov    r12, QWORD PTR [rdi+0x8]
   8f31d:       4c 8b 6f 18             mov    r13, QWORD PTR [rdi+0x18]
   8f321:       25 00 01 00 00          and    eax, 0x100
   8f326:       4d 39 ec                cmp    r12, r13
   8f329:       76 2d                   jbe    0x8f358
   8f32b:       85 c0                   test   eax, eax
   8f32d:       0f 84 8d 00 00 00       je     0x8f3c0
   8f333:       49 8d 44 24 ff          lea    rax, [r12-0x1]
   8f338:       48 89 43 08             mov    QWORD PTR [rbx+0x8], rax
   8f33c:       41 88 6c 24 ff          mov    BYTE PTR [r12-0x1], bpl
   8f341:       40 0f b6 c5             movzx  eax, bpl
   8f345:       48 83 c4 18             add    rsp, 0x18
   8f349:       5b                      pop    rbx
   8f34a:       5d                      pop    rbp
   8f34b:       41 5c                   pop    r12
   8f34d:       41 5d                   pop    r13
   8f34f:       41 5e                   pop    r14
   8f351:       41 5f                   pop    r15
   8f353:       c3                      ret    
   8f354:       0f 1f 40 00             nop    DWORD PTR [rax+0x0]
   8f358:       85 c0                   test   eax, eax
   8f35a:       0f 84 90 00 00 00       je     0x8f3f0
   8f360:       4c 8b 7b 10             mov    r15, QWORD PTR [rbx+0x10]
   8f364:       4d 29 ef                sub    r15, r13
   8f367:       4b 8d 0c 3f             lea    rcx, [r15+r15*1]
   8f36b:       48 89 cf                mov    rdi, rcx
   8f36e:       48 89 4c 24 08          mov    QWORD PTR [rsp+0x8], rcx
   8f373:       e8 08 90 f9 ff          call   0x28380
   8f378:       49 89 c6                mov    r14, rax
   8f37b:       48 85 c0                test   rax, rax
   8f37e:       0f 84 c9 00 00 00       je     0x8f44d
   8f384:       4c 8b 64 24 08          mov    r12, QWORD PTR [rsp+0x8]
   8f389:       4c 89 fa                mov    rdx, r15
   8f38c:       4c 89 ee                mov    rsi, r13
   8f38f:       4d 29 fc                sub    r12, r15
   8f392:       49 01 c4                add    r12, rax
   8f395:       4c 89 e7                mov    rdi, r12
   8f398:       e8 83 92 f9 ff          call   0x28620
   8f39d:       4c 89 ef                mov    rdi, r13
   8f3a0:       e8 cb 8f f9 ff          call   0x28370
   8f3a5:       48 8b 4c 24 08          mov    rcx, QWORD PTR [rsp+0x8]
   8f3aa:       4c 89 73 18             mov    QWORD PTR [rbx+0x18], r14
   8f3ae:       4c 89 63 50             mov    QWORD PTR [rbx+0x50], r12
   8f3b2:       49 01 ce                add    r14, rcx
   8f3b5:       4c 89 73 10             mov    QWORD PTR [rbx+0x10], r14
   8f3b9:       e9 75 ff ff ff          jmp    0x8f333
   8f3be:       66 90                   xchg   ax, ax
   8f3c0:       41 0f b6 44 24 ff       movzx  eax, BYTE PTR [r12-0x1]
   8f3c6:       39 f0                   cmp    eax, esi
   8f3c8:       74 76                   je     0x8f440
   8f3ca:       48 83 7f 48 00          cmp    QWORD PTR [rdi+0x48], 0x0
   8f3cf:       74 3f                   je     0x8f410
   8f3d1:       4c 89 e6                mov    rsi, r12
   8f3d4:       48 89 df                mov    rdi, rbx
   8f3d7:       e8 a4 e1 ff ff          call   0x8d580
   8f3dc:       85 c0                   test   eax, eax
   8f3de:       75 6d                   jne    0x8f44d
   8f3e0:       4c 8b 63 08             mov    r12, QWORD PTR [rbx+0x8]
   8f3e4:       eb 11                   jmp    0x8f3f7
   8f3e6:       66 2e 0f 1f 84 00 00 00 00 00   cs nop WORD PTR [rax+rax*1+0x0]
   8f3f0:       48 83 7b 48 00          cmp    QWORD PTR [rbx+0x48], 0x0
   8f3f5:       74 19                   je     0x8f410
   8f3f7:       4c 89 63 18             mov    QWORD PTR [rbx+0x18], r12
   8f3fb:       48 89 df                mov    rdi, rbx
   8f3fe:       e8 6d e3 ff ff          call   0x8d770
   8f403:       4c 8b 63 08             mov    r12, QWORD PTR [rbx+0x8]
   8f407:       e9 27 ff ff ff          jmp    0x8f333
   8f40c:       0f 1f 40 00             nop    DWORD PTR [rax+0x0]
   8f410:       bf 80 00 00 00          mov    edi, 0x80
   8f415:       e8 66 8f f9 ff          call   0x28380
   8f41a:       48 85 c0                test   rax, rax
   8f41d:       74 2e                   je     0x8f44d
   8f41f:       48 8d 90 80 00 00 00    lea    rdx, [rax+0x80]
   8f426:       66 48 0f 6e c0          movq   xmm0, rax
   8f42b:       66 48 0f 6e ca          movq   xmm1, rdx
   8f430:       48 89 53 58             mov    QWORD PTR [rbx+0x58], rdx
   8f434:       66 0f 6c c1             punpcklqdq xmm0, xmm1
   8f438:       0f 11 43 48             movups XMMWORD PTR [rbx+0x48], xmm0
   8f43c:       eb b9                   jmp    0x8f3f7
   8f43e:       66 90                   xchg   ax, ax
   8f440:       49 83 ec 01             sub    r12, 0x1
   8f444:       4c 89 67 08             mov    QWORD PTR [rdi+0x8], r12
   8f448:       e9 f4 fe ff ff          jmp    0x8f341
   8f44d:       b8 ff ff ff ff          mov    eax, 0xffffffff
   8f452:       e9 ee fe ff ff          jmp    0x8f345
================
_IO_default_pbackfail 0x8f300
   8f300:       f3 0f 1e fa             endbr64 
   8f304:       41 57                   push   r15
   8f306:       41 56                   push   r14
   8f308:       41 55                   push   r13
   8f30a:       41 54                   push   r12
   8f30c:       55                      push   rbp
   8f30d:       89 f5                   mov    ebp, esi
   8f30f:       53                      push   rbx
   8f310:       48 89 fb                mov    rbx, rdi
   8f313:       48 83 ec 18             sub    rsp, 0x18
   8f317:       8b 07                   mov    eax, DWORD PTR [rdi]
   8f319:       4c 8b 67 08             mov    r12, QWORD PTR [rdi+0x8]
   8f31d:       4c 8b 6f 18             mov    r13, QWORD PTR [rdi+0x18]
   8f321:       25 00 01 00 00          and    eax, 0x100
   8f326:       4d 39 ec                cmp    r12, r13
   8f329:       76 2d                   jbe    0x8f358
   8f32b:       85 c0                   test   eax, eax
   8f32d:       0f 84 8d 00 00 00       je     0x8f3c0
   8f333:       49 8d 44 24 ff          lea    rax, [r12-0x1]
   8f338:       48 89 43 08             mov    QWORD PTR [rbx+0x8], rax
   8f33c:       41 88 6c 24 ff          mov    BYTE PTR [r12-0x1], bpl
   8f341:       40 0f b6 c5             movzx  eax, bpl
   8f345:       48 83 c4 18             add    rsp, 0x18
   8f349:       5b                      pop    rbx
   8f34a:       5d                      pop    rbp
   8f34b:       41 5c                   pop    r12
   8f34d:       41 5d                   pop    r13
   8f34f:       41 5e                   pop    r14
   8f351:       41 5f                   pop    r15
   8f353:       c3                      ret    
   8f354:       0f 1f 40 00             nop    DWORD PTR [rax+0x0]
   8f358:       85 c0                   test   eax, eax
   8f35a:       0f 84 90 00 00 00       je     0x8f3f0
   8f360:       4c 8b 7b 10             mov    r15, QWORD PTR [rbx+0x10]
   8f364:       4d 29 ef                sub    r15, r13
   8f367:       4b 8d 0c 3f             lea    rcx, [r15+r15*1]
   8f36b:       48 89 cf                mov    rdi, rcx
   8f36e:       48 89 4c 24 08          mov    QWORD PTR [rsp+0x8], rcx
   8f373:       e8 08 90 f9 ff          call   0x28380
   8f378:       49 89 c6                mov    r14, rax
   8f37b:       48 85 c0                test   rax, rax
   8f37e:       0f 84 c9 00 00 00       je     0x8f44d
   8f384:       4c 8b 64 24 08          mov    r12, QWORD PTR [rsp+0x8]
   8f389:       4c 89 fa                mov    rdx, r15
   8f38c:       4c 89 ee                mov    rsi, r13
   8f38f:       4d 29 fc                sub    r12, r15
   8f392:       49 01 c4                add    r12, rax
   8f395:       4c 89 e7                mov    rdi, r12
   8f398:       e8 83 92 f9 ff          call   0x28620
   8f39d:       4c 89 ef                mov    rdi, r13
   8f3a0:       e8 cb 8f f9 ff          call   0x28370
   8f3a5:       48 8b 4c 24 08          mov    rcx, QWORD PTR [rsp+0x8]
   8f3aa:       4c 89 73 18             mov    QWORD PTR [rbx+0x18], r14
   8f3ae:       4c 89 63 50             mov    QWORD PTR [rbx+0x50], r12
   8f3b2:       49 01 ce                add    r14, rcx
   8f3b5:       4c 89 73 10             mov    QWORD PTR [rbx+0x10], r14
   8f3b9:       e9 75 ff ff ff          jmp    0x8f333
   8f3be:       66 90                   xchg   ax, ax
   8f3c0:       41 0f b6 44 24 ff       movzx  eax, BYTE PTR [r12-0x1]
   8f3c6:       39 f0                   cmp    eax, esi
   8f3c8:       74 76                   je     0x8f440
   8f3ca:       48 83 7f 48 00          cmp    QWORD PTR [rdi+0x48], 0x0
   8f3cf:       74 3f                   je     0x8f410
   8f3d1:       4c 89 e6                mov    rsi, r12
   8f3d4:       48 89 df                mov    rdi, rbx
   8f3d7:       e8 a4 e1 ff ff          call   0x8d580
   8f3dc:       85 c0                   test   eax, eax
   8f3de:       75 6d                   jne    0x8f44d
   8f3e0:       4c 8b 63 08             mov    r12, QWORD PTR [rbx+0x8]
   8f3e4:       eb 11                   jmp    0x8f3f7
   8f3e6:       66 2e 0f 1f 84 00 00 00 00 00   cs nop WORD PTR [rax+rax*1+0x0]
   8f3f0:       48 83 7b 48 00          cmp    QWORD PTR [rbx+0x48], 0x0
   8f3f5:       74 19                   je     0x8f410
   8f3f7:       4c 89 63 18             mov    QWORD PTR [rbx+0x18], r12
   8f3fb:       48 89 df                mov    rdi, rbx
   8f3fe:       e8 6d e3 ff ff          call   0x8d770
   8f403:       4c 8b 63 08             mov    r12, QWORD PTR [rbx+0x8]
   8f407:       e9 27 ff ff ff          jmp    0x8f333
   8f40c:       0f 1f 40 00             nop    DWORD PTR [rax+0x0]
   8f410:       bf 80 00 00 00          mov    edi, 0x80
   8f415:       e8 66 8f f9 ff          call   0x28380
   8f41a:       48 85 c0                test   rax, rax
   8f41d:       74 2e                   je     0x8f44d
   8f41f:       48 8d 90 80 00 00 00    lea    rdx, [rax+0x80]
   8f426:       66 48 0f 6e c0          movq   xmm0, rax
   8f42b:       66 48 0f 6e ca          movq   xmm1, rdx
   8f430:       48 89 53 58             mov    QWORD PTR [rbx+0x58], rdx
   8f434:       66 0f 6c c1             punpcklqdq xmm0, xmm1
   8f438:       0f 11 43 48             movups XMMWORD PTR [rbx+0x48], xmm0
   8f43c:       eb b9                   jmp    0x8f3f7
   8f43e:       66 90                   xchg   ax, ax
   8f440:       49 83 ec 01             sub    r12, 0x1
   8f444:       4c 89 67 08             mov    QWORD PTR [rdi+0x8], r12
   8f448:       e9 f4 fe ff ff          jmp    0x8f341
   8f44d:       b8 ff ff ff ff          mov    eax, 0xffffffff
   8f452:       e9 ee fe ff ff          jmp    0x8f345
================
_IO_wmem_sync 0x87170
   87170:       f3 0f 1e fa             endbr64 
   87174:       48 8b 87 a0 00 00 00    mov    rax, QWORD PTR [rdi+0xa0]
   8717b:       53                      push   rbx
   8717c:       48 89 fb                mov    rbx, rdi
   8717f:       48 8b 70 28             mov    rsi, QWORD PTR [rax+0x28]
   87183:       48 39 70 20             cmp    QWORD PTR [rax+0x20], rsi
   87187:       74 27                   je     0x871b0
   87189:       48 8b 50 18             mov    rdx, QWORD PTR [rax+0x18]
   8718d:       48 8b 8b f0 00 00 00    mov    rcx, QWORD PTR [rbx+0xf0]
   87194:       48 89 11                mov    QWORD PTR [rcx], rdx
   87197:       48 8b 40 20             mov    rax, QWORD PTR [rax+0x20]
   8719b:       48 8b 8b f8 00 00 00    mov    rcx, QWORD PTR [rbx+0xf8]
   871a2:       48 29 d0                sub    rax, rdx
   871a5:       48 c1 f8 02             sar    rax, 0x2
   871a9:       48 89 01                mov    QWORD PTR [rcx], rax
   871ac:       31 c0                   xor    eax, eax
   871ae:       5b                      pop    rbx
   871af:       c3                      ret    
   871b0:       31 f6                   xor    esi, esi
   871b2:       e8 09 d6 ff ff          call   0x847c0
   871b7:       48 8b 83 a0 00 00 00    mov    rax, QWORD PTR [rbx+0xa0]
   871be:       48 83 68 20 04          sub    QWORD PTR [rax+0x20], 0x4
   871c3:       eb c4                   jmp    0x87189
================
_IO_wfile_underflow_maybe_mmap 0x86070
   86070:       f3 0f 1e fa             endbr64 
   86074:       55                      push   rbp
   86075:       48 89 fd                mov    rbp, rdi
   86078:       e8 63 59 00 00          call   0x8b9e0
   8607d:       83 f8 ff                cmp    eax, 0xffffffff
   86080:       74 1e                   je     0x860a0
   86082:       48 8b 85 a0 00 00 00    mov    rax, QWORD PTR [rbp+0xa0]
   86089:       48 89 ef                mov    rdi, rbp
   8608c:       5d                      pop    rbp
   8608d:       48 8b 80 e0 00 00 00    mov    rax, QWORD PTR [rax+0xe0]
   86094:       48 8b 40 20             mov    rax, QWORD PTR [rax+0x20]
   86098:       ff e0                   jmp    rax
   8609a:       66 0f 1f 44 00 00       nop    WORD PTR [rax+rax*1+0x0]
   860a0:       b8 ff ff ff ff          mov    eax, 0xffffffff
   860a5:       5d                      pop    rbp
   860a6:       c3                      ret
================
_IO_default_setbuf 0x8e430
   8e430:       f3 0f 1e fa             endbr64 
   8e434:       41 55                   push   r13
   8e436:       48 8d 05 2b 83 18 00    lea    rax, [rip+0x18832b]        # 0x216768
   8e43d:       41 54                   push   r12
   8e43f:       49 89 d4                mov    r12, rdx
   8e442:       48 8d 15 b7 75 18 00    lea    rdx, [rip+0x1875b7]        # 0x215a00
   8e449:       55                      push   rbp
   8e44a:       48 29 d0                sub    rax, rdx
   8e44d:       48 89 f5                mov    rbp, rsi
   8e450:       53                      push   rbx
   8e451:       48 89 fb                mov    rbx, rdi
   8e454:       48 83 ec 08             sub    rsp, 0x8
   8e458:       4c 8b af d8 00 00 00    mov    r13, QWORD PTR [rdi+0xd8]
   8e45f:       4c 89 e9                mov    rcx, r13
   8e462:       48 29 d1                sub    rcx, rdx
   8e465:       48 39 c8                cmp    rax, rcx
   8e468:       0f 86 a2 00 00 00       jbe    0x8e510
   8e46e:       48 89 df                mov    rdi, rbx
   8e471:       41 ff 55 60             call   QWORD PTR [r13+0x60]
   8e475:       83 f8 ff                cmp    eax, 0xffffffff
   8e478:       0f 84 a2 00 00 00       je     0x8e520
   8e47e:       8b 13                   mov    edx, DWORD PTR [rbx]
   8e480:       48 8b 7b 38             mov    rdi, QWORD PTR [rbx+0x38]
   8e484:       89 d0                   mov    eax, edx
   8e486:       48 85 ed                test   rbp, rbp
   8e489:       74 55                   je     0x8e4e0
   8e48b:       4d 85 e4                test   r12, r12
   8e48e:       74 50                   je     0x8e4e0
   8e490:       83 e0 fd                and    eax, 0xfffffffd
   8e493:       49 01 ec                add    r12, rbp
   8e496:       89 03                   mov    DWORD PTR [rbx], eax
   8e498:       48 85 ff                test   rdi, rdi
   8e49b:       74 05                   je     0x8e4a2
   8e49d:       83 e2 01                and    edx, 0x1
   8e4a0:       74 5b                   je     0x8e4fd
   8e4a2:       66 48 0f 6e c5          movq   xmm0, rbp
   8e4a7:       66 49 0f 6e cc          movq   xmm1, r12
   8e4ac:       83 c8 01                or     eax, 0x1
   8e4af:       66 0f 6c c1             punpcklqdq xmm0, xmm1
   8e4b3:       89 03                   mov    DWORD PTR [rbx], eax
   8e4b5:       48 89 d8                mov    rax, rbx
   8e4b8:       0f 11 43 38             movups XMMWORD PTR [rbx+0x38], xmm0
   8e4bc:       66 0f ef c0             pxor   xmm0, xmm0
   8e4c0:       0f 11 43 08             movups XMMWORD PTR [rbx+0x8], xmm0
   8e4c4:       0f 11 43 18             movups XMMWORD PTR [rbx+0x18], xmm0
   8e4c8:       0f 11 43 28             movups XMMWORD PTR [rbx+0x28], xmm0
   8e4cc:       48 83 c4 08             add    rsp, 0x8
   8e4d0:       5b                      pop    rbx
   8e4d1:       5d                      pop    rbp
   8e4d2:       41 5c                   pop    r12
   8e4d4:       41 5d                   pop    r13
   8e4d6:       c3                      ret    
   8e4d7:       66 0f 1f 84 00 00 00 00 00      nop    WORD PTR [rax+rax*1+0x0]
   8e4e0:       83 c8 02                or     eax, 0x2
   8e4e3:       4c 8d a3 84 00 00 00    lea    r12, [rbx+0x84]
   8e4ea:       48 8d ab 83 00 00 00    lea    rbp, [rbx+0x83]
   8e4f1:       89 03                   mov    DWORD PTR [rbx], eax
   8e4f3:       48 85 ff                test   rdi, rdi
   8e4f6:       74 aa                   je     0x8e4a2
   8e4f8:       83 e2 01                and    edx, 0x1
   8e4fb:       75 a5                   jne    0x8e4a2
   8e4fd:       e8 6e 9e f9 ff          call   0x28370
   8e502:       8b 03                   mov    eax, DWORD PTR [rbx]
   8e504:       eb 9c                   jmp    0x8e4a2
   8e506:       66 2e 0f 1f 84 00 00 00 00 00   cs nop WORD PTR [rax+rax*1+0x0]
   8e510:       e8 5b ba ff ff          call   0x89f70
   8e515:       e9 54 ff ff ff          jmp    0x8e46e
   8e51a:       66 0f 1f 44 00 00       nop    WORD PTR [rax+rax*1+0x0]
   8e520:       31 c0                   xor    eax, eax
   8e522:       eb a8                   jmp    0x8e4cc
================
_IO_default_showmanyc 0x8f4a0
   8f4a0:       f3 0f 1e fa             endbr64 
   8f4a4:       b8 ff ff ff ff          mov    eax, 0xffffffff
   8f4a9:       c3                      ret
================
_IO_cookie_seek 0x7f830
   7f830:       f3 0f 1e fa             endbr64 
   7f834:       48 83 ec 18             sub    rsp, 0x18
   7f838:       48 8b 87 f8 00 00 00    mov    rax, QWORD PTR [rdi+0xf8]
   7f83f:       48 89 74 24 08          mov    QWORD PTR [rsp+0x8], rsi
   7f844:       48 c1 c8 11             ror    rax, 0x11
   7f848:       64 48 33 04 25 30 00 00 00      xor    rax, QWORD PTR fs:0x30
   7f851:       48 85 c0                test   rax, rax
   7f854:       74 22                   je     0x7f878
   7f856:       48 8b bf e0 00 00 00    mov    rdi, QWORD PTR [rdi+0xe0]
   7f85d:       48 8d 74 24 08          lea    rsi, [rsp+0x8]
   7f862:       ff d0                   call   rax
   7f864:       83 f8 ff                cmp    eax, 0xffffffff
   7f867:       74 0f                   je     0x7f878
   7f869:       48 8b 44 24 08          mov    rax, QWORD PTR [rsp+0x8]
   7f86e:       48 83 c4 18             add    rsp, 0x18
   7f872:       c3                      ret    
   7f873:       0f 1f 44 00 00          nop    DWORD PTR [rax+rax*1+0x0]
   7f878:       48 c7 c0 ff ff ff ff    mov    rax, 0xffffffffffffffff
   7f87f:       eb ed                   jmp    0x7f86e
================
_IO_wstr_overflow 0x847c0
   847c0:       f3 0f 1e fa             endbr64 
   847c4:       41 57                   push   r15
   847c6:       41 56                   push   r14
   847c8:       41 55                   push   r13
   847ca:       41 54                   push   r12
   847cc:       55                      push   rbp
   847cd:       53                      push   rbx
   847ce:       89 f3                   mov    ebx, esi
   847d0:       48 83 ec 18             sub    rsp, 0x18
   847d4:       8b 07                   mov    eax, DWORD PTR [rdi]
   847d6:       a8 08                   test   al, 0x8
   847d8:       0f 85 9a 00 00 00       jne    0x84878
   847de:       89 c1                   mov    ecx, eax
   847e0:       48 8b 97 a0 00 00 00    mov    rdx, QWORD PTR [rdi+0xa0]
   847e7:       48 89 fd                mov    rbp, rdi
   847ea:       81 e1 00 0c 00 00       and    ecx, 0xc00
   847f0:       81 f9 00 04 00 00       cmp    ecx, 0x400
   847f6:       74 68                   je     0x84860
   847f8:       48 8b 4a 20             mov    rcx, QWORD PTR [rdx+0x20]
   847fc:       4c 8b 72 30             mov    r14, QWORD PTR [rdx+0x30]
   84800:       4c 8b 62 38             mov    r12, QWORD PTR [rdx+0x38]
   84804:       31 f6                   xor    esi, esi
   84806:       48 89 c8                mov    rax, rcx
   84809:       4d 29 f4                sub    r12, r14
   8480c:       4d 89 e0                mov    r8, r12
   8480f:       49 c1 f8 02             sar    r8, 0x2
   84813:       83 fb ff                cmp    ebx, 0xffffffff
   84816:       40 0f 94 c6             sete   sil
   8481a:       48 2b 42 18             sub    rax, QWORD PTR [rdx+0x18]
   8481e:       4c 01 c6                add    rsi, r8
   84821:       48 c1 f8 02             sar    rax, 0x2
   84825:       48 39 c6                cmp    rsi, rax
   84828:       76 6e                   jbe    0x84898
   8482a:       48 8b 72 08             mov    rsi, QWORD PTR [rdx+0x8]
   8482e:       83 fb ff                cmp    ebx, 0xffffffff
   84831:       74 0d                   je     0x84840
   84833:       48 8d 41 04             lea    rax, [rcx+0x4]
   84837:       48 89 42 20             mov    QWORD PTR [rdx+0x20], rax
   8483b:       89 19                   mov    DWORD PTR [rcx], ebx
   8483d:       48 89 c1                mov    rcx, rax
   84840:       89 d8                   mov    eax, ebx
   84842:       48 39 f1                cmp    rcx, rsi
   84845:       76 04                   jbe    0x8484b
   84847:       48 89 4a 08             mov    QWORD PTR [rdx+0x8], rcx
   8484b:       48 83 c4 18             add    rsp, 0x18
   8484f:       5b                      pop    rbx
   84850:       5d                      pop    rbp
   84851:       41 5c                   pop    r12
   84853:       41 5d                   pop    r13
   84855:       41 5e                   pop    r14
   84857:       41 5f                   pop    r15
   84859:       c3                      ret    
   8485a:       66 0f 1f 44 00 00       nop    WORD PTR [rax+rax*1+0x0]
   84860:       80 cc 08                or     ah, 0x8
   84863:       48 8b 0a                mov    rcx, QWORD PTR [rdx]
   84866:       89 07                   mov    DWORD PTR [rdi], eax
   84868:       48 8b 42 08             mov    rax, QWORD PTR [rdx+0x8]
   8486c:       48 89 4a 20             mov    QWORD PTR [rdx+0x20], rcx
   84870:       48 89 02                mov    QWORD PTR [rdx], rax
   84873:       eb 87                   jmp    0x847fc
   84875:       0f 1f 00                nop    DWORD PTR [rax]
   84878:       31 c0                   xor    eax, eax
   8487a:       83 fe ff                cmp    esi, 0xffffffff
   8487d:       0f 95 c0                setne  al
   84880:       48 83 c4 18             add    rsp, 0x18
   84884:       5b                      pop    rbx
   84885:       f7 d8                   neg    eax
   84887:       5d                      pop    rbp
   84888:       41 5c                   pop    r12
   8488a:       41 5d                   pop    r13
   8488c:       41 5e                   pop    r14
   8488e:       41 5f                   pop    r15
   84890:       c3                      ret    
   84891:       0f 1f 80 00 00 00 00    nop    DWORD PTR [rax+0x0]
   84898:       f6 45 74 08             test   BYTE PTR [rbp+0x74], 0x8
   8489c:       0f 85 fe 00 00 00       jne    0x849a0
   848a2:       4d 8d 78 32             lea    r15, [r8+0x32]
   848a6:       4b 8d 0c 3f             lea    rcx, [r15+r15*1]
   848aa:       48 89 c8                mov    rax, rcx
   848ad:       48 c1 e8 3e             shr    rax, 0x3e
   848b1:       0f 85 e9 00 00 00       jne    0x849a0
   848b7:       49 39 c8                cmp    r8, rcx
   848ba:       48 89 4c 24 08          mov    QWORD PTR [rsp+0x8], rcx
   848bf:       4c 89 04 24             mov    QWORD PTR [rsp], r8
   848c3:       0f 87 d7 00 00 00       ja     0x849a0
   848c9:       49 c1 e7 03             shl    r15, 0x3
   848cd:       4c 89 ff                mov    rdi, r15
   848d0:       e8 ab 3a fa ff          call   0x28380
   848d5:       49 89 c5                mov    r13, rax
   848d8:       48 85 c0                test   rax, rax
   848db:       0f 84 bf 00 00 00       je     0x849a0
   848e1:       4d 85 f6                test   r14, r14
   848e4:       4c 8b 04 24             mov    r8, QWORD PTR [rsp]
   848e8:       48 8b 4c 24 08          mov    rcx, QWORD PTR [rsp+0x8]
   848ed:       74 2e                   je     0x8491d
   848ef:       4c 89 c2                mov    rdx, r8
   848f2:       4c 89 f6                mov    rsi, r14
   848f5:       48 89 c7                mov    rdi, rax
   848f8:       e8 63 12 04 00          call   0xc5b60
   848fd:       4c 89 f7                mov    rdi, r14
   84900:       e8 6b 3a fa ff          call   0x28370
   84905:       48 8b 85 a0 00 00 00    mov    rax, QWORD PTR [rbp+0xa0]
   8490c:       48 8b 4c 24 08          mov    rcx, QWORD PTR [rsp+0x8]
   84911:       4c 8b 04 24             mov    r8, QWORD PTR [rsp]
   84915:       48 c7 40 30 00 00 00 00         mov    QWORD PTR [rax+0x30], 0x0
   8491d:       48 89 ca                mov    rdx, rcx
   84920:       4b 8d 7c 25 00          lea    rdi, [r13+r12*1+0x0]
   84925:       31 f6                   xor    esi, esi
   84927:       4c 29 c2                sub    rdx, r8
   8492a:       e8 c1 3a fa ff          call   0x283f0
   8492f:       4b 8d 54 3d 00          lea    rdx, [r13+r15*1+0x0]
   84934:       4c 89 ee                mov    rsi, r13
   84937:       48 89 ef                mov    rdi, rbp
   8493a:       b9 01 00 00 00          mov    ecx, 0x1
   8493f:       e8 cc ec ff ff          call   0x83610
   84944:       48 8b 95 a0 00 00 00    mov    rdx, QWORD PTR [rbp+0xa0]
   8494b:       66 49 0f 6e c5          movq   xmm0, r13
   84950:       48 8b 42 10             mov    rax, QWORD PTR [rdx+0x10]
   84954:       48 8b 4a 20             mov    rcx, QWORD PTR [rdx+0x20]
   84958:       48 8b 72 08             mov    rsi, QWORD PTR [rdx+0x8]
   8495c:       4c 29 f0                sub    rax, r14
   8495f:       4c 29 f1                sub    rcx, r14
   84962:       4c 01 e8                add    rax, r13
   84965:       4c 01 e9                add    rcx, r13
   84968:       4c 29 f6                sub    rsi, r14
   8496b:       48 89 42 10             mov    QWORD PTR [rdx+0x10], rax
   8496f:       48 8b 02                mov    rax, QWORD PTR [rdx]
   84972:       66 48 0f 6e c9          movq   xmm1, rcx
   84977:       4c 01 ee                add    rsi, r13
   8497a:       66 0f 6c c1             punpcklqdq xmm0, xmm1
   8497e:       48 89 72 08             mov    QWORD PTR [rdx+0x8], rsi
   84982:       4c 29 f0                sub    rax, r14
   84985:       0f 11 42 18             movups XMMWORD PTR [rdx+0x18], xmm0
   84989:       4c 01 e8                add    rax, r13
   8498c:       48 89 02                mov    QWORD PTR [rdx], rax
   8498f:       48 8b 42 38             mov    rax, QWORD PTR [rdx+0x38]
   84993:       48 89 42 28             mov    QWORD PTR [rdx+0x28], rax
   84997:       e9 92 fe ff ff          jmp    0x8482e
   8499c:       0f 1f 40 00             nop    DWORD PTR [rax+0x0]
   849a0:       48 83 c4 18             add    rsp, 0x18
   849a4:       b8 ff ff ff ff          mov    eax, 0xffffffff
   849a9:       5b                      pop    rbx
   849aa:       5d                      pop    rbp
   849ab:       41 5c                   pop    r12
   849ad:       41 5d                   pop    r13
   849af:       41 5e                   pop    r14
   849b1:       41 5f                   pop    r15
   849b3:       c3                      ret
================
_IO_wstrn_overflow 0x82f80
   82f80:       f3 0f 1e fa             endbr64 
   82f84:       41 54                   push   r12
   82f86:       41 89 f4                mov    r12d, esi
   82f89:       48 8d b7 f0 00 00 00    lea    rsi, [rdi+0xf0]
   82f90:       53                      push   rbx
   82f91:       66 48 0f 6e c6          movq   xmm0, rsi
   82f96:       66 0f 6c c0             punpcklqdq xmm0, xmm0
   82f9a:       48 83 ec 28             sub    rsp, 0x28
   82f9e:       48 8b 97 a0 00 00 00    mov    rdx, QWORD PTR [rdi+0xa0]
   82fa5:       48 39 72 30             cmp    QWORD PTR [rdx+0x30], rsi
   82fa9:       74 41                   je     0x82fec
   82fab:       66 48 0f 6e ce          movq   xmm1, rsi
   82fb0:       48 89 fb                mov    rbx, rdi
   82fb3:       31 c9                   xor    ecx, ecx
   82fb5:       0f 29 44 24 10          movaps XMMWORD PTR [rsp+0x10], xmm0
   82fba:       48 8d 97 f0 01 00 00    lea    rdx, [rdi+0x1f0]
   82fc1:       66 48 0f 6e d2          movq   xmm2, rdx
   82fc6:       66 0f 6c ca             punpcklqdq xmm1, xmm2
   82fca:       0f 29 0c 24             movaps XMMWORD PTR [rsp], xmm1
   82fce:       e8 3d 06 00 00          call   0x83610
   82fd3:       66 0f 6f 0c 24          movdqa xmm1, XMMWORD PTR [rsp]
   82fd8:       48 8b 93 a0 00 00 00    mov    rdx, QWORD PTR [rbx+0xa0]
   82fdf:       66 0f 6f 44 24 10       movdqa xmm0, XMMWORD PTR [rsp+0x10]
   82fe5:       0f 11 0a                movups XMMWORD PTR [rdx], xmm1
   82fe8:       0f 11 42 10             movups XMMWORD PTR [rdx+0x10], xmm0
   82fec:       0f 11 42 20             movups XMMWORD PTR [rdx+0x20], xmm0
   82ff0:       48 83 c4 28             add    rsp, 0x28
   82ff4:       44 89 e0                mov    eax, r12d
   82ff7:       5b                      pop    rbx
   82ff8:       41 5c                   pop    r12
   82ffa:       c3                      ret
================
_IO_file_close 0x8a610
   8a610:       f3 0f 1e fa             endbr64 
   8a614:       8b 7f 70                mov    edi, DWORD PTR [rdi+0x70]
   8a617:       e9 f4 f3 08 00          jmp    0x119a10
================
_IO_file_close 0x8a610
   8a610:       f3 0f 1e fa             endbr64 
   8a614:       8b 7f 70                mov    edi, DWORD PTR [rdi+0x70]
   8a617:       e9 f4 f3 08 00          jmp    0x119a10
================
_IO_default_imbue 0x8f4b0
   8f4b0:       f3 0f 1e fa             endbr64 
   8f4b4:       c3                      ret
================
_IO_default_stat 0x8f470
   8f470:       f3 0f 1e fa             endbr64 
   8f474:       b8 ff ff ff ff          mov    eax, 0xffffffff
   8f479:       c3                      ret
================
_IO_str_finish 0x8f9f0
   8f9f0:       f3 0f 1e fa             endbr64 
   8f9f4:       55                      push   rbp
   8f9f5:       48 89 fd                mov    rbp, rdi
   8f9f8:       48 8b 7f 38             mov    rdi, QWORD PTR [rdi+0x38]
   8f9fc:       48 85 ff                test   rdi, rdi
   8f9ff:       74 06                   je     0x8fa07
   8fa01:       f6 45 00 01             test   BYTE PTR [rbp+0x0], 0x1
   8fa05:       74 19                   je     0x8fa20
   8fa07:       48 c7 45 38 00 00 00 00         mov    QWORD PTR [rbp+0x38], 0x0
   8fa0f:       48 89 ef                mov    rdi, rbp
   8fa12:       31 f6                   xor    esi, esi
   8fa14:       5d                      pop    rbp
   8fa15:       e9 96 ed ff ff          jmp    0x8e7b0
   8fa1a:       66 0f 1f 44 00 00       nop    WORD PTR [rax+rax*1+0x0]
   8fa20:       e8 4b 89 f9 ff          call   0x28370
   8fa25:       eb e0                   jmp    0x8fa07
================
_IO_default_seekpos 0x8e530
   8e530:       f3 0f 1e fa             endbr64 
   8e534:       53                      push   rbx
   8e535:       89 d1                   mov    ecx, edx
   8e537:       48 8d 05 2a 82 18 00    lea    rax, [rip+0x18822a]        # 0x216768
   8e53e:       48 8d 15 bb 74 18 00    lea    rdx, [rip+0x1874bb]        # 0x215a00
   8e545:       48 29 d0                sub    rax, rdx
   8e548:       48 83 ec 20             sub    rsp, 0x20
   8e54c:       48 8b 9f d8 00 00 00    mov    rbx, QWORD PTR [rdi+0xd8]
   8e553:       49 89 d8                mov    r8, rbx
   8e556:       49 29 d0                sub    r8, rdx
   8e559:       4c 39 c0                cmp    rax, r8
   8e55c:       76 12                   jbe    0x8e570
   8e55e:       48 8b 43 48             mov    rax, QWORD PTR [rbx+0x48]
   8e562:       48 83 c4 20             add    rsp, 0x20
   8e566:       31 d2                   xor    edx, edx
   8e568:       5b                      pop    rbx
   8e569:       ff e0                   jmp    rax
   8e56b:       0f 1f 44 00 00          nop    DWORD PTR [rax+rax*1+0x0]
   8e570:       89 4c 24 1c             mov    DWORD PTR [rsp+0x1c], ecx
   8e574:       48 89 74 24 10          mov    QWORD PTR [rsp+0x10], rsi
   8e579:       48 89 7c 24 08          mov    QWORD PTR [rsp+0x8], rdi
   8e57e:       e8 ed b9 ff ff          call   0x89f70
   8e583:       48 8b 43 48             mov    rax, QWORD PTR [rbx+0x48]
   8e587:       8b 4c 24 1c             mov    ecx, DWORD PTR [rsp+0x1c]
   8e58b:       31 d2                   xor    edx, edx
   8e58d:       48 8b 74 24 10          mov    rsi, QWORD PTR [rsp+0x10]
   8e592:       48 8b 7c 24 08          mov    rdi, QWORD PTR [rsp+0x8]
   8e597:       48 83 c4 20             add    rsp, 0x20
   8e59b:       5b                      pop    rbx
   8e59c:       ff e0                   jmp    rax
================
_IO_file_read 0x8b9b0
   8b9b0:       f3 0f 1e fa             endbr64 
   8b9b4:       44 8b 47 70             mov    r8d, DWORD PTR [rdi+0x70]
   8b9b8:       f6 47 74 02             test   BYTE PTR [rdi+0x74], 0x2
   8b9bc:       44 89 c7                mov    edi, r8d
   8b9bf:       75 0f                   jne    0x8b9d0
   8b9c1:       e9 ba 8f 08 00          jmp    0x114980
   8b9c6:       66 2e 0f 1f 84 00 00 00 00 00   cs nop WORD PTR [rax+rax*1+0x0]
   8b9d0:       e9 fb e2 08 00          jmp    0x119cd0
================
_IO_file_read 0x8b9b0
   8b9b0:       f3 0f 1e fa             endbr64 
   8b9b4:       44 8b 47 70             mov    r8d, DWORD PTR [rdi+0x70]
   8b9b8:       f6 47 74 02             test   BYTE PTR [rdi+0x74], 0x2
   8b9bc:       44 89 c7                mov    edi, r8d
   8b9bf:       75 0f                   jne    0x8b9d0
   8b9c1:       e9 ba 8f 08 00          jmp    0x114980
   8b9c6:       66 2e 0f 1f 84 00 00 00 00 00   cs nop WORD PTR [rax+rax*1+0x0]
   8b9d0:       e9 fb e2 08 00          jmp    0x119cd0
================
_IO_str_seekoff 0x8fb70
   8fb70:       f3 0f 1e fa             endbr64 
   8fb74:       41 57                   push   r15
   8fb76:       41 56                   push   r14
   8fb78:       41 89 d6                mov    r14d, edx
   8fb7b:       41 55                   push   r13
   8fb7d:       49 89 f5                mov    r13, rsi
   8fb80:       41 54                   push   r12
   8fb82:       55                      push   rbp
   8fb83:       89 cd                   mov    ebp, ecx
   8fb85:       53                      push   rbx
   8fb86:       48 89 fb                mov    rbx, rdi
   8fb89:       48 83 ec 18             sub    rsp, 0x18
   8fb8d:       f3 0f 6f 47 20          movdqu xmm0, XMMWORD PTR [rdi+0x20]
   8fb92:       8b 17                   mov    edx, DWORD PTR [rdi]
   8fb94:       48 8b 4f 20             mov    rcx, QWORD PTR [rdi+0x20]
   8fb98:       66 0f 6f c8             movdqa xmm1, xmm0
   8fb9c:       0f 12 d0                movhlps xmm2, xmm0
   8fb9f:       66 0f 6d c8             punpckhqdq xmm1, xmm0
   8fba3:       66 48 0f 7e d0          movq   rax, xmm2
   8fba8:       85 ed                   test   ebp, ebp
   8fbaa:       0f 85 50 01 00 00       jne    0x8fd00
   8fbb0:       89 d5                   mov    ebp, edx
   8fbb2:       81 e5 00 04 00 00       and    ebp, 0x400
   8fbb8:       0f 84 fa 00 00 00       je     0x8fcb8
   8fbbe:       f6 c6 08                test   dh, 0x8
   8fbc1:       0f 85 79 01 00 00       jne    0x8fd40
   8fbc7:       48 39 c8                cmp    rax, rcx
   8fbca:       0f 87 90 01 00 00       ja     0x8fd60
   8fbd0:       e8 7b ff ff ff          call   0x8fb50
   8fbd5:       bd 01 00 00 00          mov    ebp, 0x1
   8fbda:       49 89 c7                mov    r15, rax
   8fbdd:       45 85 f6                test   r14d, r14d
   8fbe0:       0f 84 8a 01 00 00       je     0x8fd70
   8fbe6:       4d 89 fc                mov    r12, r15
   8fbe9:       41 83 fe 01             cmp    r14d, 0x1
   8fbed:       75 08                   jne    0x8fbf7
   8fbef:       4c 8b 63 08             mov    r12, QWORD PTR [rbx+0x8]
   8fbf3:       4c 2b 63 18             sub    r12, QWORD PTR [rbx+0x18]
   8fbf7:       4c 89 e0                mov    rax, r12
   8fbfa:       48 f7 d8                neg    rax
   8fbfd:       4c 39 e8                cmp    rax, r13
   8fc00:       0f 8f 0a 02 00 00       jg     0x8fe10
   8fc06:       48 b8 ff ff ff ff ff ff ff 7f   movabs rax, 0x7fffffffffffffff
   8fc10:       4c 29 e0                sub    rax, r12
   8fc13:       4c 39 e8                cmp    rax, r13
   8fc16:       0f 8c f4 01 00 00       jl     0x8fe10
   8fc1c:       4d 01 ec                add    r12, r13
   8fc1f:       66 49 0f 6e cc          movq   xmm1, r12
   8fc24:       66 49 0f 6e df          movq   xmm3, r15
   8fc29:       66 0f 6c cb             punpcklqdq xmm1, xmm3
   8fc2d:       4d 39 e7                cmp    r15, r12
   8fc30:       0f 8c 8a 01 00 00       jl     0x8fdc0
   8fc36:       f3 0f 7e 43 18          movq   xmm0, QWORD PTR [rbx+0x18]
   8fc3b:       83 e5 02                and    ebp, 0x2
   8fc3e:       66 0f 6c c0             punpcklqdq xmm0, xmm0
   8fc42:       66 0f d4 c1             paddq  xmm0, xmm1
   8fc46:       0f 11 43 08             movups XMMWORD PTR [rbx+0x8], xmm0
   8fc4a:       0f 84 9a 00 00 00       je     0x8fcea
   8fc50:       45 85 f6                test   r14d, r14d
   8fc53:       0f 84 57 01 00 00       je     0x8fdb0
   8fc59:       41 83 fe 01             cmp    r14d, 0x1
   8fc5d:       0f 85 25 01 00 00       jne    0x8fd88
   8fc63:       48 8b 53 28             mov    rdx, QWORD PTR [rbx+0x28]
   8fc67:       48 8b 43 20             mov    rax, QWORD PTR [rbx+0x20]
   8fc6b:       49 89 d4                mov    r12, rdx
   8fc6e:       49 29 c4                sub    r12, rax
   8fc71:       48 29 d0                sub    rax, rdx
   8fc74:       48 ba ff ff ff ff ff ff ff 7f   movabs rdx, 0x7fffffffffffffff
   8fc7e:       4c 29 e2                sub    rdx, r12
   8fc81:       49 39 d5                cmp    r13, rdx
   8fc84:       0f 9f c2                setg   dl
   8fc87:       49 39 c5                cmp    r13, rax
   8fc8a:       0f 8c 80 01 00 00       jl     0x8fe10
   8fc90:       84 d2                   test   dl, dl
   8fc92:       0f 85 78 01 00 00       jne    0x8fe10
   8fc98:       4d 01 ec                add    r12, r13
   8fc9b:       4d 39 fc                cmp    r12, r15
   8fc9e:       0f 8f 4c 01 00 00       jg     0x8fdf0
   8fca4:       48 8b 43 20             mov    rax, QWORD PTR [rbx+0x20]
   8fca8:       4c 01 e0                add    rax, r12
   8fcab:       48 89 43 28             mov    QWORD PTR [rbx+0x28], rax
   8fcaf:       eb 39                   jmp    0x8fcea
   8fcb1:       0f 1f 80 00 00 00 00    nop    DWORD PTR [rax+0x0]
   8fcb8:       48 39 c8                cmp    rax, rcx
   8fcbb:       0f 86 8f 00 00 00       jbe    0x8fd50
   8fcc1:       0f 1f 80 00 00 00 00    nop    DWORD PTR [rax+0x0]
   8fcc8:       f6 c6 01                test   dh, 0x1
   8fccb:       74 63                   je     0x8fd30
   8fccd:       48 8b 43 50             mov    rax, QWORD PTR [rbx+0x50]
   8fcd1:       80 e6 f7                and    dh, 0xf7
   8fcd4:       48 89 43 18             mov    QWORD PTR [rbx+0x18], rax
   8fcd8:       89 13                   mov    DWORD PTR [rbx], edx
   8fcda:       0f 11 4b 08             movups XMMWORD PTR [rbx+0x8], xmm1
   8fcde:       85 ed                   test   ebp, ebp
   8fce0:       75 28                   jne    0x8fd0a
   8fce2:       4c 8b 63 08             mov    r12, QWORD PTR [rbx+0x8]
   8fce6:       4c 2b 63 18             sub    r12, QWORD PTR [rbx+0x18]
   8fcea:       48 83 c4 18             add    rsp, 0x18
   8fcee:       4c 89 e0                mov    rax, r12
   8fcf1:       5b                      pop    rbx
   8fcf2:       5d                      pop    rbp
   8fcf3:       41 5c                   pop    r12
   8fcf5:       41 5d                   pop    r13
   8fcf7:       41 5e                   pop    r14
   8fcf9:       41 5f                   pop    r15
   8fcfb:       c3                      ret    
   8fcfc:       0f 1f 40 00             nop    DWORD PTR [rax+0x0]
   8fd00:       48 39 c8                cmp    rax, rcx
   8fd03:       77 c3                   ja     0x8fcc8
   8fd05:       f6 c6 08                test   dh, 0x8
   8fd08:       75 be                   jne    0x8fcc8
   8fd0a:       48 89 df                mov    rdi, rbx
   8fd0d:       49 c7 c4 ff ff ff ff    mov    r12, 0xffffffffffffffff
   8fd14:       e8 37 fe ff ff          call   0x8fb50
   8fd19:       49 89 c7                mov    r15, rax
   8fd1c:       40 f6 c5 01             test   bpl, 0x1
   8fd20:       0f 85 b7 fe ff ff       jne    0x8fbdd
   8fd26:       83 e5 02                and    ebp, 0x2
   8fd29:       74 bf                   je     0x8fcea
   8fd2b:       e9 20 ff ff ff          jmp    0x8fc50
   8fd30:       48 8b 43 38             mov    rax, QWORD PTR [rbx+0x38]
   8fd34:       eb 9b                   jmp    0x8fcd1
   8fd36:       66 2e 0f 1f 84 00 00 00 00 00   cs nop WORD PTR [rax+rax*1+0x0]
   8fd40:       bd 02 00 00 00          mov    ebp, 0x2
   8fd45:       eb 81                   jmp    0x8fcc8
   8fd47:       66 0f 1f 84 00 00 00 00 00      nop    WORD PTR [rax+rax*1+0x0]
   8fd50:       f6 c6 08                test   dh, 0x8
   8fd53:       0f 85 6f ff ff ff       jne    0x8fcc8
   8fd59:       eb 87                   jmp    0x8fce2
   8fd5b:       0f 1f 44 00 00          nop    DWORD PTR [rax+rax*1+0x0]
   8fd60:       bd 01 00 00 00          mov    ebp, 0x1
   8fd65:       e9 5e ff ff ff          jmp    0x8fcc8
   8fd6a:       66 0f 1f 44 00 00       nop    WORD PTR [rax+rax*1+0x0]
   8fd70:       4d 85 ed                test   r13, r13
   8fd73:       0f 88 97 00 00 00       js     0x8fe10
   8fd79:       4d 89 ec                mov    r12, r13
   8fd7c:       e9 9e fe ff ff          jmp    0x8fc1f
   8fd81:       0f 1f 80 00 00 00 00    nop    DWORD PTR [rax+0x0]
   8fd88:       48 ba ff ff ff ff ff ff ff 7f   movabs rdx, 0x7fffffffffffffff
   8fd92:       4c 89 f8                mov    rax, r15
   8fd95:       4d 89 fc                mov    r12, r15
   8fd98:       4c 29 fa                sub    rdx, r15
   8fd9b:       48 f7 d8                neg    rax
   8fd9e:       49 39 d5                cmp    r13, rdx
   8fda1:       0f 9f c2                setg   dl
   8fda4:       e9 de fe ff ff          jmp    0x8fc87
   8fda9:       0f 1f 80 00 00 00 00    nop    DWORD PTR [rax+0x0]
   8fdb0:       31 d2                   xor    edx, edx
   8fdb2:       31 c0                   xor    eax, eax
   8fdb4:       45 31 e4                xor    r12d, r12d
   8fdb7:       e9 cb fe ff ff          jmp    0x8fc87
   8fdbc:       0f 1f 40 00             nop    DWORD PTR [rax+0x0]
   8fdc0:       ba 01 00 00 00          mov    edx, 0x1
   8fdc5:       4c 89 e6                mov    rsi, r12
   8fdc8:       48 89 df                mov    rdi, rbx
   8fdcb:       0f 29 0c 24             movaps XMMWORD PTR [rsp], xmm1
   8fdcf:       e8 fc f9 ff ff          call   0x8f7d0
   8fdd4:       66 0f 6f 0c 24          movdqa xmm1, XMMWORD PTR [rsp]
   8fdd9:       85 c0                   test   eax, eax
   8fddb:       0f 84 55 fe ff ff       je     0x8fc36
   8fde1:       49 c7 c4 ff ff ff ff    mov    r12, 0xffffffffffffffff
   8fde8:       e9 fd fe ff ff          jmp    0x8fcea
   8fded:       0f 1f 00                nop    DWORD PTR [rax]
   8fdf0:       31 d2                   xor    edx, edx
   8fdf2:       4c 89 e6                mov    rsi, r12
   8fdf5:       48 89 df                mov    rdi, rbx
   8fdf8:       e8 d3 f9 ff ff          call   0x8f7d0
   8fdfd:       85 c0                   test   eax, eax
   8fdff:       0f 84 9f fe ff ff       je     0x8fca4
   8fe05:       eb da                   jmp    0x8fde1
   8fe07:       66 0f 1f 84 00 00 00 00 00      nop    WORD PTR [rax+rax*1+0x0]
   8fe10:       48 8b 05 f9 8f 18 00    mov    rax, QWORD PTR [rip+0x188ff9]        # 0x218e10
   8fe17:       49 c7 c4 ff ff ff ff    mov    r12, 0xffffffffffffffff
   8fe1e:       64 c7 00 16 00 00 00    mov    DWORD PTR fs:[rax], 0x16
   8fe25:       e9 c0 fe ff ff          jmp    0x8fcea
================
_IO_str_seekoff 0x8fb70
   8fb70:       f3 0f 1e fa             endbr64 
   8fb74:       41 57                   push   r15
   8fb76:       41 56                   push   r14
   8fb78:       41 89 d6                mov    r14d, edx
   8fb7b:       41 55                   push   r13
   8fb7d:       49 89 f5                mov    r13, rsi
   8fb80:       41 54                   push   r12
   8fb82:       55                      push   rbp
   8fb83:       89 cd                   mov    ebp, ecx
   8fb85:       53                      push   rbx
   8fb86:       48 89 fb                mov    rbx, rdi
   8fb89:       48 83 ec 18             sub    rsp, 0x18
   8fb8d:       f3 0f 6f 47 20          movdqu xmm0, XMMWORD PTR [rdi+0x20]
   8fb92:       8b 17                   mov    edx, DWORD PTR [rdi]
   8fb94:       48 8b 4f 20             mov    rcx, QWORD PTR [rdi+0x20]
   8fb98:       66 0f 6f c8             movdqa xmm1, xmm0
   8fb9c:       0f 12 d0                movhlps xmm2, xmm0
   8fb9f:       66 0f 6d c8             punpckhqdq xmm1, xmm0
   8fba3:       66 48 0f 7e d0          movq   rax, xmm2
   8fba8:       85 ed                   test   ebp, ebp
   8fbaa:       0f 85 50 01 00 00       jne    0x8fd00
   8fbb0:       89 d5                   mov    ebp, edx
   8fbb2:       81 e5 00 04 00 00       and    ebp, 0x400
   8fbb8:       0f 84 fa 00 00 00       je     0x8fcb8
   8fbbe:       f6 c6 08                test   dh, 0x8
   8fbc1:       0f 85 79 01 00 00       jne    0x8fd40
   8fbc7:       48 39 c8                cmp    rax, rcx
   8fbca:       0f 87 90 01 00 00       ja     0x8fd60
   8fbd0:       e8 7b ff ff ff          call   0x8fb50
   8fbd5:       bd 01 00 00 00          mov    ebp, 0x1
   8fbda:       49 89 c7                mov    r15, rax
   8fbdd:       45 85 f6                test   r14d, r14d
   8fbe0:       0f 84 8a 01 00 00       je     0x8fd70
   8fbe6:       4d 89 fc                mov    r12, r15
   8fbe9:       41 83 fe 01             cmp    r14d, 0x1
   8fbed:       75 08                   jne    0x8fbf7
   8fbef:       4c 8b 63 08             mov    r12, QWORD PTR [rbx+0x8]
   8fbf3:       4c 2b 63 18             sub    r12, QWORD PTR [rbx+0x18]
   8fbf7:       4c 89 e0                mov    rax, r12
   8fbfa:       48 f7 d8                neg    rax
   8fbfd:       4c 39 e8                cmp    rax, r13
   8fc00:       0f 8f 0a 02 00 00       jg     0x8fe10
   8fc06:       48 b8 ff ff ff ff ff ff ff 7f   movabs rax, 0x7fffffffffffffff
   8fc10:       4c 29 e0                sub    rax, r12
   8fc13:       4c 39 e8                cmp    rax, r13
   8fc16:       0f 8c f4 01 00 00       jl     0x8fe10
   8fc1c:       4d 01 ec                add    r12, r13
   8fc1f:       66 49 0f 6e cc          movq   xmm1, r12
   8fc24:       66 49 0f 6e df          movq   xmm3, r15
   8fc29:       66 0f 6c cb             punpcklqdq xmm1, xmm3
   8fc2d:       4d 39 e7                cmp    r15, r12
   8fc30:       0f 8c 8a 01 00 00       jl     0x8fdc0
   8fc36:       f3 0f 7e 43 18          movq   xmm0, QWORD PTR [rbx+0x18]
   8fc3b:       83 e5 02                and    ebp, 0x2
   8fc3e:       66 0f 6c c0             punpcklqdq xmm0, xmm0
   8fc42:       66 0f d4 c1             paddq  xmm0, xmm1
   8fc46:       0f 11 43 08             movups XMMWORD PTR [rbx+0x8], xmm0
   8fc4a:       0f 84 9a 00 00 00       je     0x8fcea
   8fc50:       45 85 f6                test   r14d, r14d
   8fc53:       0f 84 57 01 00 00       je     0x8fdb0
   8fc59:       41 83 fe 01             cmp    r14d, 0x1
   8fc5d:       0f 85 25 01 00 00       jne    0x8fd88
   8fc63:       48 8b 53 28             mov    rdx, QWORD PTR [rbx+0x28]
   8fc67:       48 8b 43 20             mov    rax, QWORD PTR [rbx+0x20]
   8fc6b:       49 89 d4                mov    r12, rdx
   8fc6e:       49 29 c4                sub    r12, rax
   8fc71:       48 29 d0                sub    rax, rdx
   8fc74:       48 ba ff ff ff ff ff ff ff 7f   movabs rdx, 0x7fffffffffffffff
   8fc7e:       4c 29 e2                sub    rdx, r12
   8fc81:       49 39 d5                cmp    r13, rdx
   8fc84:       0f 9f c2                setg   dl
   8fc87:       49 39 c5                cmp    r13, rax
   8fc8a:       0f 8c 80 01 00 00       jl     0x8fe10
   8fc90:       84 d2                   test   dl, dl
   8fc92:       0f 85 78 01 00 00       jne    0x8fe10
   8fc98:       4d 01 ec                add    r12, r13
   8fc9b:       4d 39 fc                cmp    r12, r15
   8fc9e:       0f 8f 4c 01 00 00       jg     0x8fdf0
   8fca4:       48 8b 43 20             mov    rax, QWORD PTR [rbx+0x20]
   8fca8:       4c 01 e0                add    rax, r12
   8fcab:       48 89 43 28             mov    QWORD PTR [rbx+0x28], rax
   8fcaf:       eb 39                   jmp    0x8fcea
   8fcb1:       0f 1f 80 00 00 00 00    nop    DWORD PTR [rax+0x0]
   8fcb8:       48 39 c8                cmp    rax, rcx
   8fcbb:       0f 86 8f 00 00 00       jbe    0x8fd50
   8fcc1:       0f 1f 80 00 00 00 00    nop    DWORD PTR [rax+0x0]
   8fcc8:       f6 c6 01                test   dh, 0x1
   8fccb:       74 63                   je     0x8fd30
   8fccd:       48 8b 43 50             mov    rax, QWORD PTR [rbx+0x50]
   8fcd1:       80 e6 f7                and    dh, 0xf7
   8fcd4:       48 89 43 18             mov    QWORD PTR [rbx+0x18], rax
   8fcd8:       89 13                   mov    DWORD PTR [rbx], edx
   8fcda:       0f 11 4b 08             movups XMMWORD PTR [rbx+0x8], xmm1
   8fcde:       85 ed                   test   ebp, ebp
   8fce0:       75 28                   jne    0x8fd0a
   8fce2:       4c 8b 63 08             mov    r12, QWORD PTR [rbx+0x8]
   8fce6:       4c 2b 63 18             sub    r12, QWORD PTR [rbx+0x18]
   8fcea:       48 83 c4 18             add    rsp, 0x18
   8fcee:       4c 89 e0                mov    rax, r12
   8fcf1:       5b                      pop    rbx
   8fcf2:       5d                      pop    rbp
   8fcf3:       41 5c                   pop    r12
   8fcf5:       41 5d                   pop    r13
   8fcf7:       41 5e                   pop    r14
   8fcf9:       41 5f                   pop    r15
   8fcfb:       c3                      ret    
   8fcfc:       0f 1f 40 00             nop    DWORD PTR [rax+0x0]
   8fd00:       48 39 c8                cmp    rax, rcx
   8fd03:       77 c3                   ja     0x8fcc8
   8fd05:       f6 c6 08                test   dh, 0x8
   8fd08:       75 be                   jne    0x8fcc8
   8fd0a:       48 89 df                mov    rdi, rbx
   8fd0d:       49 c7 c4 ff ff ff ff    mov    r12, 0xffffffffffffffff
   8fd14:       e8 37 fe ff ff          call   0x8fb50
   8fd19:       49 89 c7                mov    r15, rax
   8fd1c:       40 f6 c5 01             test   bpl, 0x1
   8fd20:       0f 85 b7 fe ff ff       jne    0x8fbdd
   8fd26:       83 e5 02                and    ebp, 0x2
   8fd29:       74 bf                   je     0x8fcea
   8fd2b:       e9 20 ff ff ff          jmp    0x8fc50
   8fd30:       48 8b 43 38             mov    rax, QWORD PTR [rbx+0x38]
   8fd34:       eb 9b                   jmp    0x8fcd1
   8fd36:       66 2e 0f 1f 84 00 00 00 00 00   cs nop WORD PTR [rax+rax*1+0x0]
   8fd40:       bd 02 00 00 00          mov    ebp, 0x2
   8fd45:       eb 81                   jmp    0x8fcc8
   8fd47:       66 0f 1f 84 00 00 00 00 00      nop    WORD PTR [rax+rax*1+0x0]
   8fd50:       f6 c6 08                test   dh, 0x8
   8fd53:       0f 85 6f ff ff ff       jne    0x8fcc8
   8fd59:       eb 87                   jmp    0x8fce2
   8fd5b:       0f 1f 44 00 00          nop    DWORD PTR [rax+rax*1+0x0]
   8fd60:       bd 01 00 00 00          mov    ebp, 0x1
   8fd65:       e9 5e ff ff ff          jmp    0x8fcc8
   8fd6a:       66 0f 1f 44 00 00       nop    WORD PTR [rax+rax*1+0x0]
   8fd70:       4d 85 ed                test   r13, r13
   8fd73:       0f 88 97 00 00 00       js     0x8fe10
   8fd79:       4d 89 ec                mov    r12, r13
   8fd7c:       e9 9e fe ff ff          jmp    0x8fc1f
   8fd81:       0f 1f 80 00 00 00 00    nop    DWORD PTR [rax+0x0]
   8fd88:       48 ba ff ff ff ff ff ff ff 7f   movabs rdx, 0x7fffffffffffffff
   8fd92:       4c 89 f8                mov    rax, r15
   8fd95:       4d 89 fc                mov    r12, r15
   8fd98:       4c 29 fa                sub    rdx, r15
   8fd9b:       48 f7 d8                neg    rax
   8fd9e:       49 39 d5                cmp    r13, rdx
   8fda1:       0f 9f c2                setg   dl
   8fda4:       e9 de fe ff ff          jmp    0x8fc87
   8fda9:       0f 1f 80 00 00 00 00    nop    DWORD PTR [rax+0x0]
   8fdb0:       31 d2                   xor    edx, edx
   8fdb2:       31 c0                   xor    eax, eax
   8fdb4:       45 31 e4                xor    r12d, r12d
   8fdb7:       e9 cb fe ff ff          jmp    0x8fc87
   8fdbc:       0f 1f 40 00             nop    DWORD PTR [rax+0x0]
   8fdc0:       ba 01 00 00 00          mov    edx, 0x1
   8fdc5:       4c 89 e6                mov    rsi, r12
   8fdc8:       48 89 df                mov    rdi, rbx
   8fdcb:       0f 29 0c 24             movaps XMMWORD PTR [rsp], xmm1
   8fdcf:       e8 fc f9 ff ff          call   0x8f7d0
   8fdd4:       66 0f 6f 0c 24          movdqa xmm1, XMMWORD PTR [rsp]
   8fdd9:       85 c0                   test   eax, eax
   8fddb:       0f 84 55 fe ff ff       je     0x8fc36
   8fde1:       49 c7 c4 ff ff ff ff    mov    r12, 0xffffffffffffffff
   8fde8:       e9 fd fe ff ff          jmp    0x8fcea
   8fded:       0f 1f 00                nop    DWORD PTR [rax]
   8fdf0:       31 d2                   xor    edx, edx
   8fdf2:       4c 89 e6                mov    rsi, r12
   8fdf5:       48 89 df                mov    rdi, rbx
   8fdf8:       e8 d3 f9 ff ff          call   0x8f7d0
   8fdfd:       85 c0                   test   eax, eax
   8fdff:       0f 84 9f fe ff ff       je     0x8fca4
   8fe05:       eb da                   jmp    0x8fde1
   8fe07:       66 0f 1f 84 00 00 00 00 00      nop    WORD PTR [rax+rax*1+0x0]
   8fe10:       48 8b 05 f9 8f 18 00    mov    rax, QWORD PTR [rip+0x188ff9]        # 0x218e10
   8fe17:       49 c7 c4 ff ff ff ff    mov    r12, 0xffffffffffffffff
   8fe1e:       64 c7 00 16 00 00 00    mov    DWORD PTR fs:[rax], 0x16
   8fe25:       e9 c0 fe ff ff          jmp    0x8fcea
================
_IO_wfile_seekoff 0x857d0
   857d0:       f3 0f 1e fa             endbr64 
   857d4:       41 57                   push   r15
   857d6:       49 89 ff                mov    r15, rdi
   857d9:       41 56                   push   r14
   857db:       41 55                   push   r13
   857dd:       41 54                   push   r12
   857df:       55                      push   rbp
   857e0:       53                      push   rbx
   857e1:       48 81 ec d8 00 00 00    sub    rsp, 0xd8
   857e8:       64 48 8b 04 25 28 00 00 00      mov    rax, QWORD PTR fs:0x28
   857f1:       48 89 84 24 c8 00 00 00         mov    QWORD PTR [rsp+0xc8], rax
   857f9:       48 8b 87 a0 00 00 00    mov    rax, QWORD PTR [rdi+0xa0]
   85800:       85 c9                   test   ecx, ecx
   85802:       0f 84 00 04 00 00       je     0x85c08
   85808:       41 89 d4                mov    r12d, edx
   8580b:       48 8b 48 18             mov    rcx, QWORD PTR [rax+0x18]
   8580f:       48 8b 50 20             mov    rdx, QWORD PTR [rax+0x20]
   85813:       48 89 f5                mov    rbp, rsi
   85816:       48 8b 58 08             mov    rbx, QWORD PTR [rax+0x8]
   8581a:       48 39 58 10             cmp    QWORD PTR [rax+0x10], rbx
   8581e:       0f 84 4c 02 00 00       je     0x85a70
   85824:       c7 44 24 08 00 00 00 00         mov    DWORD PTR [rsp+0x8], 0x0
   8582c:       48 39 d1                cmp    rcx, rdx
   8582f:       0f 83 53 02 00 00       jae    0x85a88
   85835:       4c 89 ff                mov    rdi, r15
   85838:       e8 f3 e4 ff ff          call   0x83d30
   8583d:       41 89 c0                mov    r8d, eax
   85840:       b8 ff ff ff ff          mov    eax, 0xffffffff
   85845:       45 85 c0                test   r8d, r8d
   85848:       0f 85 8d 03 00 00       jne    0x85bdb
   8584e:       49 8b 87 a0 00 00 00    mov    rax, QWORD PTR [r15+0xa0]
   85855:       48 83 78 30 00          cmp    QWORD PTR [rax+0x30], 0x0
   8585a:       0f 84 40 02 00 00       je     0x85aa0
   85860:       41 83 fc 01             cmp    r12d, 0x1
   85864:       0f 84 91 02 00 00       je     0x85afb
   8586a:       41 83 fc 02             cmp    r12d, 0x2
   8586e:       75 60                   jne    0x858d0
   85870:       4d 8b b7 d8 00 00 00    mov    r14, QWORD PTR [r15+0xd8]
   85877:       4c 8d 2d 82 01 19 00    lea    r13, [rip+0x190182]        # 0x215a00
   8587e:       48 8d 1d e3 0e 19 00    lea    rbx, [rip+0x190ee3]        # 0x216768
   85885:       4c 29 eb                sub    rbx, r13
   85888:       4c 89 f0                mov    rax, r14
   8588b:       4c 29 e8                sub    rax, r13
   8588e:       48 39 d8                cmp    rax, rbx
   85891:       0f 83 d9 06 00 00       jae    0x85f70
   85897:       48 8d 74 24 30          lea    rsi, [rsp+0x30]
   8589c:       4c 89 ff                mov    rdi, r15
   8589f:       41 ff 96 90 00 00 00    call   QWORD PTR [r14+0x90]
   858a6:       85 c0                   test   eax, eax
   858a8:       0f 85 ba 02 00 00       jne    0x85b68
   858ae:       8b 44 24 48             mov    eax, DWORD PTR [rsp+0x48]
   858b2:       25 00 f0 00 00          and    eax, 0xf000
   858b7:       3d 00 80 00 00          cmp    eax, 0x8000
   858bc:       0f 85 a6 02 00 00       jne    0x85b68
   858c2:       48 03 6c 24 60          add    rbp, QWORD PTR [rsp+0x60]
   858c7:       45 31 e4                xor    r12d, r12d
   858ca:       66 0f 1f 44 00 00       nop    WORD PTR [rax+rax*1+0x0]
   858d0:       4c 89 ff                mov    rdi, r15
   858d3:       e8 e8 ea ff ff          call   0x843c0
   858d8:       49 8b 87 90 00 00 00    mov    rax, QWORD PTR [r15+0x90]
   858df:       41 8b 17                mov    edx, DWORD PTR [r15]
   858e2:       48 83 f8 ff             cmp    rax, 0xffffffffffffffff
   858e6:       74 40                   je     0x85928
   858e8:       49 83 7f 18 00          cmp    QWORD PTR [r15+0x18], 0x0
   858ed:       74 39                   je     0x85928
   858ef:       f6 c6 01                test   dh, 0x1
   858f2:       75 34                   jne    0x85928
   858f4:       f3 41 0f 6f 47 30       movdqu xmm0, XMMWORD PTR [r15+0x30]
   858fa:       0f 12 e8                movhlps xmm5, xmm0
   858fd:       66 0f 6f c8             movdqa xmm1, xmm0
   85901:       66 48 0f 7e ee          movq   rsi, xmm5
   85906:       49 2b 77 10             sub    rsi, QWORD PTR [r15+0x10]
   8590a:       66 0f 6d c8             punpckhqdq xmm1, xmm0
   8590e:       66 48 0f 7e e9          movq   rcx, xmm5
   85913:       48 01 c6                add    rsi, rax
   85916:       48 39 e8                cmp    rax, rbp
   85919:       7e 0d                   jle    0x85928
   8591b:       48 39 f5                cmp    rbp, rsi
   8591e:       0f 8d 9c 05 00 00       jge    0x85ec0
   85924:       0f 1f 40 00             nop    DWORD PTR [rax+0x0]
   85928:       4c 8d 2d d1 00 19 00    lea    r13, [rip+0x1900d1]        # 0x215a00
   8592f:       48 8d 1d 32 0e 19 00    lea    rbx, [rip+0x190e32]        # 0x216768
   85936:       4c 29 eb                sub    rbx, r13
   85939:       83 e2 04                and    edx, 0x4
   8593c:       0f 85 26 02 00 00       jne    0x85b68
   85942:       49 8b 57 38             mov    rdx, QWORD PTR [r15+0x38]
   85946:       49 8b 47 40             mov    rax, QWORD PTR [r15+0x40]
   8594a:       48 89 e9                mov    rcx, rbp
   8594d:       48 89 d6                mov    rsi, rdx
   85950:       48 29 c6                sub    rsi, rax
   85953:       48 29 d0                sub    rax, rdx
   85956:       48 21 ee                and    rsi, rbp
   85959:       48 29 f1                sub    rcx, rsi
   8595c:       48 39 c8                cmp    rax, rcx
   8595f:       0f 8c bb 03 00 00       jl     0x85d20
   85965:       4d 8b b7 d8 00 00 00    mov    r14, QWORD PTR [r15+0xd8]
   8596c:       4c 89 f0                mov    rax, r14
   8596f:       4c 29 e8                sub    rax, r13
   85972:       48 39 d8                cmp    rax, rbx
   85975:       0f 83 d5 05 00 00       jae    0x85f50
   8597b:       48 89 4c 24 10          mov    QWORD PTR [rsp+0x10], rcx
   85980:       31 d2                   xor    edx, edx
   85982:       4c 89 ff                mov    rdi, r15
   85985:       41 ff 96 80 00 00 00    call   QWORD PTR [r14+0x80]
   8598c:       49 89 c6                mov    r14, rax
   8598f:       48 85 c0                test   rax, rax
   85992:       0f 88 79 03 00 00       js     0x85d11
   85998:       48 8b 4c 24 10          mov    rcx, QWORD PTR [rsp+0x10]
   8599d:       48 85 c9                test   rcx, rcx
   859a0:       0f 84 1a 04 00 00       je     0x85dc0
   859a6:       49 8b 87 d8 00 00 00    mov    rax, QWORD PTR [r15+0xd8]
   859ad:       48 89 c2                mov    rdx, rax
   859b0:       4c 29 ea                sub    rdx, r13
   859b3:       48 39 da                cmp    rdx, rbx
   859b6:       0f 83 e4 04 00 00       jae    0x85ea0
   859bc:       8b 7c 24 08             mov    edi, DWORD PTR [rsp+0x8]
   859c0:       48 8b 40 70             mov    rax, QWORD PTR [rax+0x70]
   859c4:       48 89 ca                mov    rdx, rcx
   859c7:       49 8b 77 38             mov    rsi, QWORD PTR [r15+0x38]
   859cb:       85 ff                   test   edi, edi
   859cd:       75 07                   jne    0x859d6
   859cf:       49 8b 57 40             mov    rdx, QWORD PTR [r15+0x40]
   859d3:       48 29 f2                sub    rdx, rsi
   859d6:       48 89 4c 24 08          mov    QWORD PTR [rsp+0x8], rcx
   859db:       4c 89 ff                mov    rdi, r15
   859de:       ff d0                   call   rax
   859e0:       48 8b 4c 24 08          mov    rcx, QWORD PTR [rsp+0x8]
   859e5:       48 89 c2                mov    rdx, rax
   859e8:       48 39 c1                cmp    rcx, rax
   859eb:       0f 8f 3f 03 00 00       jg     0x85d30
   859f1:       48 89 44 24 08          mov    QWORD PTR [rsp+0x8], rax
   859f6:       f3 41 0f 6f 47 38       movdqu xmm0, XMMWORD PTR [r15+0x38]
   859fc:       49 8b 87 a0 00 00 00    mov    rax, QWORD PTR [r15+0xa0]
   85a03:       66 48 0f 6e c9          movq   xmm1, rcx
   85a08:       4c 89 ff                mov    rdi, r15
   85a0b:       0f 16 4c 24 08          movhps xmm1, QWORD PTR [rsp+0x8]
   85a10:       be 01 00 00 00          mov    esi, 0x1
   85a15:       48 89 54 24 10          mov    QWORD PTR [rsp+0x10], rdx
   85a1a:       66 0f 6c c0             punpcklqdq xmm0, xmm0
   85a1e:       41 0f 11 47 18          movups XMMWORD PTR [r15+0x18], xmm0
   85a23:       66 0f d4 c8             paddq  xmm1, xmm0
   85a27:       41 0f 11 47 28          movups XMMWORD PTR [r15+0x28], xmm0
   85a2c:       f3 0f 7e 40 30          movq   xmm0, QWORD PTR [rax+0x30]
   85a31:       41 0f 11 4f 08          movups XMMWORD PTR [r15+0x8], xmm1
   85a36:       66 0f 6c c0             punpcklqdq xmm0, xmm0
   85a3a:       0f 11 00                movups XMMWORD PTR [rax], xmm0
   85a3d:       0f 11 40 10             movups XMMWORD PTR [rax+0x10], xmm0
   85a41:       0f 11 40 20             movups XMMWORD PTR [rax+0x20], xmm0
   85a45:       e8 96 fc ff ff          call   0x856e0
   85a4a:       85 c0                   test   eax, eax
   85a4c:       0f 85 16 01 00 00       jne    0x85b68
   85a52:       48 8b 54 24 10          mov    rdx, QWORD PTR [rsp+0x10]
   85a57:       41 83 27 ef             and    DWORD PTR [r15], 0xffffffef
   85a5b:       4a 8d 04 32             lea    rax, [rdx+r14*1]
   85a5f:       49 89 87 90 00 00 00    mov    QWORD PTR [r15+0x90], rax
   85a66:       48 89 e8                mov    rax, rbp
   85a69:       e9 6d 01 00 00          jmp    0x85bdb
   85a6e:       66 90                   xchg   ax, ax
   85a70:       48 39 d1                cmp    rcx, rdx
   85a73:       0f 85 ab fd ff ff       jne    0x85824
   85a79:       c7 44 24 08 01 00 00 00         mov    DWORD PTR [rsp+0x8], 0x1
   85a81:       0f 1f 80 00 00 00 00    nop    DWORD PTR [rax+0x0]
   85a88:       41 f7 07 00 08 00 00    test   DWORD PTR [r15], 0x800
   85a8f:       0f 85 a0 fd ff ff       jne    0x85835
   85a95:       48 83 78 30 00          cmp    QWORD PTR [rax+0x30], 0x0
   85a9a:       0f 85 c0 fd ff ff       jne    0x85860
   85aa0:       48 8b 78 10             mov    rdi, QWORD PTR [rax+0x10]
   85aa4:       48 85 ff                test   rdi, rdi
   85aa7:       74 0c                   je     0x85ab5
   85aa9:       e8 c2 28 fa ff          call   0x28370
   85aae:       41 81 27 ff fe ff ff    and    DWORD PTR [r15], 0xfffffeff
   85ab5:       4c 89 ff                mov    rdi, r15
   85ab8:       e8 53 82 00 00          call   0x8dd10
   85abd:       f3 41 0f 6f 47 38       movdqu xmm0, XMMWORD PTR [r15+0x38]
   85ac3:       49 8b 87 a0 00 00 00    mov    rax, QWORD PTR [r15+0xa0]
   85aca:       66 0f 6c c0             punpcklqdq xmm0, xmm0
   85ace:       41 0f 11 47 08          movups XMMWORD PTR [r15+0x8], xmm0
   85ad3:       41 0f 11 47 18          movups XMMWORD PTR [r15+0x18], xmm0
   85ad8:       41 0f 11 47 28          movups XMMWORD PTR [r15+0x28], xmm0
   85add:       f3 0f 7e 40 30          movq   xmm0, QWORD PTR [rax+0x30]
   85ae2:       66 0f 6c c0             punpcklqdq xmm0, xmm0
   85ae6:       0f 11 00                movups XMMWORD PTR [rax], xmm0
   85ae9:       0f 11 40 10             movups XMMWORD PTR [rax+0x10], xmm0
   85aed:       0f 11 40 20             movups XMMWORD PTR [rax+0x20], xmm0
   85af1:       41 83 fc 01             cmp    r12d, 0x1
   85af5:       0f 85 6f fd ff ff       jne    0x8586a
   85afb:       4d 8b af 98 00 00 00    mov    r13, QWORD PTR [r15+0x98]
   85b02:       4c 89 ef                mov    rdi, r13
   85b05:       e8 76 13 00 00          call   0x86e80
   85b0a:       85 c0                   test   eax, eax
   85b0c:       0f 8e 3e 02 00 00       jle    0x85d50
   85b12:       49 8b 8f a0 00 00 00    mov    rcx, QWORD PTR [r15+0xa0]
   85b19:       48 98                   cdqe   
   85b1b:       48 8b 51 08             mov    rdx, QWORD PTR [rcx+0x8]
   85b1f:       48 2b 11                sub    rdx, QWORD PTR [rcx]
   85b22:       48 c1 fa 02             sar    rdx, 0x2
   85b26:       48 0f af c2             imul   rax, rdx
   85b2a:       48 29 c5                sub    rbp, rax
   85b2d:       49 8b 47 10             mov    rax, QWORD PTR [r15+0x10]
   85b31:       49 2b 47 08             sub    rax, QWORD PTR [r15+0x8]
   85b35:       48 29 c5                sub    rbp, rax
   85b38:       49 8b 87 90 00 00 00    mov    rax, QWORD PTR [r15+0x90]
   85b3f:       48 83 f8 ff             cmp    rax, 0xffffffffffffffff
   85b43:       74 0b                   je     0x85b50
   85b45:       48 01 c5                add    rbp, rax
   85b48:       45 31 e4                xor    r12d, r12d
   85b4b:       e9 80 fd ff ff          jmp    0x858d0
   85b50:       4c 8d 2d a9 fe 18 00    lea    r13, [rip+0x18fea9]        # 0x215a00
   85b57:       48 8d 1d 0a 0c 19 00    lea    rbx, [rip+0x190c0a]        # 0x216768
   85b5e:       4c 29 eb                sub    rbx, r13
   85b61:       0f 1f 80 00 00 00 00    nop    DWORD PTR [rax+0x0]
   85b68:       4c 89 ff                mov    rdi, r15
   85b6b:       e8 40 97 00 00          call   0x8f2b0
   85b70:       4d 8b b7 d8 00 00 00    mov    r14, QWORD PTR [r15+0xd8]
   85b77:       4c 89 f0                mov    rax, r14
   85b7a:       4c 29 e8                sub    rax, r13
   85b7d:       48 39 d8                cmp    rax, rbx
   85b80:       0f 83 ea 02 00 00       jae    0x85e70
   85b86:       44 89 e2                mov    edx, r12d
   85b89:       48 89 ee                mov    rsi, rbp
   85b8c:       4c 89 ff                mov    rdi, r15
   85b8f:       41 ff 96 80 00 00 00    call   QWORD PTR [r14+0x80]
   85b96:       48 83 f8 ff             cmp    rax, 0xffffffffffffffff
   85b9a:       74 3f                   je     0x85bdb
   85b9c:       f3 41 0f 6f 47 38       movdqu xmm0, XMMWORD PTR [r15+0x38]
   85ba2:       49 8b 97 a0 00 00 00    mov    rdx, QWORD PTR [r15+0xa0]
   85ba9:       49 89 87 90 00 00 00    mov    QWORD PTR [r15+0x90], rax
   85bb0:       41 83 27 ef             and    DWORD PTR [r15], 0xffffffef
   85bb4:       66 0f 6c c0             punpcklqdq xmm0, xmm0
   85bb8:       41 0f 11 47 08          movups XMMWORD PTR [r15+0x8], xmm0
   85bbd:       41 0f 11 47 18          movups XMMWORD PTR [r15+0x18], xmm0
   85bc2:       41 0f 11 47 28          movups XMMWORD PTR [r15+0x28], xmm0
   85bc7:       f3 0f 7e 42 30          movq   xmm0, QWORD PTR [rdx+0x30]
   85bcc:       66 0f 6c c0             punpcklqdq xmm0, xmm0
   85bd0:       0f 11 02                movups XMMWORD PTR [rdx], xmm0
   85bd3:       0f 11 42 10             movups XMMWORD PTR [rdx+0x10], xmm0
   85bd7:       0f 11 42 20             movups XMMWORD PTR [rdx+0x20], xmm0
   85bdb:       48 8b 94 24 c8 00 00 00         mov    rdx, QWORD PTR [rsp+0xc8]
   85be3:       64 48 2b 14 25 28 00 00 00      sub    rdx, QWORD PTR fs:0x28
   85bec:       0f 85 77 04 00 00       jne    0x86069
   85bf2:       48 81 c4 d8 00 00 00    add    rsp, 0xd8
   85bf9:       5b                      pop    rbx
   85bfa:       5d                      pop    rbp
   85bfb:       41 5c                   pop    r12
   85bfd:       41 5d                   pop    r13
   85bff:       41 5e                   pop    r14
   85c01:       41 5f                   pop    r15
   85c03:       c3                      ret    
   85c04:       0f 1f 40 00             nop    DWORD PTR [rax+0x0]
   85c08:       48 83 78 30 00          cmp    QWORD PTR [rax+0x30], 0x0
   85c0d:       0f 84 9d 01 00 00       je     0x85db0
   85c13:       8b 17                   mov    edx, DWORD PTR [rdi]
   85c15:       48 8b 68 20             mov    rbp, QWORD PTR [rax+0x20]
   85c19:       48 8b 58 18             mov    rbx, QWORD PTR [rax+0x18]
   85c1d:       89 d7                   mov    edi, edx
   85c1f:       81 e7 00 10 00 00       and    edi, 0x1000
   85c25:       89 7c 24 08             mov    DWORD PTR [rsp+0x8], edi
   85c29:       48 39 dd                cmp    rbp, rbx
   85c2c:       76 57                   jbe    0x85c85
   85c2e:       85 ff                   test   edi, edi
   85c30:       74 53                   je     0x85c85
   85c32:       4d 8b af d8 00 00 00    mov    r13, QWORD PTR [r15+0xd8]
   85c39:       48 8d 15 c0 fd 18 00    lea    rdx, [rip+0x18fdc0]        # 0x215a00
   85c40:       48 8d 05 21 0b 19 00    lea    rax, [rip+0x190b21]        # 0x216768
   85c47:       48 29 d0                sub    rax, rdx
   85c4a:       4c 89 e9                mov    rcx, r13
   85c4d:       48 29 d1                sub    rcx, rdx
   85c50:       48 39 c8                cmp    rax, rcx
   85c53:       0f 86 d9 03 00 00       jbe    0x86032
   85c59:       31 f6                   xor    esi, esi
   85c5b:       ba 02 00 00 00          mov    edx, 0x2
   85c60:       4c 89 ff                mov    rdi, r15
   85c63:       41 ff 95 80 00 00 00    call   QWORD PTR [r13+0x80]
   85c6a:       48 83 f8 ff             cmp    rax, 0xffffffffffffffff
   85c6e:       0f 84 9d 00 00 00       je     0x85d11
   85c74:       49 89 87 90 00 00 00    mov    QWORD PTR [r15+0x90], rax
   85c7b:       41 8b 17                mov    edx, DWORD PTR [r15]
   85c7e:       49 8b 87 a0 00 00 00    mov    rax, QWORD PTR [r15+0xa0]
   85c85:       4c 8b 28                mov    r13, QWORD PTR [rax]
   85c88:       4c 8b 70 08             mov    r14, QWORD PTR [rax+0x8]
   85c8c:       80 e6 01                and    dh, 0x1
   85c8f:       0f 84 3b 01 00 00       je     0x85dd0
   85c95:       4d 39 ee                cmp    r14, r13
   85c98:       77 69                   ja     0x85d03
   85c9a:       4c 8b 68 40             mov    r13, QWORD PTR [rax+0x40]
   85c9e:       4c 8b 70 50             mov    r14, QWORD PTR [rax+0x50]
   85ca2:       4c 89 6c 24 10          mov    QWORD PTR [rsp+0x10], r13
   85ca7:       4d 8b a7 98 00 00 00    mov    r12, QWORD PTR [r15+0x98]
   85cae:       4c 89 e7                mov    rdi, r12
   85cb1:       e8 ca 11 00 00          call   0x86e80
   85cb6:       48 63 d0                movsxd rdx, eax
   85cb9:       48 39 dd                cmp    rbp, rbx
   85cbc:       0f 87 1e 01 00 00       ja     0x85de0
   85cc2:       49 8b 4f 10             mov    rcx, QWORD PTR [r15+0x10]
   85cc6:       85 d2                   test   edx, edx
   85cc8:       0f 8e 22 03 00 00       jle    0x85ff0
   85cce:       4c 89 f0                mov    rax, r14
   85cd1:       49 2b 4f 08             sub    rcx, QWORD PTR [r15+0x8]
   85cd5:       4c 29 e8                sub    rax, r13
   85cd8:       48 c1 f8 02             sar    rax, 0x2
   85cdc:       48 0f af c2             imul   rax, rdx
   85ce0:       48 f7 d8                neg    rax
   85ce3:       48 29 c8                sub    rax, rcx
   85ce6:       48 89 c3                mov    rbx, rax
   85ce9:       49 8b 87 90 00 00 00    mov    rax, QWORD PTR [r15+0x90]
   85cf0:       48 83 f8 ff             cmp    rax, 0xffffffffffffffff
   85cf4:       0f 84 26 01 00 00       je     0x85e20
   85cfa:       48 01 d8                add    rax, rbx
   85cfd:       0f 89 d8 fe ff ff       jns    0x85bdb
   85d03:       48 8b 05 06 31 19 00    mov    rax, QWORD PTR [rip+0x193106]        # 0x218e10
   85d0a:       64 c7 00 16 00 00 00    mov    DWORD PTR fs:[rax], 0x16
   85d11:       48 c7 c0 ff ff ff ff    mov    rax, 0xffffffffffffffff
   85d18:       e9 be fe ff ff          jmp    0x85bdb
   85d1d:       0f 1f 00                nop    DWORD PTR [rax]
   85d20:       48 89 ee                mov    rsi, rbp
   85d23:       31 c9                   xor    ecx, ecx
   85d25:       e9 3b fc ff ff          jmp    0x85965
   85d2a:       66 0f 1f 44 00 00       nop    WORD PTR [rax+rax*1+0x0]
   85d30:       48 83 f8 ff             cmp    rax, 0xffffffffffffffff
   85d34:       0f 84 56 01 00 00       je     0x85e90
   85d3a:       48 29 c1                sub    rcx, rax
   85d3d:       41 bc 01 00 00 00       mov    r12d, 0x1
   85d43:       48 89 cd                mov    rbp, rcx
   85d46:       e9 1d fe ff ff          jmp    0x85b68
   85d4b:       0f 1f 44 00 00          nop    DWORD PTR [rax+rax*1+0x0]
   85d50:       49 8b b7 a0 00 00 00    mov    rsi, QWORD PTR [r15+0xa0]
   85d57:       49 8b 4f 10             mov    rcx, QWORD PTR [r15+0x10]
   85d5b:       4c 89 ef                mov    rdi, r13
   85d5e:       49 8b 57 18             mov    rdx, QWORD PTR [r15+0x18]
   85d62:       48 8b 46 60             mov    rax, QWORD PTR [rsi+0x60]
   85d66:       4c 8b 06                mov    r8, QWORD PTR [rsi]
   85d69:       48 83 c6 58             add    rsi, 0x58
   85d6d:       4c 2b 46 b8             sub    r8, QWORD PTR [rsi-0x48]
   85d71:       48 89 06                mov    QWORD PTR [rsi], rax
   85d74:       49 c1 f8 02             sar    r8, 0x2
   85d78:       e8 33 11 00 00          call   0x86eb0
   85d7d:       49 8b 4f 18             mov    rcx, QWORD PTR [r15+0x18]
   85d81:       48 98                   cdqe   
   85d83:       48 8d 14 01             lea    rdx, [rcx+rax*1]
   85d87:       49 89 57 08             mov    QWORD PTR [r15+0x8], rdx
   85d8b:       49 8b 97 a0 00 00 00    mov    rdx, QWORD PTR [r15+0xa0]
   85d92:       48 8b 32                mov    rsi, QWORD PTR [rdx]
   85d95:       48 89 72 08             mov    QWORD PTR [rdx+0x8], rsi
   85d99:       49 8b 57 10             mov    rdx, QWORD PTR [r15+0x10]
   85d9d:       48 29 ca                sub    rdx, rcx
   85da0:       48 29 c2                sub    rdx, rax
   85da3:       48 29 d5                sub    rbp, rdx
   85da6:       e9 8d fd ff ff          jmp    0x85b38
   85dab:       0f 1f 44 00 00          nop    DWORD PTR [rax+rax*1+0x0]
   85db0:       31 db                   xor    ebx, ebx
   85db2:       e9 32 ff ff ff          jmp    0x85ce9
   85db7:       66 0f 1f 84 00 00 00 00 00      nop    WORD PTR [rax+rax*1+0x0]
   85dc0:       48 c7 44 24 08 00 00 00 00      mov    QWORD PTR [rsp+0x8], 0x0
   85dc9:       31 d2                   xor    edx, edx
   85dcb:       e9 26 fc ff ff          jmp    0x859f6
   85dd0:       48 8b 40 10             mov    rax, QWORD PTR [rax+0x10]
   85dd4:       48 89 44 24 10          mov    QWORD PTR [rsp+0x10], rax
   85dd9:       e9 c9 fe ff ff          jmp    0x85ca7
   85dde:       66 90                   xchg   ax, ax
   85de0:       49 8b af a0 00 00 00    mov    rbp, QWORD PTR [r15+0xa0]
   85de7:       48 8b 4d 20             mov    rcx, QWORD PTR [rbp+0x20]
   85deb:       4c 8b 6d 18             mov    r13, QWORD PTR [rbp+0x18]
   85def:       48 89 cb                mov    rbx, rcx
   85df2:       4c 29 eb                sub    rbx, r13
   85df5:       85 d2                   test   edx, edx
   85df7:       0f 8e 83 01 00 00       jle    0x85f80
   85dfd:       48 c1 fb 02             sar    rbx, 0x2
   85e01:       48 0f af da             imul   rbx, rdx
   85e05:       44 8b 44 24 08          mov    r8d, DWORD PTR [rsp+0x8]
   85e0a:       49 8b 47 28             mov    rax, QWORD PTR [r15+0x28]
   85e0e:       45 85 c0                test   r8d, r8d
   85e11:       74 6d                   je     0x85e80
   85e13:       49 2b 47 20             sub    rax, QWORD PTR [r15+0x20]
   85e17:       48 01 c3                add    rbx, rax
   85e1a:       e9 ca fe ff ff          jmp    0x85ce9
   85e1f:       90                      nop
   85e20:       49 8b af d8 00 00 00    mov    rbp, QWORD PTR [r15+0xd8]
   85e27:       48 8d 15 d2 fb 18 00    lea    rdx, [rip+0x18fbd2]        # 0x215a00
   85e2e:       48 8d 05 33 09 19 00    lea    rax, [rip+0x190933]        # 0x216768
   85e35:       48 29 d0                sub    rax, rdx
   85e38:       48 89 e9                mov    rcx, rbp
   85e3b:       48 29 d1                sub    rcx, rdx
   85e3e:       48 39 c8                cmp    rax, rcx
   85e41:       0f 86 f5 01 00 00       jbe    0x8603c
   85e47:       31 f6                   xor    esi, esi
   85e49:       ba 01 00 00 00          mov    edx, 0x1
   85e4e:       4c 89 ff                mov    rdi, r15
   85e51:       ff 95 80 00 00 00       call   QWORD PTR [rbp+0x80]
   85e57:       48 83 f8 ff             cmp    rax, 0xffffffffffffffff
   85e5b:       0f 85 99 fe ff ff       jne    0x85cfa
   85e61:       e9 ab fe ff ff          jmp    0x85d11
   85e66:       66 2e 0f 1f 84 00 00 00 00 00   cs nop WORD PTR [rax+rax*1+0x0]
   85e70:       e8 fb 40 00 00          call   0x89f70
   85e75:       e9 0c fd ff ff          jmp    0x85b86
   85e7a:       66 0f 1f 44 00 00       nop    WORD PTR [rax+rax*1+0x0]
   85e80:       49 2b 47 10             sub    rax, QWORD PTR [r15+0x10]
   85e84:       48 01 c3                add    rbx, rax
   85e87:       e9 5d fe ff ff          jmp    0x85ce9
   85e8c:       0f 1f 40 00             nop    DWORD PTR [rax+0x0]
   85e90:       48 89 cd                mov    rbp, rcx
   85e93:       41 bc 01 00 00 00       mov    r12d, 0x1
   85e99:       e9 ca fc ff ff          jmp    0x85b68
   85e9e:       66 90                   xchg   ax, ax
   85ea0:       48 89 4c 24 18          mov    QWORD PTR [rsp+0x18], rcx
   85ea5:       48 89 44 24 10          mov    QWORD PTR [rsp+0x10], rax
   85eaa:       e8 c1 40 00 00          call   0x89f70
   85eaf:       48 8b 4c 24 18          mov    rcx, QWORD PTR [rsp+0x18]
   85eb4:       48 8b 44 24 10          mov    rax, QWORD PTR [rsp+0x10]
   85eb9:       e9 fe fa ff ff          jmp    0x859bc
   85ebe:       66 90                   xchg   ax, ax
   85ec0:       48 89 e8                mov    rax, rbp
   85ec3:       41 0f 11 4f 18          movups XMMWORD PTR [r15+0x18], xmm1
   85ec8:       4c 89 ff                mov    rdi, r15
   85ecb:       48 29 f0                sub    rax, rsi
   85ece:       41 0f 11 4f 28          movups XMMWORD PTR [r15+0x28], xmm1
   85ed3:       31 f6                   xor    esi, esi
   85ed5:       48 01 c1                add    rcx, rax
   85ed8:       49 8b 87 a0 00 00 00    mov    rax, QWORD PTR [r15+0xa0]
   85edf:       49 89 4f 08             mov    QWORD PTR [r15+0x8], rcx
   85ee3:       f3 0f 7e 40 30          movq   xmm0, QWORD PTR [rax+0x30]
   85ee8:       66 0f 6c c0             punpcklqdq xmm0, xmm0
   85eec:       0f 11 00                movups XMMWORD PTR [rax], xmm0
   85eef:       0f 11 40 10             movups XMMWORD PTR [rax+0x10], xmm0
   85ef3:       0f 11 40 20             movups XMMWORD PTR [rax+0x20], xmm0
   85ef7:       e8 e4 f7 ff ff          call   0x856e0
   85efc:       85 c0                   test   eax, eax
   85efe:       0f 85 4c fc ff ff       jne    0x85b50
   85f04:       49 8b b7 90 00 00 00    mov    rsi, QWORD PTR [r15+0x90]
   85f0b:       41 83 27 ef             and    DWORD PTR [r15], 0xffffffef
   85f0f:       48 85 f6                test   rsi, rsi
   85f12:       78 32                   js     0x85f46
   85f14:       49 8b 9f d8 00 00 00    mov    rbx, QWORD PTR [r15+0xd8]
   85f1b:       48 8d 15 de fa 18 00    lea    rdx, [rip+0x18fade]        # 0x215a00
   85f22:       48 8d 05 3f 08 19 00    lea    rax, [rip+0x19083f]        # 0x216768
   85f29:       48 29 d0                sub    rax, rdx
   85f2c:       48 89 d9                mov    rcx, rbx
   85f2f:       48 29 d1                sub    rcx, rdx
   85f32:       48 39 c8                cmp    rax, rcx
   85f35:       0f 86 1d 01 00 00       jbe    0x86058
   85f3b:       31 d2                   xor    edx, edx
   85f3d:       4c 89 ff                mov    rdi, r15
   85f40:       ff 93 80 00 00 00       call   QWORD PTR [rbx+0x80]
   85f46:       48 89 e8                mov    rax, rbp
   85f49:       e9 8d fc ff ff          jmp    0x85bdb
   85f4e:       66 90                   xchg   ax, ax
   85f50:       48 89 74 24 18          mov    QWORD PTR [rsp+0x18], rsi
   85f55:       48 89 4c 24 10          mov    QWORD PTR [rsp+0x10], rcx
   85f5a:       e8 11 40 00 00          call   0x89f70
   85f5f:       48 8b 74 24 18          mov    rsi, QWORD PTR [rsp+0x18]
   85f64:       48 8b 4c 24 10          mov    rcx, QWORD PTR [rsp+0x10]
   85f69:       e9 0d fa ff ff          jmp    0x8597b
   85f6e:       66 90                   xchg   ax, ax
   85f70:       e8 fb 3f 00 00          call   0x89f70
   85f75:       e9 1d f9 ff ff          jmp    0x85897
   85f7a:       66 0f 1f 44 00 00       nop    WORD PTR [rax+rax*1+0x0]
   85f80:       48 89 df                mov    rdi, rbx
   85f83:       48 89 4c 24 10          mov    QWORD PTR [rsp+0x10], rcx
   85f88:       e8 f3 23 fa ff          call   0x28380
   85f8d:       4c 89 6c 24 28          mov    QWORD PTR [rsp+0x28], r13
   85f92:       4c 89 ea                mov    rdx, r13
   85f95:       4c 89 e7                mov    rdi, r12
   85f98:       48 89 44 24 20          mov    QWORD PTR [rsp+0x20], rax
   85f9d:       49 89 c6                mov    r14, rax
   85fa0:       48 8b 45 60             mov    rax, QWORD PTR [rbp+0x60]
   85fa4:       48 8d 74 24 30          lea    rsi, [rsp+0x30]
   85fa9:       4c 01 f3                add    rbx, r14
   85fac:       4d 89 f1                mov    r9, r14
   85faf:       48 89 44 24 30          mov    QWORD PTR [rsp+0x30], rax
   85fb4:       48 8d 44 24 20          lea    rax, [rsp+0x20]
   85fb9:       50                      push   rax
   85fba:       53                      push   rbx
   85fbb:       48 8b 4c 24 20          mov    rcx, QWORD PTR [rsp+0x20]
   85fc0:       4c 8d 44 24 38          lea    r8, [rsp+0x38]
   85fc5:       e8 b6 0c 00 00          call   0x86c80
   85fca:       41 59                   pop    r9
   85fcc:       41 5a                   pop    r10
   85fce:       85 c0                   test   eax, eax
   85fd0:       75 74                   jne    0x86046
   85fd2:       48 8b 5c 24 20          mov    rbx, QWORD PTR [rsp+0x20]
   85fd7:       4c 89 f7                mov    rdi, r14
   85fda:       4c 29 f3                sub    rbx, r14
   85fdd:       e8 8e 23 fa ff          call   0x28370
   85fe2:       e9 1e fe ff ff          jmp    0x85e05
   85fe7:       66 0f 1f 84 00 00 00 00 00      nop    WORD PTR [rax+rax*1+0x0]
   85ff0:       49 8b 57 18             mov    rdx, QWORD PTR [r15+0x18]
   85ff4:       4d 89 e8                mov    r8, r13
   85ff7:       4c 2b 44 24 10          sub    r8, QWORD PTR [rsp+0x10]
   85ffc:       4c 89 e7                mov    rdi, r12
   85fff:       49 8b 87 a0 00 00 00    mov    rax, QWORD PTR [r15+0xa0]
   86006:       48 8d 74 24 30          lea    rsi, [rsp+0x30]
   8600b:       49 c1 f8 02             sar    r8, 0x2
   8600f:       48 8b 40 60             mov    rax, QWORD PTR [rax+0x60]
   86013:       48 89 44 24 30          mov    QWORD PTR [rsp+0x30], rax
   86018:       e8 93 0e 00 00          call   0x86eb0
   8601d:       49 8b 57 10             mov    rdx, QWORD PTR [r15+0x10]
   86021:       49 2b 57 18             sub    rdx, QWORD PTR [r15+0x18]
   86025:       48 98                   cdqe   
   86027:       48 29 d0                sub    rax, rdx
   8602a:       48 89 c3                mov    rbx, rax
   8602d:       e9 b7 fc ff ff          jmp    0x85ce9
   86032:       e8 39 3f 00 00          call   0x89f70
   86037:       e9 1d fc ff ff          jmp    0x85c59
   8603c:       e8 2f 3f 00 00          call   0x89f70
   86041:       e9 01 fe ff ff          jmp    0x85e47
   86046:       4c 89 f7                mov    rdi, r14
   86049:       e8 22 23 fa ff          call   0x28370
   8604e:       b8 ff ff ff ff          mov    eax, 0xffffffff
   86053:       e9 83 fb ff ff          jmp    0x85bdb
   86058:       e8 13 3f 00 00          call   0x89f70
   8605d:       49 8b b7 90 00 00 00    mov    rsi, QWORD PTR [r15+0x90]
   86064:       e9 d2 fe ff ff          jmp    0x85f3b
   86069:       e8 b2 06 0b 00          call   0x136720
================
_IO_wfile_seekoff 0x857d0
   857d0:       f3 0f 1e fa             endbr64 
   857d4:       41 57                   push   r15
   857d6:       49 89 ff                mov    r15, rdi
   857d9:       41 56                   push   r14
   857db:       41 55                   push   r13
   857dd:       41 54                   push   r12
   857df:       55                      push   rbp
   857e0:       53                      push   rbx
   857e1:       48 81 ec d8 00 00 00    sub    rsp, 0xd8
   857e8:       64 48 8b 04 25 28 00 00 00      mov    rax, QWORD PTR fs:0x28
   857f1:       48 89 84 24 c8 00 00 00         mov    QWORD PTR [rsp+0xc8], rax
   857f9:       48 8b 87 a0 00 00 00    mov    rax, QWORD PTR [rdi+0xa0]
   85800:       85 c9                   test   ecx, ecx
   85802:       0f 84 00 04 00 00       je     0x85c08
   85808:       41 89 d4                mov    r12d, edx
   8580b:       48 8b 48 18             mov    rcx, QWORD PTR [rax+0x18]
   8580f:       48 8b 50 20             mov    rdx, QWORD PTR [rax+0x20]
   85813:       48 89 f5                mov    rbp, rsi
   85816:       48 8b 58 08             mov    rbx, QWORD PTR [rax+0x8]
   8581a:       48 39 58 10             cmp    QWORD PTR [rax+0x10], rbx
   8581e:       0f 84 4c 02 00 00       je     0x85a70
   85824:       c7 44 24 08 00 00 00 00         mov    DWORD PTR [rsp+0x8], 0x0
   8582c:       48 39 d1                cmp    rcx, rdx
   8582f:       0f 83 53 02 00 00       jae    0x85a88
   85835:       4c 89 ff                mov    rdi, r15
   85838:       e8 f3 e4 ff ff          call   0x83d30
   8583d:       41 89 c0                mov    r8d, eax
   85840:       b8 ff ff ff ff          mov    eax, 0xffffffff
   85845:       45 85 c0                test   r8d, r8d
   85848:       0f 85 8d 03 00 00       jne    0x85bdb
   8584e:       49 8b 87 a0 00 00 00    mov    rax, QWORD PTR [r15+0xa0]
   85855:       48 83 78 30 00          cmp    QWORD PTR [rax+0x30], 0x0
   8585a:       0f 84 40 02 00 00       je     0x85aa0
   85860:       41 83 fc 01             cmp    r12d, 0x1
   85864:       0f 84 91 02 00 00       je     0x85afb
   8586a:       41 83 fc 02             cmp    r12d, 0x2
   8586e:       75 60                   jne    0x858d0
   85870:       4d 8b b7 d8 00 00 00    mov    r14, QWORD PTR [r15+0xd8]
   85877:       4c 8d 2d 82 01 19 00    lea    r13, [rip+0x190182]        # 0x215a00
   8587e:       48 8d 1d e3 0e 19 00    lea    rbx, [rip+0x190ee3]        # 0x216768
   85885:       4c 29 eb                sub    rbx, r13
   85888:       4c 89 f0                mov    rax, r14
   8588b:       4c 29 e8                sub    rax, r13
   8588e:       48 39 d8                cmp    rax, rbx
   85891:       0f 83 d9 06 00 00       jae    0x85f70
   85897:       48 8d 74 24 30          lea    rsi, [rsp+0x30]
   8589c:       4c 89 ff                mov    rdi, r15
   8589f:       41 ff 96 90 00 00 00    call   QWORD PTR [r14+0x90]
   858a6:       85 c0                   test   eax, eax
   858a8:       0f 85 ba 02 00 00       jne    0x85b68
   858ae:       8b 44 24 48             mov    eax, DWORD PTR [rsp+0x48]
   858b2:       25 00 f0 00 00          and    eax, 0xf000
   858b7:       3d 00 80 00 00          cmp    eax, 0x8000
   858bc:       0f 85 a6 02 00 00       jne    0x85b68
   858c2:       48 03 6c 24 60          add    rbp, QWORD PTR [rsp+0x60]
   858c7:       45 31 e4                xor    r12d, r12d
   858ca:       66 0f 1f 44 00 00       nop    WORD PTR [rax+rax*1+0x0]
   858d0:       4c 89 ff                mov    rdi, r15
   858d3:       e8 e8 ea ff ff          call   0x843c0
   858d8:       49 8b 87 90 00 00 00    mov    rax, QWORD PTR [r15+0x90]
   858df:       41 8b 17                mov    edx, DWORD PTR [r15]
   858e2:       48 83 f8 ff             cmp    rax, 0xffffffffffffffff
   858e6:       74 40                   je     0x85928
   858e8:       49 83 7f 18 00          cmp    QWORD PTR [r15+0x18], 0x0
   858ed:       74 39                   je     0x85928
   858ef:       f6 c6 01                test   dh, 0x1
   858f2:       75 34                   jne    0x85928
   858f4:       f3 41 0f 6f 47 30       movdqu xmm0, XMMWORD PTR [r15+0x30]
   858fa:       0f 12 e8                movhlps xmm5, xmm0
   858fd:       66 0f 6f c8             movdqa xmm1, xmm0
   85901:       66 48 0f 7e ee          movq   rsi, xmm5
   85906:       49 2b 77 10             sub    rsi, QWORD PTR [r15+0x10]
   8590a:       66 0f 6d c8             punpckhqdq xmm1, xmm0
   8590e:       66 48 0f 7e e9          movq   rcx, xmm5
   85913:       48 01 c6                add    rsi, rax
   85916:       48 39 e8                cmp    rax, rbp
   85919:       7e 0d                   jle    0x85928
   8591b:       48 39 f5                cmp    rbp, rsi
   8591e:       0f 8d 9c 05 00 00       jge    0x85ec0
   85924:       0f 1f 40 00             nop    DWORD PTR [rax+0x0]
   85928:       4c 8d 2d d1 00 19 00    lea    r13, [rip+0x1900d1]        # 0x215a00
   8592f:       48 8d 1d 32 0e 19 00    lea    rbx, [rip+0x190e32]        # 0x216768
   85936:       4c 29 eb                sub    rbx, r13
   85939:       83 e2 04                and    edx, 0x4
   8593c:       0f 85 26 02 00 00       jne    0x85b68
   85942:       49 8b 57 38             mov    rdx, QWORD PTR [r15+0x38]
   85946:       49 8b 47 40             mov    rax, QWORD PTR [r15+0x40]
   8594a:       48 89 e9                mov    rcx, rbp
   8594d:       48 89 d6                mov    rsi, rdx
   85950:       48 29 c6                sub    rsi, rax
   85953:       48 29 d0                sub    rax, rdx
   85956:       48 21 ee                and    rsi, rbp
   85959:       48 29 f1                sub    rcx, rsi
   8595c:       48 39 c8                cmp    rax, rcx
   8595f:       0f 8c bb 03 00 00       jl     0x85d20
   85965:       4d 8b b7 d8 00 00 00    mov    r14, QWORD PTR [r15+0xd8]
   8596c:       4c 89 f0                mov    rax, r14
   8596f:       4c 29 e8                sub    rax, r13
   85972:       48 39 d8                cmp    rax, rbx
   85975:       0f 83 d5 05 00 00       jae    0x85f50
   8597b:       48 89 4c 24 10          mov    QWORD PTR [rsp+0x10], rcx
   85980:       31 d2                   xor    edx, edx
   85982:       4c 89 ff                mov    rdi, r15
   85985:       41 ff 96 80 00 00 00    call   QWORD PTR [r14+0x80]
   8598c:       49 89 c6                mov    r14, rax
   8598f:       48 85 c0                test   rax, rax
   85992:       0f 88 79 03 00 00       js     0x85d11
   85998:       48 8b 4c 24 10          mov    rcx, QWORD PTR [rsp+0x10]
   8599d:       48 85 c9                test   rcx, rcx
   859a0:       0f 84 1a 04 00 00       je     0x85dc0
   859a6:       49 8b 87 d8 00 00 00    mov    rax, QWORD PTR [r15+0xd8]
   859ad:       48 89 c2                mov    rdx, rax
   859b0:       4c 29 ea                sub    rdx, r13
   859b3:       48 39 da                cmp    rdx, rbx
   859b6:       0f 83 e4 04 00 00       jae    0x85ea0
   859bc:       8b 7c 24 08             mov    edi, DWORD PTR [rsp+0x8]
   859c0:       48 8b 40 70             mov    rax, QWORD PTR [rax+0x70]
   859c4:       48 89 ca                mov    rdx, rcx
   859c7:       49 8b 77 38             mov    rsi, QWORD PTR [r15+0x38]
   859cb:       85 ff                   test   edi, edi
   859cd:       75 07                   jne    0x859d6
   859cf:       49 8b 57 40             mov    rdx, QWORD PTR [r15+0x40]
   859d3:       48 29 f2                sub    rdx, rsi
   859d6:       48 89 4c 24 08          mov    QWORD PTR [rsp+0x8], rcx
   859db:       4c 89 ff                mov    rdi, r15
   859de:       ff d0                   call   rax
   859e0:       48 8b 4c 24 08          mov    rcx, QWORD PTR [rsp+0x8]
   859e5:       48 89 c2                mov    rdx, rax
   859e8:       48 39 c1                cmp    rcx, rax
   859eb:       0f 8f 3f 03 00 00       jg     0x85d30
   859f1:       48 89 44 24 08          mov    QWORD PTR [rsp+0x8], rax
   859f6:       f3 41 0f 6f 47 38       movdqu xmm0, XMMWORD PTR [r15+0x38]
   859fc:       49 8b 87 a0 00 00 00    mov    rax, QWORD PTR [r15+0xa0]
   85a03:       66 48 0f 6e c9          movq   xmm1, rcx
   85a08:       4c 89 ff                mov    rdi, r15
   85a0b:       0f 16 4c 24 08          movhps xmm1, QWORD PTR [rsp+0x8]
   85a10:       be 01 00 00 00          mov    esi, 0x1
   85a15:       48 89 54 24 10          mov    QWORD PTR [rsp+0x10], rdx
   85a1a:       66 0f 6c c0             punpcklqdq xmm0, xmm0
   85a1e:       41 0f 11 47 18          movups XMMWORD PTR [r15+0x18], xmm0
   85a23:       66 0f d4 c8             paddq  xmm1, xmm0
   85a27:       41 0f 11 47 28          movups XMMWORD PTR [r15+0x28], xmm0
   85a2c:       f3 0f 7e 40 30          movq   xmm0, QWORD PTR [rax+0x30]
   85a31:       41 0f 11 4f 08          movups XMMWORD PTR [r15+0x8], xmm1
   85a36:       66 0f 6c c0             punpcklqdq xmm0, xmm0
   85a3a:       0f 11 00                movups XMMWORD PTR [rax], xmm0
   85a3d:       0f 11 40 10             movups XMMWORD PTR [rax+0x10], xmm0
   85a41:       0f 11 40 20             movups XMMWORD PTR [rax+0x20], xmm0
   85a45:       e8 96 fc ff ff          call   0x856e0
   85a4a:       85 c0                   test   eax, eax
   85a4c:       0f 85 16 01 00 00       jne    0x85b68
   85a52:       48 8b 54 24 10          mov    rdx, QWORD PTR [rsp+0x10]
   85a57:       41 83 27 ef             and    DWORD PTR [r15], 0xffffffef
   85a5b:       4a 8d 04 32             lea    rax, [rdx+r14*1]
   85a5f:       49 89 87 90 00 00 00    mov    QWORD PTR [r15+0x90], rax
   85a66:       48 89 e8                mov    rax, rbp
   85a69:       e9 6d 01 00 00          jmp    0x85bdb
   85a6e:       66 90                   xchg   ax, ax
   85a70:       48 39 d1                cmp    rcx, rdx
   85a73:       0f 85 ab fd ff ff       jne    0x85824
   85a79:       c7 44 24 08 01 00 00 00         mov    DWORD PTR [rsp+0x8], 0x1
   85a81:       0f 1f 80 00 00 00 00    nop    DWORD PTR [rax+0x0]
   85a88:       41 f7 07 00 08 00 00    test   DWORD PTR [r15], 0x800
   85a8f:       0f 85 a0 fd ff ff       jne    0x85835
   85a95:       48 83 78 30 00          cmp    QWORD PTR [rax+0x30], 0x0
   85a9a:       0f 85 c0 fd ff ff       jne    0x85860
   85aa0:       48 8b 78 10             mov    rdi, QWORD PTR [rax+0x10]
   85aa4:       48 85 ff                test   rdi, rdi
   85aa7:       74 0c                   je     0x85ab5
   85aa9:       e8 c2 28 fa ff          call   0x28370
   85aae:       41 81 27 ff fe ff ff    and    DWORD PTR [r15], 0xfffffeff
   85ab5:       4c 89 ff                mov    rdi, r15
   85ab8:       e8 53 82 00 00          call   0x8dd10
   85abd:       f3 41 0f 6f 47 38       movdqu xmm0, XMMWORD PTR [r15+0x38]
   85ac3:       49 8b 87 a0 00 00 00    mov    rax, QWORD PTR [r15+0xa0]
   85aca:       66 0f 6c c0             punpcklqdq xmm0, xmm0
   85ace:       41 0f 11 47 08          movups XMMWORD PTR [r15+0x8], xmm0
   85ad3:       41 0f 11 47 18          movups XMMWORD PTR [r15+0x18], xmm0
   85ad8:       41 0f 11 47 28          movups XMMWORD PTR [r15+0x28], xmm0
   85add:       f3 0f 7e 40 30          movq   xmm0, QWORD PTR [rax+0x30]
   85ae2:       66 0f 6c c0             punpcklqdq xmm0, xmm0
   85ae6:       0f 11 00                movups XMMWORD PTR [rax], xmm0
   85ae9:       0f 11 40 10             movups XMMWORD PTR [rax+0x10], xmm0
   85aed:       0f 11 40 20             movups XMMWORD PTR [rax+0x20], xmm0
   85af1:       41 83 fc 01             cmp    r12d, 0x1
   85af5:       0f 85 6f fd ff ff       jne    0x8586a
   85afb:       4d 8b af 98 00 00 00    mov    r13, QWORD PTR [r15+0x98]
   85b02:       4c 89 ef                mov    rdi, r13
   85b05:       e8 76 13 00 00          call   0x86e80
   85b0a:       85 c0                   test   eax, eax
   85b0c:       0f 8e 3e 02 00 00       jle    0x85d50
   85b12:       49 8b 8f a0 00 00 00    mov    rcx, QWORD PTR [r15+0xa0]
   85b19:       48 98                   cdqe   
   85b1b:       48 8b 51 08             mov    rdx, QWORD PTR [rcx+0x8]
   85b1f:       48 2b 11                sub    rdx, QWORD PTR [rcx]
   85b22:       48 c1 fa 02             sar    rdx, 0x2
   85b26:       48 0f af c2             imul   rax, rdx
   85b2a:       48 29 c5                sub    rbp, rax
   85b2d:       49 8b 47 10             mov    rax, QWORD PTR [r15+0x10]
   85b31:       49 2b 47 08             sub    rax, QWORD PTR [r15+0x8]
   85b35:       48 29 c5                sub    rbp, rax
   85b38:       49 8b 87 90 00 00 00    mov    rax, QWORD PTR [r15+0x90]
   85b3f:       48 83 f8 ff             cmp    rax, 0xffffffffffffffff
   85b43:       74 0b                   je     0x85b50
   85b45:       48 01 c5                add    rbp, rax
   85b48:       45 31 e4                xor    r12d, r12d
   85b4b:       e9 80 fd ff ff          jmp    0x858d0
   85b50:       4c 8d 2d a9 fe 18 00    lea    r13, [rip+0x18fea9]        # 0x215a00
   85b57:       48 8d 1d 0a 0c 19 00    lea    rbx, [rip+0x190c0a]        # 0x216768
   85b5e:       4c 29 eb                sub    rbx, r13
   85b61:       0f 1f 80 00 00 00 00    nop    DWORD PTR [rax+0x0]
   85b68:       4c 89 ff                mov    rdi, r15
   85b6b:       e8 40 97 00 00          call   0x8f2b0
   85b70:       4d 8b b7 d8 00 00 00    mov    r14, QWORD PTR [r15+0xd8]
   85b77:       4c 89 f0                mov    rax, r14
   85b7a:       4c 29 e8                sub    rax, r13
   85b7d:       48 39 d8                cmp    rax, rbx
   85b80:       0f 83 ea 02 00 00       jae    0x85e70
   85b86:       44 89 e2                mov    edx, r12d
   85b89:       48 89 ee                mov    rsi, rbp
   85b8c:       4c 89 ff                mov    rdi, r15
   85b8f:       41 ff 96 80 00 00 00    call   QWORD PTR [r14+0x80]
   85b96:       48 83 f8 ff             cmp    rax, 0xffffffffffffffff
   85b9a:       74 3f                   je     0x85bdb
   85b9c:       f3 41 0f 6f 47 38       movdqu xmm0, XMMWORD PTR [r15+0x38]
   85ba2:       49 8b 97 a0 00 00 00    mov    rdx, QWORD PTR [r15+0xa0]
   85ba9:       49 89 87 90 00 00 00    mov    QWORD PTR [r15+0x90], rax
   85bb0:       41 83 27 ef             and    DWORD PTR [r15], 0xffffffef
   85bb4:       66 0f 6c c0             punpcklqdq xmm0, xmm0
   85bb8:       41 0f 11 47 08          movups XMMWORD PTR [r15+0x8], xmm0
   85bbd:       41 0f 11 47 18          movups XMMWORD PTR [r15+0x18], xmm0
   85bc2:       41 0f 11 47 28          movups XMMWORD PTR [r15+0x28], xmm0
   85bc7:       f3 0f 7e 42 30          movq   xmm0, QWORD PTR [rdx+0x30]
   85bcc:       66 0f 6c c0             punpcklqdq xmm0, xmm0
   85bd0:       0f 11 02                movups XMMWORD PTR [rdx], xmm0
   85bd3:       0f 11 42 10             movups XMMWORD PTR [rdx+0x10], xmm0
   85bd7:       0f 11 42 20             movups XMMWORD PTR [rdx+0x20], xmm0
   85bdb:       48 8b 94 24 c8 00 00 00         mov    rdx, QWORD PTR [rsp+0xc8]
   85be3:       64 48 2b 14 25 28 00 00 00      sub    rdx, QWORD PTR fs:0x28
   85bec:       0f 85 77 04 00 00       jne    0x86069
   85bf2:       48 81 c4 d8 00 00 00    add    rsp, 0xd8
   85bf9:       5b                      pop    rbx
   85bfa:       5d                      pop    rbp
   85bfb:       41 5c                   pop    r12
   85bfd:       41 5d                   pop    r13
   85bff:       41 5e                   pop    r14
   85c01:       41 5f                   pop    r15
   85c03:       c3                      ret    
   85c04:       0f 1f 40 00             nop    DWORD PTR [rax+0x0]
   85c08:       48 83 78 30 00          cmp    QWORD PTR [rax+0x30], 0x0
   85c0d:       0f 84 9d 01 00 00       je     0x85db0
   85c13:       8b 17                   mov    edx, DWORD PTR [rdi]
   85c15:       48 8b 68 20             mov    rbp, QWORD PTR [rax+0x20]
   85c19:       48 8b 58 18             mov    rbx, QWORD PTR [rax+0x18]
   85c1d:       89 d7                   mov    edi, edx
   85c1f:       81 e7 00 10 00 00       and    edi, 0x1000
   85c25:       89 7c 24 08             mov    DWORD PTR [rsp+0x8], edi
   85c29:       48 39 dd                cmp    rbp, rbx
   85c2c:       76 57                   jbe    0x85c85
   85c2e:       85 ff                   test   edi, edi
   85c30:       74 53                   je     0x85c85
   85c32:       4d 8b af d8 00 00 00    mov    r13, QWORD PTR [r15+0xd8]
   85c39:       48 8d 15 c0 fd 18 00    lea    rdx, [rip+0x18fdc0]        # 0x215a00
   85c40:       48 8d 05 21 0b 19 00    lea    rax, [rip+0x190b21]        # 0x216768
   85c47:       48 29 d0                sub    rax, rdx
   85c4a:       4c 89 e9                mov    rcx, r13
   85c4d:       48 29 d1                sub    rcx, rdx
   85c50:       48 39 c8                cmp    rax, rcx
   85c53:       0f 86 d9 03 00 00       jbe    0x86032
   85c59:       31 f6                   xor    esi, esi
   85c5b:       ba 02 00 00 00          mov    edx, 0x2
   85c60:       4c 89 ff                mov    rdi, r15
   85c63:       41 ff 95 80 00 00 00    call   QWORD PTR [r13+0x80]
   85c6a:       48 83 f8 ff             cmp    rax, 0xffffffffffffffff
   85c6e:       0f 84 9d 00 00 00       je     0x85d11
   85c74:       49 89 87 90 00 00 00    mov    QWORD PTR [r15+0x90], rax
   85c7b:       41 8b 17                mov    edx, DWORD PTR [r15]
   85c7e:       49 8b 87 a0 00 00 00    mov    rax, QWORD PTR [r15+0xa0]
   85c85:       4c 8b 28                mov    r13, QWORD PTR [rax]
   85c88:       4c 8b 70 08             mov    r14, QWORD PTR [rax+0x8]
   85c8c:       80 e6 01                and    dh, 0x1
   85c8f:       0f 84 3b 01 00 00       je     0x85dd0
   85c95:       4d 39 ee                cmp    r14, r13
   85c98:       77 69                   ja     0x85d03
   85c9a:       4c 8b 68 40             mov    r13, QWORD PTR [rax+0x40]
   85c9e:       4c 8b 70 50             mov    r14, QWORD PTR [rax+0x50]
   85ca2:       4c 89 6c 24 10          mov    QWORD PTR [rsp+0x10], r13
   85ca7:       4d 8b a7 98 00 00 00    mov    r12, QWORD PTR [r15+0x98]
   85cae:       4c 89 e7                mov    rdi, r12
   85cb1:       e8 ca 11 00 00          call   0x86e80
   85cb6:       48 63 d0                movsxd rdx, eax
   85cb9:       48 39 dd                cmp    rbp, rbx
   85cbc:       0f 87 1e 01 00 00       ja     0x85de0
   85cc2:       49 8b 4f 10             mov    rcx, QWORD PTR [r15+0x10]
   85cc6:       85 d2                   test   edx, edx
   85cc8:       0f 8e 22 03 00 00       jle    0x85ff0
   85cce:       4c 89 f0                mov    rax, r14
   85cd1:       49 2b 4f 08             sub    rcx, QWORD PTR [r15+0x8]
   85cd5:       4c 29 e8                sub    rax, r13
   85cd8:       48 c1 f8 02             sar    rax, 0x2
   85cdc:       48 0f af c2             imul   rax, rdx
   85ce0:       48 f7 d8                neg    rax
   85ce3:       48 29 c8                sub    rax, rcx
   85ce6:       48 89 c3                mov    rbx, rax
   85ce9:       49 8b 87 90 00 00 00    mov    rax, QWORD PTR [r15+0x90]
   85cf0:       48 83 f8 ff             cmp    rax, 0xffffffffffffffff
   85cf4:       0f 84 26 01 00 00       je     0x85e20
   85cfa:       48 01 d8                add    rax, rbx
   85cfd:       0f 89 d8 fe ff ff       jns    0x85bdb
   85d03:       48 8b 05 06 31 19 00    mov    rax, QWORD PTR [rip+0x193106]        # 0x218e10
   85d0a:       64 c7 00 16 00 00 00    mov    DWORD PTR fs:[rax], 0x16
   85d11:       48 c7 c0 ff ff ff ff    mov    rax, 0xffffffffffffffff
   85d18:       e9 be fe ff ff          jmp    0x85bdb
   85d1d:       0f 1f 00                nop    DWORD PTR [rax]
   85d20:       48 89 ee                mov    rsi, rbp
   85d23:       31 c9                   xor    ecx, ecx
   85d25:       e9 3b fc ff ff          jmp    0x85965
   85d2a:       66 0f 1f 44 00 00       nop    WORD PTR [rax+rax*1+0x0]
   85d30:       48 83 f8 ff             cmp    rax, 0xffffffffffffffff
   85d34:       0f 84 56 01 00 00       je     0x85e90
   85d3a:       48 29 c1                sub    rcx, rax
   85d3d:       41 bc 01 00 00 00       mov    r12d, 0x1
   85d43:       48 89 cd                mov    rbp, rcx
   85d46:       e9 1d fe ff ff          jmp    0x85b68
   85d4b:       0f 1f 44 00 00          nop    DWORD PTR [rax+rax*1+0x0]
   85d50:       49 8b b7 a0 00 00 00    mov    rsi, QWORD PTR [r15+0xa0]
   85d57:       49 8b 4f 10             mov    rcx, QWORD PTR [r15+0x10]
   85d5b:       4c 89 ef                mov    rdi, r13
   85d5e:       49 8b 57 18             mov    rdx, QWORD PTR [r15+0x18]
   85d62:       48 8b 46 60             mov    rax, QWORD PTR [rsi+0x60]
   85d66:       4c 8b 06                mov    r8, QWORD PTR [rsi]
   85d69:       48 83 c6 58             add    rsi, 0x58
   85d6d:       4c 2b 46 b8             sub    r8, QWORD PTR [rsi-0x48]
   85d71:       48 89 06                mov    QWORD PTR [rsi], rax
   85d74:       49 c1 f8 02             sar    r8, 0x2
   85d78:       e8 33 11 00 00          call   0x86eb0
   85d7d:       49 8b 4f 18             mov    rcx, QWORD PTR [r15+0x18]
   85d81:       48 98                   cdqe   
   85d83:       48 8d 14 01             lea    rdx, [rcx+rax*1]
   85d87:       49 89 57 08             mov    QWORD PTR [r15+0x8], rdx
   85d8b:       49 8b 97 a0 00 00 00    mov    rdx, QWORD PTR [r15+0xa0]
   85d92:       48 8b 32                mov    rsi, QWORD PTR [rdx]
   85d95:       48 89 72 08             mov    QWORD PTR [rdx+0x8], rsi
   85d99:       49 8b 57 10             mov    rdx, QWORD PTR [r15+0x10]
   85d9d:       48 29 ca                sub    rdx, rcx
   85da0:       48 29 c2                sub    rdx, rax
   85da3:       48 29 d5                sub    rbp, rdx
   85da6:       e9 8d fd ff ff          jmp    0x85b38
   85dab:       0f 1f 44 00 00          nop    DWORD PTR [rax+rax*1+0x0]
   85db0:       31 db                   xor    ebx, ebx
   85db2:       e9 32 ff ff ff          jmp    0x85ce9
   85db7:       66 0f 1f 84 00 00 00 00 00      nop    WORD PTR [rax+rax*1+0x0]
   85dc0:       48 c7 44 24 08 00 00 00 00      mov    QWORD PTR [rsp+0x8], 0x0
   85dc9:       31 d2                   xor    edx, edx
   85dcb:       e9 26 fc ff ff          jmp    0x859f6
   85dd0:       48 8b 40 10             mov    rax, QWORD PTR [rax+0x10]
   85dd4:       48 89 44 24 10          mov    QWORD PTR [rsp+0x10], rax
   85dd9:       e9 c9 fe ff ff          jmp    0x85ca7
   85dde:       66 90                   xchg   ax, ax
   85de0:       49 8b af a0 00 00 00    mov    rbp, QWORD PTR [r15+0xa0]
   85de7:       48 8b 4d 20             mov    rcx, QWORD PTR [rbp+0x20]
   85deb:       4c 8b 6d 18             mov    r13, QWORD PTR [rbp+0x18]
   85def:       48 89 cb                mov    rbx, rcx
   85df2:       4c 29 eb                sub    rbx, r13
   85df5:       85 d2                   test   edx, edx
   85df7:       0f 8e 83 01 00 00       jle    0x85f80
   85dfd:       48 c1 fb 02             sar    rbx, 0x2
   85e01:       48 0f af da             imul   rbx, rdx
   85e05:       44 8b 44 24 08          mov    r8d, DWORD PTR [rsp+0x8]
   85e0a:       49 8b 47 28             mov    rax, QWORD PTR [r15+0x28]
   85e0e:       45 85 c0                test   r8d, r8d
   85e11:       74 6d                   je     0x85e80
   85e13:       49 2b 47 20             sub    rax, QWORD PTR [r15+0x20]
   85e17:       48 01 c3                add    rbx, rax
   85e1a:       e9 ca fe ff ff          jmp    0x85ce9
   85e1f:       90                      nop
   85e20:       49 8b af d8 00 00 00    mov    rbp, QWORD PTR [r15+0xd8]
   85e27:       48 8d 15 d2 fb 18 00    lea    rdx, [rip+0x18fbd2]        # 0x215a00
   85e2e:       48 8d 05 33 09 19 00    lea    rax, [rip+0x190933]        # 0x216768
   85e35:       48 29 d0                sub    rax, rdx
   85e38:       48 89 e9                mov    rcx, rbp
   85e3b:       48 29 d1                sub    rcx, rdx
   85e3e:       48 39 c8                cmp    rax, rcx
   85e41:       0f 86 f5 01 00 00       jbe    0x8603c
   85e47:       31 f6                   xor    esi, esi
   85e49:       ba 01 00 00 00          mov    edx, 0x1
   85e4e:       4c 89 ff                mov    rdi, r15
   85e51:       ff 95 80 00 00 00       call   QWORD PTR [rbp+0x80]
   85e57:       48 83 f8 ff             cmp    rax, 0xffffffffffffffff
   85e5b:       0f 85 99 fe ff ff       jne    0x85cfa
   85e61:       e9 ab fe ff ff          jmp    0x85d11
   85e66:       66 2e 0f 1f 84 00 00 00 00 00   cs nop WORD PTR [rax+rax*1+0x0]
   85e70:       e8 fb 40 00 00          call   0x89f70
   85e75:       e9 0c fd ff ff          jmp    0x85b86
   85e7a:       66 0f 1f 44 00 00       nop    WORD PTR [rax+rax*1+0x0]
   85e80:       49 2b 47 10             sub    rax, QWORD PTR [r15+0x10]
   85e84:       48 01 c3                add    rbx, rax
   85e87:       e9 5d fe ff ff          jmp    0x85ce9
   85e8c:       0f 1f 40 00             nop    DWORD PTR [rax+0x0]
   85e90:       48 89 cd                mov    rbp, rcx
   85e93:       41 bc 01 00 00 00       mov    r12d, 0x1
   85e99:       e9 ca fc ff ff          jmp    0x85b68
   85e9e:       66 90                   xchg   ax, ax
   85ea0:       48 89 4c 24 18          mov    QWORD PTR [rsp+0x18], rcx
   85ea5:       48 89 44 24 10          mov    QWORD PTR [rsp+0x10], rax
   85eaa:       e8 c1 40 00 00          call   0x89f70
   85eaf:       48 8b 4c 24 18          mov    rcx, QWORD PTR [rsp+0x18]
   85eb4:       48 8b 44 24 10          mov    rax, QWORD PTR [rsp+0x10]
   85eb9:       e9 fe fa ff ff          jmp    0x859bc
   85ebe:       66 90                   xchg   ax, ax
   85ec0:       48 89 e8                mov    rax, rbp
   85ec3:       41 0f 11 4f 18          movups XMMWORD PTR [r15+0x18], xmm1
   85ec8:       4c 89 ff                mov    rdi, r15
   85ecb:       48 29 f0                sub    rax, rsi
   85ece:       41 0f 11 4f 28          movups XMMWORD PTR [r15+0x28], xmm1
   85ed3:       31 f6                   xor    esi, esi
   85ed5:       48 01 c1                add    rcx, rax
   85ed8:       49 8b 87 a0 00 00 00    mov    rax, QWORD PTR [r15+0xa0]
   85edf:       49 89 4f 08             mov    QWORD PTR [r15+0x8], rcx
   85ee3:       f3 0f 7e 40 30          movq   xmm0, QWORD PTR [rax+0x30]
   85ee8:       66 0f 6c c0             punpcklqdq xmm0, xmm0
   85eec:       0f 11 00                movups XMMWORD PTR [rax], xmm0
   85eef:       0f 11 40 10             movups XMMWORD PTR [rax+0x10], xmm0
   85ef3:       0f 11 40 20             movups XMMWORD PTR [rax+0x20], xmm0
   85ef7:       e8 e4 f7 ff ff          call   0x856e0
   85efc:       85 c0                   test   eax, eax
   85efe:       0f 85 4c fc ff ff       jne    0x85b50
   85f04:       49 8b b7 90 00 00 00    mov    rsi, QWORD PTR [r15+0x90]
   85f0b:       41 83 27 ef             and    DWORD PTR [r15], 0xffffffef
   85f0f:       48 85 f6                test   rsi, rsi
   85f12:       78 32                   js     0x85f46
   85f14:       49 8b 9f d8 00 00 00    mov    rbx, QWORD PTR [r15+0xd8]
   85f1b:       48 8d 15 de fa 18 00    lea    rdx, [rip+0x18fade]        # 0x215a00
   85f22:       48 8d 05 3f 08 19 00    lea    rax, [rip+0x19083f]        # 0x216768
   85f29:       48 29 d0                sub    rax, rdx
   85f2c:       48 89 d9                mov    rcx, rbx
   85f2f:       48 29 d1                sub    rcx, rdx
   85f32:       48 39 c8                cmp    rax, rcx
   85f35:       0f 86 1d 01 00 00       jbe    0x86058
   85f3b:       31 d2                   xor    edx, edx
   85f3d:       4c 89 ff                mov    rdi, r15
   85f40:       ff 93 80 00 00 00       call   QWORD PTR [rbx+0x80]
   85f46:       48 89 e8                mov    rax, rbp
   85f49:       e9 8d fc ff ff          jmp    0x85bdb
   85f4e:       66 90                   xchg   ax, ax
   85f50:       48 89 74 24 18          mov    QWORD PTR [rsp+0x18], rsi
   85f55:       48 89 4c 24 10          mov    QWORD PTR [rsp+0x10], rcx
   85f5a:       e8 11 40 00 00          call   0x89f70
   85f5f:       48 8b 74 24 18          mov    rsi, QWORD PTR [rsp+0x18]
   85f64:       48 8b 4c 24 10          mov    rcx, QWORD PTR [rsp+0x10]
   85f69:       e9 0d fa ff ff          jmp    0x8597b
   85f6e:       66 90                   xchg   ax, ax
   85f70:       e8 fb 3f 00 00          call   0x89f70
   85f75:       e9 1d f9 ff ff          jmp    0x85897
   85f7a:       66 0f 1f 44 00 00       nop    WORD PTR [rax+rax*1+0x0]
   85f80:       48 89 df                mov    rdi, rbx
   85f83:       48 89 4c 24 10          mov    QWORD PTR [rsp+0x10], rcx
   85f88:       e8 f3 23 fa ff          call   0x28380
   85f8d:       4c 89 6c 24 28          mov    QWORD PTR [rsp+0x28], r13
   85f92:       4c 89 ea                mov    rdx, r13
   85f95:       4c 89 e7                mov    rdi, r12
   85f98:       48 89 44 24 20          mov    QWORD PTR [rsp+0x20], rax
   85f9d:       49 89 c6                mov    r14, rax
   85fa0:       48 8b 45 60             mov    rax, QWORD PTR [rbp+0x60]
   85fa4:       48 8d 74 24 30          lea    rsi, [rsp+0x30]
   85fa9:       4c 01 f3                add    rbx, r14
   85fac:       4d 89 f1                mov    r9, r14
   85faf:       48 89 44 24 30          mov    QWORD PTR [rsp+0x30], rax
   85fb4:       48 8d 44 24 20          lea    rax, [rsp+0x20]
   85fb9:       50                      push   rax
   85fba:       53                      push   rbx
   85fbb:       48 8b 4c 24 20          mov    rcx, QWORD PTR [rsp+0x20]
   85fc0:       4c 8d 44 24 38          lea    r8, [rsp+0x38]
   85fc5:       e8 b6 0c 00 00          call   0x86c80
   85fca:       41 59                   pop    r9
   85fcc:       41 5a                   pop    r10
   85fce:       85 c0                   test   eax, eax
   85fd0:       75 74                   jne    0x86046
   85fd2:       48 8b 5c 24 20          mov    rbx, QWORD PTR [rsp+0x20]
   85fd7:       4c 89 f7                mov    rdi, r14
   85fda:       4c 29 f3                sub    rbx, r14
   85fdd:       e8 8e 23 fa ff          call   0x28370
   85fe2:       e9 1e fe ff ff          jmp    0x85e05
   85fe7:       66 0f 1f 84 00 00 00 00 00      nop    WORD PTR [rax+rax*1+0x0]
   85ff0:       49 8b 57 18             mov    rdx, QWORD PTR [r15+0x18]
   85ff4:       4d 89 e8                mov    r8, r13
   85ff7:       4c 2b 44 24 10          sub    r8, QWORD PTR [rsp+0x10]
   85ffc:       4c 89 e7                mov    rdi, r12
   85fff:       49 8b 87 a0 00 00 00    mov    rax, QWORD PTR [r15+0xa0]
   86006:       48 8d 74 24 30          lea    rsi, [rsp+0x30]
   8600b:       49 c1 f8 02             sar    r8, 0x2
   8600f:       48 8b 40 60             mov    rax, QWORD PTR [rax+0x60]
   86013:       48 89 44 24 30          mov    QWORD PTR [rsp+0x30], rax
   86018:       e8 93 0e 00 00          call   0x86eb0
   8601d:       49 8b 57 10             mov    rdx, QWORD PTR [r15+0x10]
   86021:       49 2b 57 18             sub    rdx, QWORD PTR [r15+0x18]
   86025:       48 98                   cdqe   
   86027:       48 29 d0                sub    rax, rdx
   8602a:       48 89 c3                mov    rbx, rax
   8602d:       e9 b7 fc ff ff          jmp    0x85ce9
   86032:       e8 39 3f 00 00          call   0x89f70
   86037:       e9 1d fc ff ff          jmp    0x85c59
   8603c:       e8 2f 3f 00 00          call   0x89f70
   86041:       e9 01 fe ff ff          jmp    0x85e47
   86046:       4c 89 f7                mov    rdi, r14
   86049:       e8 22 23 fa ff          call   0x28370
   8604e:       b8 ff ff ff ff          mov    eax, 0xffffffff
   86053:       e9 83 fb ff ff          jmp    0x85bdb
   86058:       e8 13 3f 00 00          call   0x89f70
   8605d:       49 8b b7 90 00 00 00    mov    rsi, QWORD PTR [r15+0x90]
   86064:       e9 d2 fe ff ff          jmp    0x85f3b
   86069:       e8 b2 06 0b 00          call   0x136720
================
_IO_file_xsputn 0x8b680
   8b680:       f3 0f 1e fa             endbr64 
   8b684:       41 57                   push   r15
   8b686:       41 56                   push   r14
   8b688:       41 55                   push   r13
   8b68a:       41 54                   push   r12
   8b68c:       45 31 e4                xor    r12d, r12d
   8b68f:       55                      push   rbp
   8b690:       53                      push   rbx
   8b691:       48 83 ec 18             sub    rsp, 0x18
   8b695:       48 85 d2                test   rdx, rdx
   8b698:       74 54                   je     0x8b6ee
   8b69a:       48 89 fd                mov    rbp, rdi
   8b69d:       49 89 f5                mov    r13, rsi
   8b6a0:       48 8b 7f 28             mov    rdi, QWORD PTR [rdi+0x28]
   8b6a4:       48 89 d3                mov    rbx, rdx
   8b6a7:       8b 45 00                mov    eax, DWORD PTR [rbp+0x0]
   8b6aa:       25 00 0a 00 00          and    eax, 0xa00
   8b6af:       3d 00 0a 00 00          cmp    eax, 0xa00
   8b6b4:       74 4a                   je     0x8b700
   8b6b6:       4c 8b 65 30             mov    r12, QWORD PTR [rbp+0x30]
   8b6ba:       49 39 fc                cmp    r12, rdi
   8b6bd:       76 61                   jbe    0x8b720
   8b6bf:       49 29 fc                sub    r12, rdi
   8b6c2:       45 31 f6                xor    r14d, r14d
   8b6c5:       4d 85 e4                test   r12, r12
   8b6c8:       74 56                   je     0x8b720
   8b6ca:       49 39 dc                cmp    r12, rbx
   8b6cd:       4c 89 ee                mov    rsi, r13
   8b6d0:       49 89 df                mov    r15, rbx
   8b6d3:       4c 0f 47 e3             cmova  r12, rbx
   8b6d7:       4c 89 e2                mov    rdx, r12
   8b6da:       4d 01 e5                add    r13, r12
   8b6dd:       4d 29 e7                sub    r15, r12
   8b6e0:       e8 fb cc f9 ff          call   0x283e0
   8b6e5:       48 89 45 28             mov    QWORD PTR [rbp+0x28], rax
   8b6e9:       4d 01 fe                add    r14, r15
   8b6ec:       75 35                   jne    0x8b723
   8b6ee:       48 83 c4 18             add    rsp, 0x18
   8b6f2:       4c 89 e0                mov    rax, r12
   8b6f5:       5b                      pop    rbx
   8b6f6:       5d                      pop    rbp
   8b6f7:       41 5c                   pop    r12
   8b6f9:       41 5d                   pop    r13
   8b6fb:       41 5e                   pop    r14
   8b6fd:       41 5f                   pop    r15
   8b6ff:       c3                      ret    
   8b700:       4c 8b 65 40             mov    r12, QWORD PTR [rbp+0x40]
   8b704:       48 8d 04 16             lea    rax, [rsi+rdx*1]
   8b708:       49 29 fc                sub    r12, rdi
   8b70b:       4c 39 e2                cmp    rdx, r12
   8b70e:       0f 86 a9 00 00 00       jbe    0x8b7bd
   8b714:       45 31 f6                xor    r14d, r14d
   8b717:       4d 85 e4                test   r12, r12
   8b71a:       75 ae                   jne    0x8b6ca
   8b71c:       0f 1f 40 00             nop    DWORD PTR [rax+0x0]
   8b720:       49 89 df                mov    r15, rbx
   8b723:       48 8b 85 d8 00 00 00    mov    rax, QWORD PTR [rbp+0xd8]
   8b72a:       4c 8d 35 cf a2 18 00    lea    r14, [rip+0x18a2cf]        # 0x215a00
   8b731:       4c 8d 25 30 b0 18 00    lea    r12, [rip+0x18b030]        # 0x216768
   8b738:       4d 29 f4                sub    r12, r14
   8b73b:       48 89 c2                mov    rdx, rax
   8b73e:       4c 29 f2                sub    rdx, r14
   8b741:       49 39 d4                cmp    r12, rdx
   8b744:       0f 86 b6 01 00 00       jbe    0x8b900
   8b74a:       be ff ff ff ff          mov    esi, 0xffffffff
   8b74f:       48 89 ef                mov    rdi, rbp
   8b752:       ff 50 18                call   QWORD PTR [rax+0x18]
   8b755:       83 f8 ff                cmp    eax, 0xffffffff
   8b758:       0f 84 52 01 00 00       je     0x8b8b0
   8b75e:       48 8b 4d 40             mov    rcx, QWORD PTR [rbp+0x40]
   8b762:       48 2b 4d 38             sub    rcx, QWORD PTR [rbp+0x38]
   8b766:       4d 89 f8                mov    r8, r15
   8b769:       48 83 f9 7f             cmp    rcx, 0x7f
   8b76d:       76 0b                   jbe    0x8b77a
   8b76f:       4c 89 f8                mov    rax, r15
   8b772:       31 d2                   xor    edx, edx
   8b774:       48 f7 f1                div    rcx
   8b777:       49 29 d0                sub    r8, rdx
   8b77a:       4d 85 c0                test   r8, r8
   8b77d:       75 51                   jne    0x8b7d0
   8b77f:       49 89 dc                mov    r12, rbx
   8b782:       4d 85 ff                test   r15, r15
   8b785:       0f 84 63 ff ff ff       je     0x8b6ee
   8b78b:       4b 8d 74 05 00          lea    rsi, [r13+r8*1+0x0]
   8b790:       4c 89 fa                mov    rdx, r15
   8b793:       48 89 ef                mov    rdi, rbp
   8b796:       e8 a5 26 00 00          call   0x8de40
   8b79b:       4c 29 f8                sub    rax, r15
   8b79e:       49 01 c4                add    r12, rax
   8b7a1:       e9 48 ff ff ff          jmp    0x8b6ee
   8b7a6:       66 2e 0f 1f 84 00 00 00 00 00   cs nop WORD PTR [rax+rax*1+0x0]
   8b7b0:       48 83 e8 01             sub    rax, 0x1
   8b7b4:       80 38 0a                cmp    BYTE PTR [rax], 0xa
   8b7b7:       0f 84 13 01 00 00       je     0x8b8d0
   8b7bd:       49 39 c5                cmp    r13, rax
   8b7c0:       72 ee                   jb     0x8b7b0
   8b7c2:       45 31 f6                xor    r14d, r14d
   8b7c5:       e9 00 ff ff ff          jmp    0x8b6ca
   8b7ca:       66 0f 1f 44 00 00       nop    WORD PTR [rax+rax*1+0x0]
   8b7d0:       48 8b 85 d8 00 00 00    mov    rax, QWORD PTR [rbp+0xd8]
   8b7d7:       f7 45 00 00 10 00 00    test   DWORD PTR [rbp+0x0], 0x1000
   8b7de:       0f 85 0c 01 00 00       jne    0x8b8f0
   8b7e4:       48 8b 55 10             mov    rdx, QWORD PTR [rbp+0x10]
   8b7e8:       48 8b 75 20             mov    rsi, QWORD PTR [rbp+0x20]
   8b7ec:       48 39 f2                cmp    rdx, rsi
   8b7ef:       74 40                   je     0x8b831
   8b7f1:       48 89 c1                mov    rcx, rax
   8b7f4:       4c 29 f1                sub    rcx, r14
   8b7f7:       49 39 cc                cmp    r12, rcx
   8b7fa:       0f 86 7d 01 00 00       jbe    0x8b97d
   8b800:       48 29 d6                sub    rsi, rdx
   8b803:       4c 89 04 24             mov    QWORD PTR [rsp], r8
   8b807:       ba 01 00 00 00          mov    edx, 0x1
   8b80c:       48 89 ef                mov    rdi, rbp
   8b80f:       ff 90 80 00 00 00       call   QWORD PTR [rax+0x80]
   8b815:       48 83 f8 ff             cmp    rax, 0xffffffffffffffff
   8b819:       0f 84 0b 01 00 00       je     0x8b92a
   8b81f:       48 89 85 90 00 00 00    mov    QWORD PTR [rbp+0x90], rax
   8b826:       4c 8b 04 24             mov    r8, QWORD PTR [rsp]
   8b82a:       48 8b 85 d8 00 00 00    mov    rax, QWORD PTR [rbp+0xd8]
   8b831:       48 89 c2                mov    rdx, rax
   8b834:       4c 29 f2                sub    rdx, r14
   8b837:       49 39 d4                cmp    r12, rdx
   8b83a:       0f 86 21 01 00 00       jbe    0x8b961
   8b840:       4c 89 04 24             mov    QWORD PTR [rsp], r8
   8b844:       4c 89 c2                mov    rdx, r8
   8b847:       4c 89 ee                mov    rsi, r13
   8b84a:       48 89 ef                mov    rdi, rbp
   8b84d:       ff 50 78                call   QWORD PTR [rax+0x78]
   8b850:       4c 8b 04 24             mov    r8, QWORD PTR [rsp]
   8b854:       49 89 c6                mov    r14, rax
   8b857:       0f b7 85 80 00 00 00    movzx  eax, WORD PTR [rbp+0x80]
   8b85e:       4d 85 f6                test   r14, r14
   8b861:       74 09                   je     0x8b86c
   8b863:       66 85 c0                test   ax, ax
   8b866:       0f 85 d4 00 00 00       jne    0x8b940
   8b86c:       48 8b 45 38             mov    rax, QWORD PTR [rbp+0x38]
   8b870:       8b 95 c0 00 00 00       mov    edx, DWORD PTR [rbp+0xc0]
   8b876:       66 48 0f 6e c0          movq   xmm0, rax
   8b87b:       48 89 45 28             mov    QWORD PTR [rbp+0x28], rax
   8b87f:       66 0f 6c c0             punpcklqdq xmm0, xmm0
   8b883:       0f 11 45 08             movups XMMWORD PTR [rbp+0x8], xmm0
   8b887:       0f 11 45 18             movups XMMWORD PTR [rbp+0x18], xmm0
   8b88b:       85 d2                   test   edx, edx
   8b88d:       0f 8e 85 00 00 00       jle    0x8b918
   8b893:       48 8b 45 40             mov    rax, QWORD PTR [rbp+0x40]
   8b897:       48 89 45 30             mov    QWORD PTR [rbp+0x30], rax
   8b89b:       4d 39 c6                cmp    r14, r8
   8b89e:       0f 82 89 00 00 00       jb     0x8b92d
   8b8a4:       4d 29 f7                sub    r15, r14
   8b8a7:       e9 d3 fe ff ff          jmp    0x8b77f
   8b8ac:       0f 1f 40 00             nop    DWORD PTR [rax+0x0]
   8b8b0:       4c 29 fb                sub    rbx, r15
   8b8b3:       48 c7 c0 ff ff ff ff    mov    rax, 0xffffffffffffffff
   8b8ba:       4d 85 ff                test   r15, r15
   8b8bd:       49 89 dc                mov    r12, rbx
   8b8c0:       4c 0f 44 e0             cmove  r12, rax
   8b8c4:       e9 25 fe ff ff          jmp    0x8b6ee
   8b8c9:       0f 1f 80 00 00 00 00    nop    DWORD PTR [rax+0x0]
   8b8d0:       4c 29 e8                sub    rax, r13
   8b8d3:       48 83 c0 01             add    rax, 0x1
   8b8d7:       49 89 c4                mov    r12, rax
   8b8da:       0f 85 c1 00 00 00       jne    0x8b9a1
   8b8e0:       49 89 df                mov    r15, rbx
   8b8e3:       41 be 01 00 00 00       mov    r14d, 0x1
   8b8e9:       e9 fb fd ff ff          jmp    0x8b6e9
   8b8ee:       66 90                   xchg   ax, ax
   8b8f0:       48 c7 85 90 00 00 00 ff ff ff ff        mov    QWORD PTR [rbp+0x90], 0xffffffffffffffff
   8b8fb:       e9 31 ff ff ff          jmp    0x8b831
   8b900:       48 89 04 24             mov    QWORD PTR [rsp], rax
   8b904:       e8 67 e6 ff ff          call   0x89f70
   8b909:       48 8b 04 24             mov    rax, QWORD PTR [rsp]
   8b90d:       e9 38 fe ff ff          jmp    0x8b74a
   8b912:       66 0f 1f 44 00 00       nop    WORD PTR [rax+rax*1+0x0]
   8b918:       f7 45 00 02 02 00 00    test   DWORD PTR [rbp+0x0], 0x202
   8b91f:       0f 85 72 ff ff ff       jne    0x8b897
   8b925:       e9 69 ff ff ff          jmp    0x8b893
   8b92a:       45 31 f6                xor    r14d, r14d
   8b92d:       4c 29 fb                sub    rbx, r15
   8b930:       49 89 dc                mov    r12, rbx
   8b933:       4d 01 f4                add    r12, r14
   8b936:       e9 b3 fd ff ff          jmp    0x8b6ee
   8b93b:       0f 1f 44 00 00          nop    DWORD PTR [rax+rax*1+0x0]
   8b940:       8d 78 ff                lea    edi, [rax-0x1]
   8b943:       44 89 f2                mov    edx, r14d
   8b946:       4c 89 ee                mov    rsi, r13
   8b949:       e8 e2 2f 00 00          call   0x8e930
   8b94e:       4c 8b 04 24             mov    r8, QWORD PTR [rsp]
   8b952:       83 c0 01                add    eax, 0x1
   8b955:       66 89 85 80 00 00 00    mov    WORD PTR [rbp+0x80], ax
   8b95c:       e9 0b ff ff ff          jmp    0x8b86c
   8b961:       48 89 44 24 08          mov    QWORD PTR [rsp+0x8], rax
   8b966:       4c 89 04 24             mov    QWORD PTR [rsp], r8
   8b96a:       e8 01 e6 ff ff          call   0x89f70
   8b96f:       48 8b 44 24 08          mov    rax, QWORD PTR [rsp+0x8]
   8b974:       4c 8b 04 24             mov    r8, QWORD PTR [rsp]
   8b978:       e9 c3 fe ff ff          jmp    0x8b840
   8b97d:       48 89 44 24 08          mov    QWORD PTR [rsp+0x8], rax
   8b982:       4c 89 04 24             mov    QWORD PTR [rsp], r8
   8b986:       e8 e5 e5 ff ff          call   0x89f70
   8b98b:       48 8b 75 20             mov    rsi, QWORD PTR [rbp+0x20]
   8b98f:       48 8b 55 10             mov    rdx, QWORD PTR [rbp+0x10]
   8b993:       48 8b 44 24 08          mov    rax, QWORD PTR [rsp+0x8]
   8b998:       4c 8b 04 24             mov    r8, QWORD PTR [rsp]
   8b99c:       e9 5f fe ff ff          jmp    0x8b800
   8b9a1:       41 be 01 00 00 00       mov    r14d, 0x1
   8b9a7:       e9 1e fd ff ff          jmp    0x8b6ca
================
_IO_file_xsputn 0x8b680
   8b680:       f3 0f 1e fa             endbr64 
   8b684:       41 57                   push   r15
   8b686:       41 56                   push   r14
   8b688:       41 55                   push   r13
   8b68a:       41 54                   push   r12
   8b68c:       45 31 e4                xor    r12d, r12d
   8b68f:       55                      push   rbp
   8b690:       53                      push   rbx
   8b691:       48 83 ec 18             sub    rsp, 0x18
   8b695:       48 85 d2                test   rdx, rdx
   8b698:       74 54                   je     0x8b6ee
   8b69a:       48 89 fd                mov    rbp, rdi
   8b69d:       49 89 f5                mov    r13, rsi
   8b6a0:       48 8b 7f 28             mov    rdi, QWORD PTR [rdi+0x28]
   8b6a4:       48 89 d3                mov    rbx, rdx
   8b6a7:       8b 45 00                mov    eax, DWORD PTR [rbp+0x0]
   8b6aa:       25 00 0a 00 00          and    eax, 0xa00
   8b6af:       3d 00 0a 00 00          cmp    eax, 0xa00
   8b6b4:       74 4a                   je     0x8b700
   8b6b6:       4c 8b 65 30             mov    r12, QWORD PTR [rbp+0x30]
   8b6ba:       49 39 fc                cmp    r12, rdi
   8b6bd:       76 61                   jbe    0x8b720
   8b6bf:       49 29 fc                sub    r12, rdi
   8b6c2:       45 31 f6                xor    r14d, r14d
   8b6c5:       4d 85 e4                test   r12, r12
   8b6c8:       74 56                   je     0x8b720
   8b6ca:       49 39 dc                cmp    r12, rbx
   8b6cd:       4c 89 ee                mov    rsi, r13
   8b6d0:       49 89 df                mov    r15, rbx
   8b6d3:       4c 0f 47 e3             cmova  r12, rbx
   8b6d7:       4c 89 e2                mov    rdx, r12
   8b6da:       4d 01 e5                add    r13, r12
   8b6dd:       4d 29 e7                sub    r15, r12
   8b6e0:       e8 fb cc f9 ff          call   0x283e0
   8b6e5:       48 89 45 28             mov    QWORD PTR [rbp+0x28], rax
   8b6e9:       4d 01 fe                add    r14, r15
   8b6ec:       75 35                   jne    0x8b723
   8b6ee:       48 83 c4 18             add    rsp, 0x18
   8b6f2:       4c 89 e0                mov    rax, r12
   8b6f5:       5b                      pop    rbx
   8b6f6:       5d                      pop    rbp
   8b6f7:       41 5c                   pop    r12
   8b6f9:       41 5d                   pop    r13
   8b6fb:       41 5e                   pop    r14
   8b6fd:       41 5f                   pop    r15
   8b6ff:       c3                      ret    
   8b700:       4c 8b 65 40             mov    r12, QWORD PTR [rbp+0x40]
   8b704:       48 8d 04 16             lea    rax, [rsi+rdx*1]
   8b708:       49 29 fc                sub    r12, rdi
   8b70b:       4c 39 e2                cmp    rdx, r12
   8b70e:       0f 86 a9 00 00 00       jbe    0x8b7bd
   8b714:       45 31 f6                xor    r14d, r14d
   8b717:       4d 85 e4                test   r12, r12
   8b71a:       75 ae                   jne    0x8b6ca
   8b71c:       0f 1f 40 00             nop    DWORD PTR [rax+0x0]
   8b720:       49 89 df                mov    r15, rbx
   8b723:       48 8b 85 d8 00 00 00    mov    rax, QWORD PTR [rbp+0xd8]
   8b72a:       4c 8d 35 cf a2 18 00    lea    r14, [rip+0x18a2cf]        # 0x215a00
   8b731:       4c 8d 25 30 b0 18 00    lea    r12, [rip+0x18b030]        # 0x216768
   8b738:       4d 29 f4                sub    r12, r14
   8b73b:       48 89 c2                mov    rdx, rax
   8b73e:       4c 29 f2                sub    rdx, r14
   8b741:       49 39 d4                cmp    r12, rdx
   8b744:       0f 86 b6 01 00 00       jbe    0x8b900
   8b74a:       be ff ff ff ff          mov    esi, 0xffffffff
   8b74f:       48 89 ef                mov    rdi, rbp
   8b752:       ff 50 18                call   QWORD PTR [rax+0x18]
   8b755:       83 f8 ff                cmp    eax, 0xffffffff
   8b758:       0f 84 52 01 00 00       je     0x8b8b0
   8b75e:       48 8b 4d 40             mov    rcx, QWORD PTR [rbp+0x40]
   8b762:       48 2b 4d 38             sub    rcx, QWORD PTR [rbp+0x38]
   8b766:       4d 89 f8                mov    r8, r15
   8b769:       48 83 f9 7f             cmp    rcx, 0x7f
   8b76d:       76 0b                   jbe    0x8b77a
   8b76f:       4c 89 f8                mov    rax, r15
   8b772:       31 d2                   xor    edx, edx
   8b774:       48 f7 f1                div    rcx
   8b777:       49 29 d0                sub    r8, rdx
   8b77a:       4d 85 c0                test   r8, r8
   8b77d:       75 51                   jne    0x8b7d0
   8b77f:       49 89 dc                mov    r12, rbx
   8b782:       4d 85 ff                test   r15, r15
   8b785:       0f 84 63 ff ff ff       je     0x8b6ee
   8b78b:       4b 8d 74 05 00          lea    rsi, [r13+r8*1+0x0]
   8b790:       4c 89 fa                mov    rdx, r15
   8b793:       48 89 ef                mov    rdi, rbp
   8b796:       e8 a5 26 00 00          call   0x8de40
   8b79b:       4c 29 f8                sub    rax, r15
   8b79e:       49 01 c4                add    r12, rax
   8b7a1:       e9 48 ff ff ff          jmp    0x8b6ee
   8b7a6:       66 2e 0f 1f 84 00 00 00 00 00   cs nop WORD PTR [rax+rax*1+0x0]
   8b7b0:       48 83 e8 01             sub    rax, 0x1
   8b7b4:       80 38 0a                cmp    BYTE PTR [rax], 0xa
   8b7b7:       0f 84 13 01 00 00       je     0x8b8d0
   8b7bd:       49 39 c5                cmp    r13, rax
   8b7c0:       72 ee                   jb     0x8b7b0
   8b7c2:       45 31 f6                xor    r14d, r14d
   8b7c5:       e9 00 ff ff ff          jmp    0x8b6ca
   8b7ca:       66 0f 1f 44 00 00       nop    WORD PTR [rax+rax*1+0x0]
   8b7d0:       48 8b 85 d8 00 00 00    mov    rax, QWORD PTR [rbp+0xd8]
   8b7d7:       f7 45 00 00 10 00 00    test   DWORD PTR [rbp+0x0], 0x1000
   8b7de:       0f 85 0c 01 00 00       jne    0x8b8f0
   8b7e4:       48 8b 55 10             mov    rdx, QWORD PTR [rbp+0x10]
   8b7e8:       48 8b 75 20             mov    rsi, QWORD PTR [rbp+0x20]
   8b7ec:       48 39 f2                cmp    rdx, rsi
   8b7ef:       74 40                   je     0x8b831
   8b7f1:       48 89 c1                mov    rcx, rax
   8b7f4:       4c 29 f1                sub    rcx, r14
   8b7f7:       49 39 cc                cmp    r12, rcx
   8b7fa:       0f 86 7d 01 00 00       jbe    0x8b97d
   8b800:       48 29 d6                sub    rsi, rdx
   8b803:       4c 89 04 24             mov    QWORD PTR [rsp], r8
   8b807:       ba 01 00 00 00          mov    edx, 0x1
   8b80c:       48 89 ef                mov    rdi, rbp
   8b80f:       ff 90 80 00 00 00       call   QWORD PTR [rax+0x80]
   8b815:       48 83 f8 ff             cmp    rax, 0xffffffffffffffff
   8b819:       0f 84 0b 01 00 00       je     0x8b92a
   8b81f:       48 89 85 90 00 00 00    mov    QWORD PTR [rbp+0x90], rax
   8b826:       4c 8b 04 24             mov    r8, QWORD PTR [rsp]
   8b82a:       48 8b 85 d8 00 00 00    mov    rax, QWORD PTR [rbp+0xd8]
   8b831:       48 89 c2                mov    rdx, rax
   8b834:       4c 29 f2                sub    rdx, r14
   8b837:       49 39 d4                cmp    r12, rdx
   8b83a:       0f 86 21 01 00 00       jbe    0x8b961
   8b840:       4c 89 04 24             mov    QWORD PTR [rsp], r8
   8b844:       4c 89 c2                mov    rdx, r8
   8b847:       4c 89 ee                mov    rsi, r13
   8b84a:       48 89 ef                mov    rdi, rbp
   8b84d:       ff 50 78                call   QWORD PTR [rax+0x78]
   8b850:       4c 8b 04 24             mov    r8, QWORD PTR [rsp]
   8b854:       49 89 c6                mov    r14, rax
   8b857:       0f b7 85 80 00 00 00    movzx  eax, WORD PTR [rbp+0x80]
   8b85e:       4d 85 f6                test   r14, r14
   8b861:       74 09                   je     0x8b86c
   8b863:       66 85 c0                test   ax, ax
   8b866:       0f 85 d4 00 00 00       jne    0x8b940
   8b86c:       48 8b 45 38             mov    rax, QWORD PTR [rbp+0x38]
   8b870:       8b 95 c0 00 00 00       mov    edx, DWORD PTR [rbp+0xc0]
   8b876:       66 48 0f 6e c0          movq   xmm0, rax
   8b87b:       48 89 45 28             mov    QWORD PTR [rbp+0x28], rax
   8b87f:       66 0f 6c c0             punpcklqdq xmm0, xmm0
   8b883:       0f 11 45 08             movups XMMWORD PTR [rbp+0x8], xmm0
   8b887:       0f 11 45 18             movups XMMWORD PTR [rbp+0x18], xmm0
   8b88b:       85 d2                   test   edx, edx
   8b88d:       0f 8e 85 00 00 00       jle    0x8b918
   8b893:       48 8b 45 40             mov    rax, QWORD PTR [rbp+0x40]
   8b897:       48 89 45 30             mov    QWORD PTR [rbp+0x30], rax
   8b89b:       4d 39 c6                cmp    r14, r8
   8b89e:       0f 82 89 00 00 00       jb     0x8b92d
   8b8a4:       4d 29 f7                sub    r15, r14
   8b8a7:       e9 d3 fe ff ff          jmp    0x8b77f
   8b8ac:       0f 1f 40 00             nop    DWORD PTR [rax+0x0]
   8b8b0:       4c 29 fb                sub    rbx, r15
   8b8b3:       48 c7 c0 ff ff ff ff    mov    rax, 0xffffffffffffffff
   8b8ba:       4d 85 ff                test   r15, r15
   8b8bd:       49 89 dc                mov    r12, rbx
   8b8c0:       4c 0f 44 e0             cmove  r12, rax
   8b8c4:       e9 25 fe ff ff          jmp    0x8b6ee
   8b8c9:       0f 1f 80 00 00 00 00    nop    DWORD PTR [rax+0x0]
   8b8d0:       4c 29 e8                sub    rax, r13
   8b8d3:       48 83 c0 01             add    rax, 0x1
   8b8d7:       49 89 c4                mov    r12, rax
   8b8da:       0f 85 c1 00 00 00       jne    0x8b9a1
   8b8e0:       49 89 df                mov    r15, rbx
   8b8e3:       41 be 01 00 00 00       mov    r14d, 0x1
   8b8e9:       e9 fb fd ff ff          jmp    0x8b6e9
   8b8ee:       66 90                   xchg   ax, ax
   8b8f0:       48 c7 85 90 00 00 00 ff ff ff ff        mov    QWORD PTR [rbp+0x90], 0xffffffffffffffff
   8b8fb:       e9 31 ff ff ff          jmp    0x8b831
   8b900:       48 89 04 24             mov    QWORD PTR [rsp], rax
   8b904:       e8 67 e6 ff ff          call   0x89f70
   8b909:       48 8b 04 24             mov    rax, QWORD PTR [rsp]
   8b90d:       e9 38 fe ff ff          jmp    0x8b74a
   8b912:       66 0f 1f 44 00 00       nop    WORD PTR [rax+rax*1+0x0]
   8b918:       f7 45 00 02 02 00 00    test   DWORD PTR [rbp+0x0], 0x202
   8b91f:       0f 85 72 ff ff ff       jne    0x8b897
   8b925:       e9 69 ff ff ff          jmp    0x8b893
   8b92a:       45 31 f6                xor    r14d, r14d
   8b92d:       4c 29 fb                sub    rbx, r15
   8b930:       49 89 dc                mov    r12, rbx
   8b933:       4d 01 f4                add    r12, r14
   8b936:       e9 b3 fd ff ff          jmp    0x8b6ee
   8b93b:       0f 1f 44 00 00          nop    DWORD PTR [rax+rax*1+0x0]
   8b940:       8d 78 ff                lea    edi, [rax-0x1]
   8b943:       44 89 f2                mov    edx, r14d
   8b946:       4c 89 ee                mov    rsi, r13
   8b949:       e8 e2 2f 00 00          call   0x8e930
   8b94e:       4c 8b 04 24             mov    r8, QWORD PTR [rsp]
   8b952:       83 c0 01                add    eax, 0x1
   8b955:       66 89 85 80 00 00 00    mov    WORD PTR [rbp+0x80], ax
   8b95c:       e9 0b ff ff ff          jmp    0x8b86c
   8b961:       48 89 44 24 08          mov    QWORD PTR [rsp+0x8], rax
   8b966:       4c 89 04 24             mov    QWORD PTR [rsp], r8
   8b96a:       e8 01 e6 ff ff          call   0x89f70
   8b96f:       48 8b 44 24 08          mov    rax, QWORD PTR [rsp+0x8]
   8b974:       4c 8b 04 24             mov    r8, QWORD PTR [rsp]
   8b978:       e9 c3 fe ff ff          jmp    0x8b840
   8b97d:       48 89 44 24 08          mov    QWORD PTR [rsp+0x8], rax
   8b982:       4c 89 04 24             mov    QWORD PTR [rsp], r8
   8b986:       e8 e5 e5 ff ff          call   0x89f70
   8b98b:       48 8b 75 20             mov    rsi, QWORD PTR [rbp+0x20]
   8b98f:       48 8b 55 10             mov    rdx, QWORD PTR [rbp+0x10]
   8b993:       48 8b 44 24 08          mov    rax, QWORD PTR [rsp+0x8]
   8b998:       4c 8b 04 24             mov    r8, QWORD PTR [rsp]
   8b99c:       e9 5f fe ff ff          jmp    0x8b800
   8b9a1:       41 be 01 00 00 00       mov    r14d, 0x1
   8b9a7:       e9 1e fd ff ff          jmp    0x8b6ca
================
_IO_file_xsgetn 0x8b330
   8b330:       f3 0f 1e fa             endbr64 
   8b334:       41 57                   push   r15
   8b336:       41 56                   push   r14
   8b338:       41 55                   push   r13
   8b33a:       49 89 f5                mov    r13, rsi
   8b33d:       41 54                   push   r12
   8b33f:       55                      push   rbp
   8b340:       53                      push   rbx
   8b341:       48 89 fb                mov    rbx, rdi
   8b344:       48 83 ec 18             sub    rsp, 0x18
   8b348:       48 83 7f 38 00          cmp    QWORD PTR [rdi+0x38], 0x0
   8b34d:       48 89 14 24             mov    QWORD PTR [rsp], rdx
   8b351:       0f 84 d1 01 00 00       je     0x8b528
   8b357:       48 8b 04 24             mov    rax, QWORD PTR [rsp]
   8b35b:       4c 8d 3d 9e a6 18 00    lea    r15, [rip+0x18a69e]        # 0x215a00
   8b362:       4c 8d 35 ff b3 18 00    lea    r14, [rip+0x18b3ff]        # 0x216768
   8b369:       4d 29 fe                sub    r14, r15
   8b36c:       49 89 c4                mov    r12, rax
   8b36f:       48 85 c0                test   rax, rax
   8b372:       0f 84 cc 00 00 00       je     0x8b444
   8b378:       0f 1f 84 00 00 00 00 00         nop    DWORD PTR [rax+rax*1+0x0]
   8b380:       48 8b 73 08             mov    rsi, QWORD PTR [rbx+0x8]
   8b384:       48 8b 6b 10             mov    rbp, QWORD PTR [rbx+0x10]
   8b388:       48 29 f5                sub    rbp, rsi
   8b38b:       4c 39 e5                cmp    rbp, r12
   8b38e:       0f 83 04 01 00 00       jae    0x8b498
   8b394:       48 85 ed                test   rbp, rbp
   8b397:       0f 85 bb 00 00 00       jne    0x8b458
   8b39d:       f7 03 00 01 00 00       test   DWORD PTR [rbx], 0x100
   8b3a3:       0f 85 d0 00 00 00       jne    0x8b479
   8b3a9:       48 8b 4b 38             mov    rcx, QWORD PTR [rbx+0x38]
   8b3ad:       48 85 c9                test   rcx, rcx
   8b3b0:       0f 84 9a 00 00 00       je     0x8b450
   8b3b6:       48 8b 73 40             mov    rsi, QWORD PTR [rbx+0x40]
   8b3ba:       48 29 ce                sub    rsi, rcx
   8b3bd:       4c 39 e6                cmp    rsi, r12
   8b3c0:       0f 87 ea 00 00 00       ja     0x8b4b0
   8b3c6:       48 83 fe 7f             cmp    rsi, 0x7f
   8b3ca:       0f 86 80 00 00 00       jbe    0x8b450
   8b3d0:       4c 89 e0                mov    rax, r12
   8b3d3:       31 d2                   xor    edx, edx
   8b3d5:       48 f7 f6                div    rsi
   8b3d8:       48 89 d7                mov    rdi, rdx
   8b3db:       4c 89 e2                mov    rdx, r12
   8b3de:       48 29 fa                sub    rdx, rdi
   8b3e1:       48 8b ab d8 00 00 00    mov    rbp, QWORD PTR [rbx+0xd8]
   8b3e8:       66 48 0f 6e c1          movq   xmm0, rcx
   8b3ed:       66 0f 6c c0             punpcklqdq xmm0, xmm0
   8b3f1:       48 89 e8                mov    rax, rbp
   8b3f4:       0f 11 43 08             movups XMMWORD PTR [rbx+0x8], xmm0
   8b3f8:       4c 29 f8                sub    rax, r15
   8b3fb:       0f 11 43 18             movups XMMWORD PTR [rbx+0x18], xmm0
   8b3ff:       0f 11 43 28             movups XMMWORD PTR [rbx+0x28], xmm0
   8b403:       49 39 c6                cmp    r14, rax
   8b406:       0f 86 d4 00 00 00       jbe    0x8b4e0
   8b40c:       4c 89 ee                mov    rsi, r13
   8b40f:       48 89 df                mov    rdi, rbx
   8b412:       ff 55 70                call   QWORD PTR [rbp+0x70]
   8b415:       48 85 c0                test   rax, rax
   8b418:       0f 8e ea 00 00 00       jle    0x8b508
   8b41e:       48 8b 93 90 00 00 00    mov    rdx, QWORD PTR [rbx+0x90]
   8b425:       49 01 c5                add    r13, rax
   8b428:       49 29 c4                sub    r12, rax
   8b42b:       48 83 fa ff             cmp    rdx, 0xffffffffffffffff
   8b42f:       74 0a                   je     0x8b43b
   8b431:       48 01 c2                add    rdx, rax
   8b434:       48 89 93 90 00 00 00    mov    QWORD PTR [rbx+0x90], rdx
   8b43b:       4d 85 e4                test   r12, r12
   8b43e:       0f 85 3c ff ff ff       jne    0x8b380
   8b444:       4c 8b 2c 24             mov    r13, QWORD PTR [rsp]
   8b448:       eb 7e                   jmp    0x8b4c8
   8b44a:       66 0f 1f 44 00 00       nop    WORD PTR [rax+rax*1+0x0]
   8b450:       4c 89 e2                mov    rdx, r12
   8b453:       eb 8c                   jmp    0x8b3e1
   8b455:       0f 1f 00                nop    DWORD PTR [rax]
   8b458:       4c 89 ef                mov    rdi, r13
   8b45b:       48 89 ea                mov    rdx, rbp
   8b45e:       49 29 ec                sub    r12, rbp
   8b461:       e8 7a cf f9 ff          call   0x283e0
   8b466:       48 01 6b 08             add    QWORD PTR [rbx+0x8], rbp
   8b46a:       49 89 c5                mov    r13, rax
   8b46d:       f7 03 00 01 00 00       test   DWORD PTR [rbx], 0x100
   8b473:       0f 84 30 ff ff ff       je     0x8b3a9
   8b479:       48 89 df                mov    rdi, rbx
   8b47c:       e8 af 22 00 00          call   0x8d730
   8b481:       48 8b 73 08             mov    rsi, QWORD PTR [rbx+0x8]
   8b485:       48 8b 6b 10             mov    rbp, QWORD PTR [rbx+0x10]
   8b489:       48 29 f5                sub    rbp, rsi
   8b48c:       4c 39 e5                cmp    rbp, r12
   8b48f:       0f 82 ff fe ff ff       jb     0x8b394
   8b495:       0f 1f 00                nop    DWORD PTR [rax]
   8b498:       4c 89 ef                mov    rdi, r13
   8b49b:       4c 89 e2                mov    rdx, r12
   8b49e:       e8 7d d1 f9 ff          call   0x28620
   8b4a3:       4c 01 63 08             add    QWORD PTR [rbx+0x8], r12
   8b4a7:       4c 8b 2c 24             mov    r13, QWORD PTR [rsp]
   8b4ab:       eb 1b                   jmp    0x8b4c8
   8b4ad:       0f 1f 00                nop    DWORD PTR [rax]
   8b4b0:       48 89 df                mov    rdi, rbx
   8b4b3:       e8 38 24 00 00          call   0x8d8f0
   8b4b8:       83 f8 ff                cmp    eax, 0xffffffff
   8b4bb:       0f 85 bf fe ff ff       jne    0x8b380
   8b4c1:       4c 8b 2c 24             mov    r13, QWORD PTR [rsp]
   8b4c5:       4d 29 e5                sub    r13, r12
   8b4c8:       48 83 c4 18             add    rsp, 0x18
   8b4cc:       4c 89 e8                mov    rax, r13
   8b4cf:       5b                      pop    rbx
   8b4d0:       5d                      pop    rbp
   8b4d1:       41 5c                   pop    r12
   8b4d3:       41 5d                   pop    r13
   8b4d5:       41 5e                   pop    r14
   8b4d7:       41 5f                   pop    r15
   8b4d9:       c3                      ret    
   8b4da:       66 0f 1f 44 00 00       nop    WORD PTR [rax+rax*1+0x0]
   8b4e0:       48 89 54 24 08          mov    QWORD PTR [rsp+0x8], rdx
   8b4e5:       e8 86 ea ff ff          call   0x89f70
   8b4ea:       48 8b 54 24 08          mov    rdx, QWORD PTR [rsp+0x8]
   8b4ef:       4c 89 ee                mov    rsi, r13
   8b4f2:       48 89 df                mov    rdi, rbx
   8b4f5:       ff 55 70                call   QWORD PTR [rbp+0x70]
   8b4f8:       48 85 c0                test   rax, rax
   8b4fb:       0f 8f 1d ff ff ff       jg     0x8b41e
   8b501:       0f 1f 80 00 00 00 00    nop    DWORD PTR [rax+0x0]
   8b508:       8b 13                   mov    edx, DWORD PTR [rbx]
   8b50a:       4c 8b 2c 24             mov    r13, QWORD PTR [rsp]
   8b50e:       89 d1                   mov    ecx, edx
   8b510:       4d 29 e5                sub    r13, r12
   8b513:       83 ca 10                or     edx, 0x10
   8b516:       83 c9 20                or     ecx, 0x20
   8b519:       48 85 c0                test   rax, rax
   8b51c:       0f 45 d1                cmovne edx, ecx
   8b51f:       89 13                   mov    DWORD PTR [rbx], edx
   8b521:       eb a5                   jmp    0x8b4c8
   8b523:       0f 1f 44 00 00          nop    DWORD PTR [rax+rax*1+0x0]
   8b528:       48 8b 7f 48             mov    rdi, QWORD PTR [rdi+0x48]
   8b52c:       48 85 ff                test   rdi, rdi
   8b52f:       74 0b                   je     0x8b53c
   8b531:       e8 3a ce f9 ff          call   0x28370
   8b536:       81 23 ff fe ff ff       and    DWORD PTR [rbx], 0xfffffeff
   8b53c:       48 89 df                mov    rdi, rbx
   8b53f:       e8 cc 27 00 00          call   0x8dd10
   8b544:       e9 0e fe ff ff          jmp    0x8b357
================
_IO_default_seekoff 0x8e820
   8e820:       f3 0f 1e fa             endbr64 
   8e824:       48 c7 c0 ff ff ff ff    mov    rax, 0xffffffffffffffff
   8e82b:       c3                      ret
================
_IO_wdefault_xsputn 0x839b0
   839b0:       f3 0f 1e fa             endbr64 
   839b4:       41 57                   push   r15
   839b6:       31 c0                   xor    eax, eax
   839b8:       41 56                   push   r14
   839ba:       41 55                   push   r13
   839bc:       41 54                   push   r12
   839be:       55                      push   rbp
   839bf:       53                      push   rbx
   839c0:       48 83 ec 18             sub    rsp, 0x18
   839c4:       48 89 54 24 08          mov    QWORD PTR [rsp+0x8], rdx
   839c9:       48 85 d2                test   rdx, rdx
   839cc:       0f 84 db 00 00 00       je     0x83aad
   839d2:       48 8d 2d 27 20 19 00    lea    rbp, [rip+0x192027]        # 0x215a00
   839d9:       49 89 fe                mov    r14, rdi
   839dc:       49 89 f7                mov    r15, rsi
   839df:       49 89 d5                mov    r13, rdx
   839e2:       48 8d 1d 7f 2d 19 00    lea    rbx, [rip+0x192d7f]        # 0x216768
   839e9:       48 29 eb                sub    rbx, rbp
   839ec:       eb 2e                   jmp    0x83a1c
   839ee:       66 90                   xchg   ax, ax
   839f0:       49 8b 86 d8 00 00 00    mov    rax, QWORD PTR [r14+0xd8]
   839f7:       48 89 c2                mov    rdx, rax
   839fa:       48 29 ea                sub    rdx, rbp
   839fd:       48 39 d3                cmp    rbx, rdx
   83a00:       0f 86 8a 01 00 00       jbe    0x83b90
   83a06:       44 89 e6                mov    esi, r12d
   83a09:       4c 89 f7                mov    rdi, r14
   83a0c:       ff 50 18                call   QWORD PTR [rax+0x18]
   83a0f:       83 f8 ff                cmp    eax, 0xffffffff
   83a12:       0f 84 98 01 00 00       je     0x83bb0
   83a18:       49 83 ed 01             sub    r13, 0x1
   83a1c:       49 8b 8e a0 00 00 00    mov    rcx, QWORD PTR [r14+0xa0]
   83a23:       4c 89 fa                mov    rdx, r15
   83a26:       48 8b 79 20             mov    rdi, QWORD PTR [rcx+0x20]
   83a2a:       48 8b 41 28             mov    rax, QWORD PTR [rcx+0x28]
   83a2e:       48 29 f8                sub    rax, rdi
   83a31:       48 85 c0                test   rax, rax
   83a34:       7e 20                   jle    0x83a56
   83a36:       48 c1 f8 02             sar    rax, 0x2
   83a3a:       49 89 c4                mov    r12, rax
   83a3d:       4c 39 e8                cmp    rax, r13
   83a40:       76 06                   jbe    0x83a48
   83a42:       4c 89 e8                mov    rax, r13
   83a45:       4d 89 ec                mov    r12, r13
   83a48:       48 83 f8 14             cmp    rax, 0x14
   83a4c:       7f 32                   jg     0x83a80
   83a4e:       4c 89 fa                mov    rdx, r15
   83a51:       48 85 c0                test   rax, rax
   83a54:       75 6a                   jne    0x83ac0
   83a56:       4d 85 ed                test   r13, r13
   83a59:       74 4d                   je     0x83aa8
   83a5b:       41 8b 86 c0 00 00 00    mov    eax, DWORD PTR [r14+0xc0]
   83a62:       44 8b 22                mov    r12d, DWORD PTR [rdx]
   83a65:       4c 8d 7a 04             lea    r15, [rdx+0x4]
   83a69:       85 c0                   test   eax, eax
   83a6b:       75 83                   jne    0x839f0
   83a6d:       be 01 00 00 00          mov    esi, 0x1
   83a72:       4c 89 f7                mov    rdi, r14
   83a75:       e8 86 30 00 00          call   0x86b00
   83a7a:       e9 71 ff ff ff          jmp    0x839f0
   83a7f:       90                      nop
   83a80:       4c 89 e2                mov    rdx, r12
   83a83:       4c 89 fe                mov    rsi, r15
   83a86:       48 89 0c 24             mov    QWORD PTR [rsp], rcx
   83a8a:       4d 29 e5                sub    r13, r12
   83a8d:       e8 0e 22 04 00          call   0xc5ca0
   83a92:       48 8b 0c 24             mov    rcx, QWORD PTR [rsp]
   83a96:       4b 8d 14 a7             lea    rdx, [r15+r12*4]
   83a9a:       48 89 41 20             mov    QWORD PTR [rcx+0x20], rax
   83a9e:       4d 85 ed                test   r13, r13
   83aa1:       75 b8                   jne    0x83a5b
   83aa3:       0f 1f 44 00 00          nop    DWORD PTR [rax+rax*1+0x0]
   83aa8:       48 8b 44 24 08          mov    rax, QWORD PTR [rsp+0x8]
   83aad:       48 83 c4 18             add    rsp, 0x18
   83ab1:       5b                      pop    rbx
   83ab2:       5d                      pop    rbp
   83ab3:       41 5c                   pop    r12
   83ab5:       41 5d                   pop    r13
   83ab7:       41 5e                   pop    r14
   83ab9:       41 5f                   pop    r15
   83abb:       c3                      ret    
   83abc:       0f 1f 40 00             nop    DWORD PTR [rax+0x0]
   83ac0:       4d 8d 4f 04             lea    r9, [r15+0x4]
   83ac4:       48 89 fe                mov    rsi, rdi
   83ac7:       48 8d 50 ff             lea    rdx, [rax-0x1]
   83acb:       4c 29 ce                sub    rsi, r9
   83ace:       48 83 fe 08             cmp    rsi, 0x8
   83ad2:       0f 86 e8 00 00 00       jbe    0x83bc0
   83ad8:       48 83 fa 02             cmp    rdx, 0x2
   83adc:       0f 86 de 00 00 00       jbe    0x83bc0
   83ae2:       f3 41 0f 6f 07          movdqu xmm0, XMMWORD PTR [r15]
   83ae7:       48 89 c6                mov    rsi, rax
   83aea:       48 c1 ee 02             shr    rsi, 0x2
   83aee:       0f 11 07                movups XMMWORD PTR [rdi], xmm0
   83af1:       48 83 fe 01             cmp    rsi, 0x1
   83af5:       74 59                   je     0x83b50
   83af7:       f3 41 0f 6f 4f 10       movdqu xmm1, XMMWORD PTR [r15+0x10]
   83afd:       0f 11 4f 10             movups XMMWORD PTR [rdi+0x10], xmm1
   83b01:       48 83 fe 02             cmp    rsi, 0x2
   83b05:       74 49                   je     0x83b50
   83b07:       f3 41 0f 6f 57 20       movdqu xmm2, XMMWORD PTR [r15+0x20]
   83b0d:       0f 11 57 20             movups XMMWORD PTR [rdi+0x20], xmm2
   83b11:       48 83 fe 03             cmp    rsi, 0x3
   83b15:       74 39                   je     0x83b50
   83b17:       f3 41 0f 6f 5f 30       movdqu xmm3, XMMWORD PTR [r15+0x30]
   83b1d:       0f 11 5f 30             movups XMMWORD PTR [rdi+0x30], xmm3
   83b21:       48 83 fe 05             cmp    rsi, 0x5
   83b25:       75 29                   jne    0x83b50
   83b27:       f3 41 0f 6f 67 40       movdqu xmm4, XMMWORD PTR [r15+0x40]
   83b2d:       0f 11 67 40             movups XMMWORD PTR [rdi+0x40], xmm4
   83b31:       48 c1 e0 02             shl    rax, 0x2
   83b35:       4d 29 e5                sub    r13, r12
   83b38:       48 01 c7                add    rdi, rax
   83b3b:       49 8d 14 07             lea    rdx, [r15+rax*1]
   83b3f:       48 89 79 20             mov    QWORD PTR [rcx+0x20], rdi
   83b43:       e9 0e ff ff ff          jmp    0x83a56
   83b48:       0f 1f 84 00 00 00 00 00         nop    DWORD PTR [rax+rax*1+0x0]
   83b50:       49 89 c1                mov    r9, rax
   83b53:       49 83 e1 fc             and    r9, 0xfffffffffffffffc
   83b57:       4a 8d 34 8d 00 00 00 00         lea    rsi, [r9*4+0x0]
   83b5f:       4c 29 ca                sub    rdx, r9
   83b62:       4d 8d 14 37             lea    r10, [r15+rsi*1]
   83b66:       48 01 fe                add    rsi, rdi
   83b69:       4c 39 c8                cmp    rax, r9
   83b6c:       74 c3                   je     0x83b31
   83b6e:       45 8b 0a                mov    r9d, DWORD PTR [r10]
   83b71:       44 89 0e                mov    DWORD PTR [rsi], r9d
   83b74:       48 85 d2                test   rdx, rdx
   83b77:       74 b8                   je     0x83b31
   83b79:       45 8b 4a 04             mov    r9d, DWORD PTR [r10+0x4]
   83b7d:       44 89 4e 04             mov    DWORD PTR [rsi+0x4], r9d
   83b81:       48 83 fa 01             cmp    rdx, 0x1
   83b85:       74 aa                   je     0x83b31
   83b87:       41 8b 52 08             mov    edx, DWORD PTR [r10+0x8]
   83b8b:       89 56 08                mov    DWORD PTR [rsi+0x8], edx
   83b8e:       eb a1                   jmp    0x83b31
   83b90:       48 89 04 24             mov    QWORD PTR [rsp], rax
   83b94:       e8 d7 63 00 00          call   0x89f70
   83b99:       48 8b 04 24             mov    rax, QWORD PTR [rsp]
   83b9d:       44 89 e6                mov    esi, r12d
   83ba0:       4c 89 f7                mov    rdi, r14
   83ba3:       ff 50 18                call   QWORD PTR [rax+0x18]
   83ba6:       83 f8 ff                cmp    eax, 0xffffffff
   83ba9:       0f 85 69 fe ff ff       jne    0x83a18
   83baf:       90                      nop
   83bb0:       4c 29 6c 24 08          sub    QWORD PTR [rsp+0x8], r13
   83bb5:       48 8b 44 24 08          mov    rax, QWORD PTR [rsp+0x8]
   83bba:       e9 ee fe ff ff          jmp    0x83aad
   83bbf:       90                      nop
   83bc0:       4c 8d 0c 85 00 00 00 00         lea    r9, [rax*4+0x0]
   83bc8:       31 d2                   xor    edx, edx
   83bca:       66 0f 1f 44 00 00       nop    WORD PTR [rax+rax*1+0x0]
   83bd0:       41 8b 34 17             mov    esi, DWORD PTR [r15+rdx*1]
   83bd4:       89 34 17                mov    DWORD PTR [rdi+rdx*1], esi
   83bd7:       48 83 c2 04             add    rdx, 0x4
   83bdb:       4c 39 ca                cmp    rdx, r9
   83bde:       75 f0                   jne    0x83bd0
   83be0:       e9 4c ff ff ff          jmp    0x83b31
================
_IO_wdefault_xsputn 0x839b0
   839b0:       f3 0f 1e fa             endbr64 
   839b4:       41 57                   push   r15
   839b6:       31 c0                   xor    eax, eax
   839b8:       41 56                   push   r14
   839ba:       41 55                   push   r13
   839bc:       41 54                   push   r12
   839be:       55                      push   rbp
   839bf:       53                      push   rbx
   839c0:       48 83 ec 18             sub    rsp, 0x18
   839c4:       48 89 54 24 08          mov    QWORD PTR [rsp+0x8], rdx
   839c9:       48 85 d2                test   rdx, rdx
   839cc:       0f 84 db 00 00 00       je     0x83aad
   839d2:       48 8d 2d 27 20 19 00    lea    rbp, [rip+0x192027]        # 0x215a00
   839d9:       49 89 fe                mov    r14, rdi
   839dc:       49 89 f7                mov    r15, rsi
   839df:       49 89 d5                mov    r13, rdx
   839e2:       48 8d 1d 7f 2d 19 00    lea    rbx, [rip+0x192d7f]        # 0x216768
   839e9:       48 29 eb                sub    rbx, rbp
   839ec:       eb 2e                   jmp    0x83a1c
   839ee:       66 90                   xchg   ax, ax
   839f0:       49 8b 86 d8 00 00 00    mov    rax, QWORD PTR [r14+0xd8]
   839f7:       48 89 c2                mov    rdx, rax
   839fa:       48 29 ea                sub    rdx, rbp
   839fd:       48 39 d3                cmp    rbx, rdx
   83a00:       0f 86 8a 01 00 00       jbe    0x83b90
   83a06:       44 89 e6                mov    esi, r12d
   83a09:       4c 89 f7                mov    rdi, r14
   83a0c:       ff 50 18                call   QWORD PTR [rax+0x18]
   83a0f:       83 f8 ff                cmp    eax, 0xffffffff
   83a12:       0f 84 98 01 00 00       je     0x83bb0
   83a18:       49 83 ed 01             sub    r13, 0x1
   83a1c:       49 8b 8e a0 00 00 00    mov    rcx, QWORD PTR [r14+0xa0]
   83a23:       4c 89 fa                mov    rdx, r15
   83a26:       48 8b 79 20             mov    rdi, QWORD PTR [rcx+0x20]
   83a2a:       48 8b 41 28             mov    rax, QWORD PTR [rcx+0x28]
   83a2e:       48 29 f8                sub    rax, rdi
   83a31:       48 85 c0                test   rax, rax
   83a34:       7e 20                   jle    0x83a56
   83a36:       48 c1 f8 02             sar    rax, 0x2
   83a3a:       49 89 c4                mov    r12, rax
   83a3d:       4c 39 e8                cmp    rax, r13
   83a40:       76 06                   jbe    0x83a48
   83a42:       4c 89 e8                mov    rax, r13
   83a45:       4d 89 ec                mov    r12, r13
   83a48:       48 83 f8 14             cmp    rax, 0x14
   83a4c:       7f 32                   jg     0x83a80
   83a4e:       4c 89 fa                mov    rdx, r15
   83a51:       48 85 c0                test   rax, rax
   83a54:       75 6a                   jne    0x83ac0
   83a56:       4d 85 ed                test   r13, r13
   83a59:       74 4d                   je     0x83aa8
   83a5b:       41 8b 86 c0 00 00 00    mov    eax, DWORD PTR [r14+0xc0]
   83a62:       44 8b 22                mov    r12d, DWORD PTR [rdx]
   83a65:       4c 8d 7a 04             lea    r15, [rdx+0x4]
   83a69:       85 c0                   test   eax, eax
   83a6b:       75 83                   jne    0x839f0
   83a6d:       be 01 00 00 00          mov    esi, 0x1
   83a72:       4c 89 f7                mov    rdi, r14
   83a75:       e8 86 30 00 00          call   0x86b00
   83a7a:       e9 71 ff ff ff          jmp    0x839f0
   83a7f:       90                      nop
   83a80:       4c 89 e2                mov    rdx, r12
   83a83:       4c 89 fe                mov    rsi, r15
   83a86:       48 89 0c 24             mov    QWORD PTR [rsp], rcx
   83a8a:       4d 29 e5                sub    r13, r12
   83a8d:       e8 0e 22 04 00          call   0xc5ca0
   83a92:       48 8b 0c 24             mov    rcx, QWORD PTR [rsp]
   83a96:       4b 8d 14 a7             lea    rdx, [r15+r12*4]
   83a9a:       48 89 41 20             mov    QWORD PTR [rcx+0x20], rax
   83a9e:       4d 85 ed                test   r13, r13
   83aa1:       75 b8                   jne    0x83a5b
   83aa3:       0f 1f 44 00 00          nop    DWORD PTR [rax+rax*1+0x0]
   83aa8:       48 8b 44 24 08          mov    rax, QWORD PTR [rsp+0x8]
   83aad:       48 83 c4 18             add    rsp, 0x18
   83ab1:       5b                      pop    rbx
   83ab2:       5d                      pop    rbp
   83ab3:       41 5c                   pop    r12
   83ab5:       41 5d                   pop    r13
   83ab7:       41 5e                   pop    r14
   83ab9:       41 5f                   pop    r15
   83abb:       c3                      ret    
   83abc:       0f 1f 40 00             nop    DWORD PTR [rax+0x0]
   83ac0:       4d 8d 4f 04             lea    r9, [r15+0x4]
   83ac4:       48 89 fe                mov    rsi, rdi
   83ac7:       48 8d 50 ff             lea    rdx, [rax-0x1]
   83acb:       4c 29 ce                sub    rsi, r9
   83ace:       48 83 fe 08             cmp    rsi, 0x8
   83ad2:       0f 86 e8 00 00 00       jbe    0x83bc0
   83ad8:       48 83 fa 02             cmp    rdx, 0x2
   83adc:       0f 86 de 00 00 00       jbe    0x83bc0
   83ae2:       f3 41 0f 6f 07          movdqu xmm0, XMMWORD PTR [r15]
   83ae7:       48 89 c6                mov    rsi, rax
   83aea:       48 c1 ee 02             shr    rsi, 0x2
   83aee:       0f 11 07                movups XMMWORD PTR [rdi], xmm0
   83af1:       48 83 fe 01             cmp    rsi, 0x1
   83af5:       74 59                   je     0x83b50
   83af7:       f3 41 0f 6f 4f 10       movdqu xmm1, XMMWORD PTR [r15+0x10]
   83afd:       0f 11 4f 10             movups XMMWORD PTR [rdi+0x10], xmm1
   83b01:       48 83 fe 02             cmp    rsi, 0x2
   83b05:       74 49                   je     0x83b50
   83b07:       f3 41 0f 6f 57 20       movdqu xmm2, XMMWORD PTR [r15+0x20]
   83b0d:       0f 11 57 20             movups XMMWORD PTR [rdi+0x20], xmm2
   83b11:       48 83 fe 03             cmp    rsi, 0x3
   83b15:       74 39                   je     0x83b50
   83b17:       f3 41 0f 6f 5f 30       movdqu xmm3, XMMWORD PTR [r15+0x30]
   83b1d:       0f 11 5f 30             movups XMMWORD PTR [rdi+0x30], xmm3
   83b21:       48 83 fe 05             cmp    rsi, 0x5
   83b25:       75 29                   jne    0x83b50
   83b27:       f3 41 0f 6f 67 40       movdqu xmm4, XMMWORD PTR [r15+0x40]
   83b2d:       0f 11 67 40             movups XMMWORD PTR [rdi+0x40], xmm4
   83b31:       48 c1 e0 02             shl    rax, 0x2
   83b35:       4d 29 e5                sub    r13, r12
   83b38:       48 01 c7                add    rdi, rax
   83b3b:       49 8d 14 07             lea    rdx, [r15+rax*1]
   83b3f:       48 89 79 20             mov    QWORD PTR [rcx+0x20], rdi
   83b43:       e9 0e ff ff ff          jmp    0x83a56
   83b48:       0f 1f 84 00 00 00 00 00         nop    DWORD PTR [rax+rax*1+0x0]
   83b50:       49 89 c1                mov    r9, rax
   83b53:       49 83 e1 fc             and    r9, 0xfffffffffffffffc
   83b57:       4a 8d 34 8d 00 00 00 00         lea    rsi, [r9*4+0x0]
   83b5f:       4c 29 ca                sub    rdx, r9
   83b62:       4d 8d 14 37             lea    r10, [r15+rsi*1]
   83b66:       48 01 fe                add    rsi, rdi
   83b69:       4c 39 c8                cmp    rax, r9
   83b6c:       74 c3                   je     0x83b31
   83b6e:       45 8b 0a                mov    r9d, DWORD PTR [r10]
   83b71:       44 89 0e                mov    DWORD PTR [rsi], r9d
   83b74:       48 85 d2                test   rdx, rdx
   83b77:       74 b8                   je     0x83b31
   83b79:       45 8b 4a 04             mov    r9d, DWORD PTR [r10+0x4]
   83b7d:       44 89 4e 04             mov    DWORD PTR [rsi+0x4], r9d
   83b81:       48 83 fa 01             cmp    rdx, 0x1
   83b85:       74 aa                   je     0x83b31
   83b87:       41 8b 52 08             mov    edx, DWORD PTR [r10+0x8]
   83b8b:       89 56 08                mov    DWORD PTR [rsi+0x8], edx
   83b8e:       eb a1                   jmp    0x83b31
   83b90:       48 89 04 24             mov    QWORD PTR [rsp], rax
   83b94:       e8 d7 63 00 00          call   0x89f70
   83b99:       48 8b 04 24             mov    rax, QWORD PTR [rsp]
   83b9d:       44 89 e6                mov    esi, r12d
   83ba0:       4c 89 f7                mov    rdi, r14
   83ba3:       ff 50 18                call   QWORD PTR [rax+0x18]
   83ba6:       83 f8 ff                cmp    eax, 0xffffffff
   83ba9:       0f 85 69 fe ff ff       jne    0x83a18
   83baf:       90                      nop
   83bb0:       4c 29 6c 24 08          sub    QWORD PTR [rsp+0x8], r13
   83bb5:       48 8b 44 24 08          mov    rax, QWORD PTR [rsp+0x8]
   83bba:       e9 ee fe ff ff          jmp    0x83aad
   83bbf:       90                      nop
   83bc0:       4c 8d 0c 85 00 00 00 00         lea    r9, [rax*4+0x0]
   83bc8:       31 d2                   xor    edx, edx
   83bca:       66 0f 1f 44 00 00       nop    WORD PTR [rax+rax*1+0x0]
   83bd0:       41 8b 34 17             mov    esi, DWORD PTR [r15+rdx*1]
   83bd4:       89 34 17                mov    DWORD PTR [rdi+rdx*1], esi
   83bd7:       48 83 c2 04             add    rdx, 0x4
   83bdb:       4c 39 ca                cmp    rdx, r9
   83bde:       75 f0                   jne    0x83bd0
   83be0:       e9 4c ff ff ff          jmp    0x83b31
================
_IO_mem_sync 0x87ca0
   87ca0:       f3 0f 1e fa             endbr64 
   87ca4:       53                      push   rbx
   87ca5:       48 8b 47 30             mov    rax, QWORD PTR [rdi+0x30]
   87ca9:       48 89 fb                mov    rbx, rdi
   87cac:       48 39 47 28             cmp    QWORD PTR [rdi+0x28], rax
   87cb0:       74 26                   je     0x87cd8
   87cb2:       48 8b 53 20             mov    rdx, QWORD PTR [rbx+0x20]
   87cb6:       48 8b 83 f0 00 00 00    mov    rax, QWORD PTR [rbx+0xf0]
   87cbd:       48 8b 8b f8 00 00 00    mov    rcx, QWORD PTR [rbx+0xf8]
   87cc4:       48 89 10                mov    QWORD PTR [rax], rdx
   87cc7:       48 8b 43 28             mov    rax, QWORD PTR [rbx+0x28]
   87ccb:       48 29 d0                sub    rax, rdx
   87cce:       48 89 01                mov    QWORD PTR [rcx], rax
   87cd1:       31 c0                   xor    eax, eax
   87cd3:       5b                      pop    rbx
   87cd4:       c3                      ret    
   87cd5:       0f 1f 00                nop    DWORD PTR [rax]
   87cd8:       31 f6                   xor    esi, esi
   87cda:       e8 31 79 00 00          call   0x8f610
   87cdf:       48 83 6b 28 01          sub    QWORD PTR [rbx+0x28], 0x1
   87ce4:       eb cc                   jmp    0x87cb2
================
_IO_mem_finish 0x87cf0
   87cf0:       f3 0f 1e fa             endbr64 
   87cf4:       55                      push   rbp
   87cf5:       48 89 fd                mov    rbp, rdi
   87cf8:       53                      push   rbx
   87cf9:       48 83 ec 08             sub    rsp, 0x8
   87cfd:       48 8b 7f 20             mov    rdi, QWORD PTR [rdi+0x20]
   87d01:       48 8b 75 28             mov    rsi, QWORD PTR [rbp+0x28]
   87d05:       48 8b 9d f0 00 00 00    mov    rbx, QWORD PTR [rbp+0xf0]
   87d0c:       48 29 fe                sub    rsi, rdi
   87d0f:       48 83 c6 01             add    rsi, 0x1
   87d13:       e8 98 06 fa ff          call   0x283b0
   87d18:       48 89 03                mov    QWORD PTR [rbx], rax
   87d1b:       48 8b 85 f0 00 00 00    mov    rax, QWORD PTR [rbp+0xf0]
   87d22:       48 8b 10                mov    rdx, QWORD PTR [rax]
   87d25:       48 85 d2                test   rdx, rdx
   87d28:       74 26                   je     0x87d50
   87d2a:       48 8b 45 28             mov    rax, QWORD PTR [rbp+0x28]
   87d2e:       48 2b 45 20             sub    rax, QWORD PTR [rbp+0x20]
   87d32:       c6 04 02 00             mov    BYTE PTR [rdx+rax*1], 0x0
   87d36:       48 8b 95 f8 00 00 00    mov    rdx, QWORD PTR [rbp+0xf8]
   87d3d:       48 8b 45 28             mov    rax, QWORD PTR [rbp+0x28]
   87d41:       48 2b 45 20             sub    rax, QWORD PTR [rbp+0x20]
   87d45:       48 89 02                mov    QWORD PTR [rdx], rax
   87d48:       48 c7 45 38 00 00 00 00         mov    QWORD PTR [rbp+0x38], 0x0
   87d50:       48 83 c4 08             add    rsp, 0x8
   87d54:       48 89 ef                mov    rdi, rbp
   87d57:       31 f6                   xor    esi, esi
   87d59:       5b                      pop    rbx
   87d5a:       5d                      pop    rbp
   87d5b:       e9 90 7c 00 00          jmp    0x8f9f0
================
_IO_file_underflow_maybe_mmap 0x8b9e0
   8b9e0:       f3 0f 1e fa             endbr64 
   8b9e4:       41 55                   push   r13
   8b9e6:       41 54                   push   r12
   8b9e8:       4c 8d 25 11 a0 18 00    lea    r12, [rip+0x18a011]        # 0x215a00
   8b9ef:       55                      push   rbp
   8b9f0:       48 89 fd                mov    rbp, rdi
   8b9f3:       53                      push   rbx
   8b9f4:       48 8d 1d 6d ad 18 00    lea    rbx, [rip+0x18ad6d]        # 0x216768
   8b9fb:       4c 29 e3                sub    rbx, r12
   8b9fe:       48 81 ec a8 00 00 00    sub    rsp, 0xa8
   8ba05:       4c 8b af d8 00 00 00    mov    r13, QWORD PTR [rdi+0xd8]
   8ba0c:       64 48 8b 04 25 28 00 00 00      mov    rax, QWORD PTR fs:0x28
   8ba15:       48 89 84 24 98 00 00 00         mov    QWORD PTR [rsp+0x98], rax
   8ba1d:       31 c0                   xor    eax, eax
   8ba1f:       4c 89 e8                mov    rax, r13
   8ba22:       4c 29 e0                sub    rax, r12
   8ba25:       48 39 c3                cmp    rbx, rax
   8ba28:       0f 86 2a 01 00 00       jbe    0x8bb58
   8ba2e:       48 89 e6                mov    rsi, rsp
   8ba31:       48 89 ef                mov    rdi, rbp
   8ba34:       41 ff 95 90 00 00 00    call   QWORD PTR [r13+0x90]
   8ba3b:       85 c0                   test   eax, eax
   8ba3d:       75 10                   jne    0x8ba4f
   8ba3f:       8b 44 24 18             mov    eax, DWORD PTR [rsp+0x18]
   8ba43:       25 00 f0 00 00          and    eax, 0xf000
   8ba48:       3d 00 80 00 00          cmp    eax, 0x8000
   8ba4d:       74 79                   je     0x8bac8
   8ba4f:       48 8d 05 aa ab 18 00    lea    rax, [rip+0x18abaa]        # 0x216600
   8ba56:       48 8d 15 63 a6 18 00    lea    rdx, [rip+0x18a663]        # 0x2160c0
   8ba5d:       8b 8d c0 00 00 00       mov    ecx, DWORD PTR [rbp+0xc0]
   8ba63:       85 c9                   test   ecx, ecx
   8ba65:       48 0f 4f c2             cmovg  rax, rdx
   8ba69:       48 89 85 d8 00 00 00    mov    QWORD PTR [rbp+0xd8], rax
   8ba70:       48 8b 85 a0 00 00 00    mov    rax, QWORD PTR [rbp+0xa0]
   8ba77:       48 89 90 e0 00 00 00    mov    QWORD PTR [rax+0xe0], rdx
   8ba7e:       4c 8b ad d8 00 00 00    mov    r13, QWORD PTR [rbp+0xd8]
   8ba85:       4c 89 e8                mov    rax, r13
   8ba88:       4c 29 e0                sub    rax, r12
   8ba8b:       48 39 d8                cmp    rax, rbx
   8ba8e:       0f 83 b4 00 00 00       jae    0x8bb48
   8ba94:       48 8b 84 24 98 00 00 00         mov    rax, QWORD PTR [rsp+0x98]
   8ba9c:       64 48 2b 04 25 28 00 00 00      sub    rax, QWORD PTR fs:0x28
   8baa5:       0f 85 15 01 00 00       jne    0x8bbc0
   8baab:       49 8b 45 20             mov    rax, QWORD PTR [r13+0x20]
   8baaf:       48 81 c4 a8 00 00 00    add    rsp, 0xa8
   8bab6:       48 89 ef                mov    rdi, rbp
   8bab9:       5b                      pop    rbx
   8baba:       5d                      pop    rbp
   8babb:       41 5c                   pop    r12
   8babd:       41 5d                   pop    r13
   8babf:       ff e0                   jmp    rax
   8bac1:       0f 1f 80 00 00 00 00    nop    DWORD PTR [rax+0x0]
   8bac8:       48 8b 74 24 30          mov    rsi, QWORD PTR [rsp+0x30]
   8bacd:       48 85 f6                test   rsi, rsi
   8bad0:       0f 84 79 ff ff ff       je     0x8ba4f
   8bad6:       48 8b 85 90 00 00 00    mov    rax, QWORD PTR [rbp+0x90]
   8badd:       48 39 c6                cmp    rsi, rax
   8bae0:       7d 0a                   jge    0x8baec
   8bae2:       48 83 f8 ff             cmp    rax, 0xffffffffffffffff
   8bae6:       0f 85 63 ff ff ff       jne    0x8ba4f
   8baec:       44 8b 45 70             mov    r8d, DWORD PTR [rbp+0x70]
   8baf0:       45 31 c9                xor    r9d, r9d
   8baf3:       b9 01 00 00 00          mov    ecx, 0x1
   8baf8:       31 ff                   xor    edi, edi
   8bafa:       ba 01 00 00 00          mov    edx, 0x1
   8baff:       e8 bc 30 09 00          call   0x11ebc0
   8bb04:       49 89 c5                mov    r13, rax
   8bb07:       48 83 f8 ff             cmp    rax, 0xffffffffffffffff
   8bb0b:       0f 84 3e ff ff ff       je     0x8ba4f
   8bb11:       48 8b 74 24 30          mov    rsi, QWORD PTR [rsp+0x30]
   8bb16:       8b 7d 70                mov    edi, DWORD PTR [rbp+0x70]
   8bb19:       31 d2                   xor    edx, edx
   8bb1b:       e8 a0 8f 08 00          call   0x114ac0
   8bb20:       48 8b 74 24 30          mov    rsi, QWORD PTR [rsp+0x30]
   8bb25:       48 39 f0                cmp    rax, rsi
   8bb28:       74 38                   je     0x8bb62
   8bb2a:       4c 89 ef                mov    rdi, r13
   8bb2d:       e8 ee 30 09 00          call   0x11ec20
   8bb32:       48 c7 85 90 00 00 00 ff ff ff ff        mov    QWORD PTR [rbp+0x90], 0xffffffffffffffff
   8bb3d:       e9 0d ff ff ff          jmp    0x8ba4f
   8bb42:       66 0f 1f 44 00 00       nop    WORD PTR [rax+rax*1+0x0]
   8bb48:       e8 23 e4 ff ff          call   0x89f70
   8bb4d:       e9 42 ff ff ff          jmp    0x8ba94
   8bb52:       66 0f 1f 44 00 00       nop    WORD PTR [rax+rax*1+0x0]
   8bb58:       e8 13 e4 ff ff          call   0x89f70
   8bb5d:       e9 cc fe ff ff          jmp    0x8ba2e
   8bb62:       49 8d 54 05 00          lea    rdx, [r13+rax*1+0x0]
   8bb67:       31 c9                   xor    ecx, ecx
   8bb69:       4c 89 ee                mov    rsi, r13
   8bb6c:       48 89 ef                mov    rdi, rbp
   8bb6f:       e8 2c 21 00 00          call   0x8dca0
   8bb74:       48 8b 95 90 00 00 00    mov    rdx, QWORD PTR [rbp+0x90]
   8bb7b:       4c 89 6d 18             mov    QWORD PTR [rbp+0x18], r13
   8bb7f:       49 8d 44 15 00          lea    rax, [r13+rdx*1+0x0]
   8bb84:       48 83 fa ff             cmp    rdx, 0xffffffffffffffff
   8bb88:       48 8d 15 71 a4 18 00    lea    rdx, [rip+0x18a471]        # 0x216000
   8bb8f:       49 0f 44 c5             cmove  rax, r13
   8bb93:       66 48 0f 6e c0          movq   xmm0, rax
   8bb98:       48 8b 44 24 30          mov    rax, QWORD PTR [rsp+0x30]
   8bb9d:       49 01 c5                add    r13, rax
   8bba0:       48 89 85 90 00 00 00    mov    QWORD PTR [rbp+0x90], rax
   8bba7:       48 8d 05 92 a9 18 00    lea    rax, [rip+0x18a992]        # 0x216540
   8bbae:       66 49 0f 6e cd          movq   xmm1, r13
   8bbb3:       66 0f 6c c1             punpcklqdq xmm0, xmm1
   8bbb7:       0f 11 45 08             movups XMMWORD PTR [rbp+0x8], xmm0
   8bbbb:       e9 9d fe ff ff          jmp    0x8ba5d
   8bbc0:       e8 5b ab 0a 00          call   0x136720
================
_IO_wmem_finish 0x871d0
   871d0:       f3 0f 1e fa             endbr64 
   871d4:       55                      push   rbp
   871d5:       48 89 fd                mov    rbp, rdi
   871d8:       53                      push   rbx
   871d9:       48 83 ec 08             sub    rsp, 0x8
   871dd:       48 8b 87 a0 00 00 00    mov    rax, QWORD PTR [rdi+0xa0]
   871e4:       48 8b 9d f0 00 00 00    mov    rbx, QWORD PTR [rbp+0xf0]
   871eb:       48 8b 78 18             mov    rdi, QWORD PTR [rax+0x18]
   871ef:       48 8b 70 20             mov    rsi, QWORD PTR [rax+0x20]
   871f3:       48 29 fe                sub    rsi, rdi
   871f6:       48 83 c6 04             add    rsi, 0x4
   871fa:       e8 b1 11 fa ff          call   0x283b0
   871ff:       48 89 03                mov    QWORD PTR [rbx], rax
   87202:       48 8b 85 f0 00 00 00    mov    rax, QWORD PTR [rbp+0xf0]
   87209:       48 8b 08                mov    rcx, QWORD PTR [rax]
   8720c:       48 85 c9                test   rcx, rcx
   8720f:       74 2c                   je     0x8723d
   87211:       48 8b 95 a0 00 00 00    mov    rdx, QWORD PTR [rbp+0xa0]
   87218:       48 8b 42 20             mov    rax, QWORD PTR [rdx+0x20]
   8721c:       48 2b 42 18             sub    rax, QWORD PTR [rdx+0x18]
   87220:       c7 04 01 00 00 00 00    mov    DWORD PTR [rcx+rax*1], 0x0
   87227:       48 8b 8d f8 00 00 00    mov    rcx, QWORD PTR [rbp+0xf8]
   8722e:       48 c1 f8 02             sar    rax, 0x2
   87232:       48 89 01                mov    QWORD PTR [rcx], rax
   87235:       48 c7 42 30 00 00 00 00         mov    QWORD PTR [rdx+0x30], 0x0
   8723d:       48 83 c4 08             add    rsp, 0x8
   87241:       48 89 ef                mov    rdi, rbp
   87244:       31 f6                   xor    esi, esi
   87246:       5b                      pop    rbx
   87247:       5d                      pop    rbp
   87248:       e9 d3 d9 ff ff          jmp    0x84c20
================
_IO_wstr_finish 0x84c20
   84c20:       f3 0f 1e fa             endbr64 
   84c24:       55                      push   rbp
   84c25:       48 8b 87 a0 00 00 00    mov    rax, QWORD PTR [rdi+0xa0]
   84c2c:       48 89 fd                mov    rbp, rdi
   84c2f:       48 8b 78 30             mov    rdi, QWORD PTR [rax+0x30]
   84c33:       48 85 ff                test   rdi, rdi
   84c36:       74 06                   je     0x84c3e
   84c38:       f6 45 74 08             test   BYTE PTR [rbp+0x74], 0x8
   84c3c:       74 1a                   je     0x84c58
   84c3e:       48 c7 40 30 00 00 00 00         mov    QWORD PTR [rax+0x30], 0x0
   84c46:       48 89 ef                mov    rdi, rbp
   84c49:       31 f6                   xor    esi, esi
   84c4b:       5d                      pop    rbp
   84c4c:       e9 ef eb ff ff          jmp    0x83840
   84c51:       0f 1f 80 00 00 00 00    nop    DWORD PTR [rax+0x0]
   84c58:       e8 13 37 fa ff          call   0x28370
   84c5d:       48 8b 85 a0 00 00 00    mov    rax, QWORD PTR [rbp+0xa0]
   84c64:       eb d8                   jmp    0x84c3e
================
_IO_file_seek 0x8a6f0
   8a6f0:       f3 0f 1e fa             endbr64 
   8a6f4:       8b 7f 70                mov    edi, DWORD PTR [rdi+0x70]
   8a6f7:       e9 c4 a3 08 00          jmp    0x114ac0
================
_IO_file_seek 0x8a6f0
   8a6f0:       f3 0f 1e fa             endbr64 
   8a6f4:       8b 7f 70                mov    edi, DWORD PTR [rdi+0x70]
   8a6f7:       e9 c4 a3 08 00          jmp    0x114ac0
================
